
WORKING/gx_fpd:     file format elf64-littleaarch64


Disassembly of section .plt:

00000000000049a0 <memcpy@plt-0x20>:
    49a0:	a9bf7bf0 	stp	x16, x30, [sp, #-16]!
    49a4:	b0000150 	adrp	x16, 2d000 <__FINI_ARRAY__@@Base+0x360>
    49a8:	f9471a11 	ldr	x17, [x16, #3632]
    49ac:	9138c210 	add	x16, x16, #0xe30
    49b0:	d61f0220 	br	x17
    49b4:	d503201f 	nop
    49b8:	d503201f 	nop
    49bc:	d503201f 	nop

00000000000049c0 <memcpy@plt>:
    49c0:	b0000150 	adrp	x16, 2d000 <__FINI_ARRAY__@@Base+0x360>
    49c4:	f9471e11 	ldr	x17, [x16, #3640]
    49c8:	9138e210 	add	x16, x16, #0xe38
    49cc:	d61f0220 	br	x17

00000000000049d0 <_ZN7android8String16C1EPKc@plt>:
    49d0:	b0000150 	adrp	x16, 2d000 <__FINI_ARRAY__@@Base+0x360>
    49d4:	f9472211 	ldr	x17, [x16, #3648]
    49d8:	91390210 	add	x16, x16, #0xe40
    49dc:	d61f0220 	br	x17

00000000000049e0 <_ZN7android21defaultServiceManagerEv@plt>:
    49e0:	b0000150 	adrp	x16, 2d000 <__FINI_ARRAY__@@Base+0x360>
    49e4:	f9472611 	ldr	x17, [x16, #3656]
    49e8:	91392210 	add	x16, x16, #0xe48
    49ec:	d61f0220 	br	x17

00000000000049f0 <free@plt>:
    49f0:	b0000150 	adrp	x16, 2d000 <__FINI_ARRAY__@@Base+0x360>
    49f4:	f9472a11 	ldr	x17, [x16, #3664]
    49f8:	91394210 	add	x16, x16, #0xe50
    49fc:	d61f0220 	br	x17

0000000000004a00 <__libc_init@plt>:
    4a00:	b0000150 	adrp	x16, 2d000 <__FINI_ARRAY__@@Base+0x360>
    4a04:	f9472e11 	ldr	x17, [x16, #3672]
    4a08:	91396210 	add	x16, x16, #0xe58
    4a0c:	d61f0220 	br	x17

0000000000004a10 <pthread_key_delete@plt>:
    4a10:	b0000150 	adrp	x16, 2d000 <__FINI_ARRAY__@@Base+0x360>
    4a14:	f9473211 	ldr	x17, [x16, #3680]
    4a18:	91398210 	add	x16, x16, #0xe60
    4a1c:	d61f0220 	br	x17

0000000000004a20 <strcmp@plt>:
    4a20:	b0000150 	adrp	x16, 2d000 <__FINI_ARRAY__@@Base+0x360>
    4a24:	f9473611 	ldr	x17, [x16, #3688]
    4a28:	9139a210 	add	x16, x16, #0xe68
    4a2c:	d61f0220 	br	x17

0000000000004a30 <malloc@plt>:
    4a30:	b0000150 	adrp	x16, 2d000 <__FINI_ARRAY__@@Base+0x360>
    4a34:	f9473a11 	ldr	x17, [x16, #3696]
    4a38:	9139c210 	add	x16, x16, #0xe70
    4a3c:	d61f0220 	br	x17

0000000000004a40 <sprintf@plt>:
    4a40:	b0000150 	adrp	x16, 2d000 <__FINI_ARRAY__@@Base+0x360>
    4a44:	f9473e11 	ldr	x17, [x16, #3704]
    4a48:	9139e210 	add	x16, x16, #0xe78
    4a4c:	d61f0220 	br	x17

0000000000004a50 <pthread_setspecific@plt>:
    4a50:	b0000150 	adrp	x16, 2d000 <__FINI_ARRAY__@@Base+0x360>
    4a54:	f9474211 	ldr	x17, [x16, #3712]
    4a58:	913a0210 	add	x16, x16, #0xe80
    4a5c:	d61f0220 	br	x17

0000000000004a60 <pthread_once@plt>:
    4a60:	b0000150 	adrp	x16, 2d000 <__FINI_ARRAY__@@Base+0x360>
    4a64:	f9474611 	ldr	x17, [x16, #3720]
    4a68:	913a2210 	add	x16, x16, #0xe88
    4a6c:	d61f0220 	br	x17

0000000000004a70 <strlen@plt>:
    4a70:	b0000150 	adrp	x16, 2d000 <__FINI_ARRAY__@@Base+0x360>
    4a74:	f9474a11 	ldr	x17, [x16, #3728]
    4a78:	913a4210 	add	x16, x16, #0xe90
    4a7c:	d61f0220 	br	x17

0000000000004a80 <_ZN7android14IPCThreadState14joinThreadPoolEb@plt>:
    4a80:	b0000150 	adrp	x16, 2d000 <__FINI_ARRAY__@@Base+0x360>
    4a84:	f9474e11 	ldr	x17, [x16, #3736]
    4a88:	913a6210 	add	x16, x16, #0xe98
    4a8c:	d61f0220 	br	x17

0000000000004a90 <realloc@plt>:
    4a90:	b0000150 	adrp	x16, 2d000 <__FINI_ARRAY__@@Base+0x360>
    4a94:	f9475211 	ldr	x17, [x16, #3744]
    4a98:	913a8210 	add	x16, x16, #0xea0
    4a9c:	d61f0220 	br	x17

0000000000004aa0 <_ZNK7android7RefBase9decStrongEPKv@plt>:
    4aa0:	b0000150 	adrp	x16, 2d000 <__FINI_ARRAY__@@Base+0x360>
    4aa4:	f9475611 	ldr	x17, [x16, #3752]
    4aa8:	913aa210 	add	x16, x16, #0xea8
    4aac:	d61f0220 	br	x17

0000000000004ab0 <strncmp@plt>:
    4ab0:	b0000150 	adrp	x16, 2d000 <__FINI_ARRAY__@@Base+0x360>
    4ab4:	f9475a11 	ldr	x17, [x16, #3760]
    4ab8:	913ac210 	add	x16, x16, #0xeb0
    4abc:	d61f0220 	br	x17

0000000000004ac0 <fputc@plt>:
    4ac0:	b0000150 	adrp	x16, 2d000 <__FINI_ARRAY__@@Base+0x360>
    4ac4:	f9475e11 	ldr	x17, [x16, #3768]
    4ac8:	913ae210 	add	x16, x16, #0xeb8
    4acc:	d61f0220 	br	x17

0000000000004ad0 <_ZN7android12ProcessState15startThreadPoolEv@plt>:
    4ad0:	b0000150 	adrp	x16, 2d000 <__FINI_ARRAY__@@Base+0x360>
    4ad4:	f9476211 	ldr	x17, [x16, #3776]
    4ad8:	913b0210 	add	x16, x16, #0xec0
    4adc:	d61f0220 	br	x17

0000000000004ae0 <pthread_mutex_unlock@plt>:
    4ae0:	b0000150 	adrp	x16, 2d000 <__FINI_ARRAY__@@Base+0x360>
    4ae4:	f9476611 	ldr	x17, [x16, #3784]
    4ae8:	913b2210 	add	x16, x16, #0xec8
    4aec:	d61f0220 	br	x17

0000000000004af0 <fwrite@plt>:
    4af0:	b0000150 	adrp	x16, 2d000 <__FINI_ARRAY__@@Base+0x360>
    4af4:	f9476a11 	ldr	x17, [x16, #3792]
    4af8:	913b4210 	add	x16, x16, #0xed0
    4afc:	d61f0220 	br	x17

0000000000004b00 <_ZN7android14IPCThreadState4selfEv@plt>:
    4b00:	b0000150 	adrp	x16, 2d000 <__FINI_ARRAY__@@Base+0x360>
    4b04:	f9476e11 	ldr	x17, [x16, #3800]
    4b08:	913b6210 	add	x16, x16, #0xed8
    4b0c:	d61f0220 	br	x17

0000000000004b10 <memset@plt>:
    4b10:	b0000150 	adrp	x16, 2d000 <__FINI_ARRAY__@@Base+0x360>
    4b14:	f9477211 	ldr	x17, [x16, #3808]
    4b18:	913b8210 	add	x16, x16, #0xee0
    4b1c:	d61f0220 	br	x17

0000000000004b20 <pthread_getspecific@plt>:
    4b20:	b0000150 	adrp	x16, 2d000 <__FINI_ARRAY__@@Base+0x360>
    4b24:	f9477611 	ldr	x17, [x16, #3816]
    4b28:	913ba210 	add	x16, x16, #0xee8
    4b2c:	d61f0220 	br	x17

0000000000004b30 <abort@plt>:
    4b30:	b0000150 	adrp	x16, 2d000 <__FINI_ARRAY__@@Base+0x360>
    4b34:	f9477a11 	ldr	x17, [x16, #3824]
    4b38:	913bc210 	add	x16, x16, #0xef0
    4b3c:	d61f0220 	br	x17

0000000000004b40 <__cxa_atexit@plt>:
    4b40:	b0000150 	adrp	x16, 2d000 <__FINI_ARRAY__@@Base+0x360>
    4b44:	f9477e11 	ldr	x17, [x16, #3832]
    4b48:	913be210 	add	x16, x16, #0xef8
    4b4c:	d61f0220 	br	x17

0000000000004b50 <memcmp@plt>:
    4b50:	b0000150 	adrp	x16, 2d000 <__FINI_ARRAY__@@Base+0x360>
    4b54:	f9478211 	ldr	x17, [x16, #3840]
    4b58:	913c0210 	add	x16, x16, #0xf00
    4b5c:	d61f0220 	br	x17

0000000000004b60 <write@plt>:
    4b60:	b0000150 	adrp	x16, 2d000 <__FINI_ARRAY__@@Base+0x360>
    4b64:	f9478611 	ldr	x17, [x16, #3848]
    4b68:	913c2210 	add	x16, x16, #0xf08
    4b6c:	d61f0220 	br	x17

0000000000004b70 <pthread_mutex_lock@plt>:
    4b70:	b0000150 	adrp	x16, 2d000 <__FINI_ARRAY__@@Base+0x360>
    4b74:	f9478a11 	ldr	x17, [x16, #3856]
    4b78:	913c4210 	add	x16, x16, #0xf10
    4b7c:	d61f0220 	br	x17

0000000000004b80 <_ZN7android8String16D1Ev@plt>:
    4b80:	b0000150 	adrp	x16, 2d000 <__FINI_ARRAY__@@Base+0x360>
    4b84:	f9478e11 	ldr	x17, [x16, #3864]
    4b88:	913c6210 	add	x16, x16, #0xf18
    4b8c:	d61f0220 	br	x17

0000000000004b90 <pthread_key_create@plt>:
    4b90:	b0000150 	adrp	x16, 2d000 <__FINI_ARRAY__@@Base+0x360>
    4b94:	f9479211 	ldr	x17, [x16, #3872]
    4b98:	913c8210 	add	x16, x16, #0xf20
    4b9c:	d61f0220 	br	x17

0000000000004ba0 <_ZN7android12ProcessState4selfEv@plt>:
    4ba0:	b0000150 	adrp	x16, 2d000 <__FINI_ARRAY__@@Base+0x360>
    4ba4:	f9479611 	ldr	x17, [x16, #3880]
    4ba8:	913ca210 	add	x16, x16, #0xf28
    4bac:	d61f0220 	br	x17

0000000000004bb0 <__stack_chk_fail@plt>:
    4bb0:	b0000150 	adrp	x16, 2d000 <__FINI_ARRAY__@@Base+0x360>
    4bb4:	f9479a11 	ldr	x17, [x16, #3888]
    4bb8:	913cc210 	add	x16, x16, #0xf30
    4bbc:	d61f0220 	br	x17

0000000000004bc0 <fputs@plt>:
    4bc0:	b0000150 	adrp	x16, 2d000 <__FINI_ARRAY__@@Base+0x360>
    4bc4:	f9479e11 	ldr	x17, [x16, #3896]
    4bc8:	913ce210 	add	x16, x16, #0xf38
    4bcc:	d61f0220 	br	x17

0000000000004bd0 <_ZN7android9FpServiceC1Ev@plt>:
    4bd0:	b0000150 	adrp	x16, 2d000 <__FINI_ARRAY__@@Base+0x360>
    4bd4:	f947a211 	ldr	x17, [x16, #3904]
    4bd8:	913d0210 	add	x16, x16, #0xf40
    4bdc:	d61f0220 	br	x17

0000000000004be0 <_ZNK7android7RefBase9incStrongEPKv@plt>:
    4be0:	b0000150 	adrp	x16, 2d000 <__FINI_ARRAY__@@Base+0x360>
    4be4:	f947a611 	ldr	x17, [x16, #3912]
    4be8:	913d2210 	add	x16, x16, #0xf48
    4bec:	d61f0220 	br	x17

0000000000004bf0 <dl_iterate_phdr@plt>:
    4bf0:	b0000150 	adrp	x16, 2d000 <__FINI_ARRAY__@@Base+0x360>
    4bf4:	f947aa11 	ldr	x17, [x16, #3920]
    4bf8:	913d4210 	add	x16, x16, #0xf50
    4bfc:	d61f0220 	br	x17

Disassembly of section .text:

0000000000004c00 <main@@Base>:
    4c00:	a9b97bfd 	stp	x29, x30, [sp, #-112]!
    4c04:	910003fd 	mov	x29, sp
    4c08:	a90153f3 	stp	x19, x20, [sp, #16]
    4c0c:	b0000154 	adrp	x20, 2d000 <__FINI_ARRAY__@@Base+0x360>
    4c10:	f90023f9 	str	x25, [sp, #64]
    4c14:	a90363f7 	stp	x23, x24, [sp, #48]
    4c18:	910143b8 	add	x24, x29, #0x50
    4c1c:	910183b3 	add	x19, x29, #0x60
    4c20:	f947de80 	ldr	x0, [x20, #4024]
    4c24:	aa1803e8 	mov	x8, x24
    4c28:	a9025bf5 	stp	x21, x22, [sp, #32]
    4c2c:	910163b5 	add	x21, x29, #0x58
    4c30:	f9400000 	ldr	x0, [x0]
    4c34:	f90037a0 	str	x0, [x29, #104]
    4c38:	97ffff6a 	bl	49e0 <_ZN7android21defaultServiceManagerEv@plt>
    4c3c:	d2805e00 	mov	x0, #0x2f0                 	// #752
    4c40:	9400007d 	bl	4e34 <_Znwm@@Base>
    4c44:	aa0003f7 	mov	x23, x0
    4c48:	97ffffe2 	bl	4bd0 <_ZN7android9FpServiceC1Ev@plt>
    4c4c:	f9402bb6 	ldr	x22, [x29, #80]
    4c50:	f0000081 	adrp	x1, 17000 <_Unwind_Backtrace@@Base+0xb6c>
    4c54:	aa1503e0 	mov	x0, x21
    4c58:	91374021 	add	x1, x1, #0xdd0
    4c5c:	f94002c2 	ldr	x2, [x22]
    4c60:	f9401859 	ldr	x25, [x2, #48]
    4c64:	97ffff5b 	bl	49d0 <_ZN7android8String16C1EPKc@plt>
    4c68:	910022e0 	add	x0, x23, #0x8
    4c6c:	f90033a0 	str	x0, [x29, #96]
    4c70:	aa1303e1 	mov	x1, x19
    4c74:	f94006e2 	ldr	x2, [x23, #8]
    4c78:	f85e8042 	ldur	x2, [x2, #-24]
    4c7c:	8b020000 	add	x0, x0, x2
    4c80:	97ffffd8 	bl	4be0 <_ZNK7android7RefBase9incStrongEPKv@plt>
    4c84:	aa1603e0 	mov	x0, x22
    4c88:	aa1503e1 	mov	x1, x21
    4c8c:	aa1303e2 	mov	x2, x19
    4c90:	52800003 	mov	w3, #0x0                   	// #0
    4c94:	d63f0320 	blr	x25
    4c98:	f94033a0 	ldr	x0, [x29, #96]
    4c9c:	b40000c0 	cbz	x0, 4cb4 <main@@Base+0xb4>
    4ca0:	f9400002 	ldr	x2, [x0]
    4ca4:	aa1303e1 	mov	x1, x19
    4ca8:	f85e8042 	ldur	x2, [x2, #-24]
    4cac:	8b020000 	add	x0, x0, x2
    4cb0:	97ffff7c 	bl	4aa0 <_ZNK7android7RefBase9decStrongEPKv@plt>
    4cb4:	aa1503e0 	mov	x0, x21
    4cb8:	97ffffb2 	bl	4b80 <_ZN7android8String16D1Ev@plt>
    4cbc:	aa1303e8 	mov	x8, x19
    4cc0:	97ffffb8 	bl	4ba0 <_ZN7android12ProcessState4selfEv@plt>
    4cc4:	f94033a0 	ldr	x0, [x29, #96]
    4cc8:	97ffff82 	bl	4ad0 <_ZN7android12ProcessState15startThreadPoolEv@plt>
    4ccc:	f94033a0 	ldr	x0, [x29, #96]
    4cd0:	b40000c0 	cbz	x0, 4ce8 <main@@Base+0xe8>
    4cd4:	f9400002 	ldr	x2, [x0]
    4cd8:	aa1303e1 	mov	x1, x19
    4cdc:	f85e8042 	ldur	x2, [x2, #-24]
    4ce0:	8b020000 	add	x0, x0, x2
    4ce4:	97ffff6f 	bl	4aa0 <_ZNK7android7RefBase9decStrongEPKv@plt>
    4ce8:	97ffff86 	bl	4b00 <_ZN7android14IPCThreadState4selfEv@plt>
    4cec:	52800021 	mov	w1, #0x1                   	// #1
    4cf0:	97ffff64 	bl	4a80 <_ZN7android14IPCThreadState14joinThreadPoolEb@plt>
    4cf4:	f9402ba0 	ldr	x0, [x29, #80]
    4cf8:	b40000c0 	cbz	x0, 4d10 <main@@Base+0x110>
    4cfc:	f9400002 	ldr	x2, [x0]
    4d00:	aa1803e1 	mov	x1, x24
    4d04:	f85e8042 	ldur	x2, [x2, #-24]
    4d08:	8b020000 	add	x0, x0, x2
    4d0c:	97ffff65 	bl	4aa0 <_ZNK7android7RefBase9decStrongEPKv@plt>
    4d10:	f947de94 	ldr	x20, [x20, #4024]
    4d14:	52800000 	mov	w0, #0x0                   	// #0
    4d18:	f94037a2 	ldr	x2, [x29, #104]
    4d1c:	f9400281 	ldr	x1, [x20]
    4d20:	eb01005f 	cmp	x2, x1
    4d24:	540000e1 	b.ne	4d40 <main@@Base+0x140>  // b.any
    4d28:	a94153f3 	ldp	x19, x20, [sp, #16]
    4d2c:	a9425bf5 	ldp	x21, x22, [sp, #32]
    4d30:	a94363f7 	ldp	x23, x24, [sp, #48]
    4d34:	f94023f9 	ldr	x25, [sp, #64]
    4d38:	a8c77bfd 	ldp	x29, x30, [sp], #112
    4d3c:	d65f03c0 	ret
    4d40:	97ffff9c 	bl	4bb0 <__stack_chk_fail@plt>
    4d44:	f0000140 	adrp	x0, 2f000 <__bss_start@@Base+0xfd0>
    4d48:	91310000 	add	x0, x0, #0xc40
    4d4c:	a9007c1f 	stp	xzr, xzr, [x0]
    4d50:	a9017c1f 	stp	xzr, xzr, [x0, #16]
    4d54:	f900101f 	str	xzr, [x0, #32]
    4d58:	d65f03c0 	ret
    4d5c:	a9be7bfd 	stp	x29, x30, [sp, #-32]!
    4d60:	b0000140 	adrp	x0, 2d000 <__FINI_ARRAY__@@Base+0x360>
    4d64:	910003fd 	mov	x29, sp
    4d68:	a90153f3 	stp	x19, x20, [sp, #16]
    4d6c:	f00001d4 	adrp	x20, 3f000 <__bss_start@@Base+0x10fd0>
    4d70:	f947d400 	ldr	x0, [x0, #4008]
    4d74:	91320293 	add	x19, x20, #0xc80
    4d78:	3900127f 	strb	wzr, [x19, #4]
    4d7c:	b4000100 	cbz	x0, 4d9c <main@@Base+0x19c>
    4d80:	d0000001 	adrp	x1, 6000 <__cxa_throw@@Base+0x5c>
    4d84:	aa1303e0 	mov	x0, x19
    4d88:	91222021 	add	x1, x1, #0x888
    4d8c:	97ffff81 	bl	4b90 <pthread_key_create@plt>
    4d90:	6b1f001f 	cmp	w0, wzr
    4d94:	1a9f17e0 	cset	w0, eq	// eq = none
    4d98:	39001260 	strb	w0, [x19, #4]
    4d9c:	91320281 	add	x1, x20, #0xc80
    4da0:	d0000000 	adrp	x0, 6000 <__cxa_throw@@Base+0x5c>
    4da4:	a94153f3 	ldp	x19, x20, [sp, #16]
    4da8:	d0000142 	adrp	x2, 2e000 <_ZTVN10__cxxabiv117__class_type_infoE@@Base+0x500>
    4dac:	9121b000 	add	x0, x0, #0x86c
    4db0:	a8c27bfd 	ldp	x29, x30, [sp], #32
    4db4:	91000042 	add	x2, x2, #0x0
    4db8:	17ffff62 	b	4b40 <__cxa_atexit@plt>
    4dbc:	8b3f63e0 	add	x0, sp, xzr
    4dc0:	14000007 	b	4ddc <main@@Base+0x1dc>
    4dc4:	a9bf7bfd 	stp	x29, x30, [sp, #-16]!
    4dc8:	910003fd 	mov	x29, sp
    4dcc:	b4000040 	cbz	x0, 4dd4 <main@@Base+0x1d4>
    4dd0:	d63f0000 	blr	x0
    4dd4:	a8c17bfd 	ldp	x29, x30, [sp], #16
    4dd8:	d65f03c0 	ret
    4ddc:	b0000142 	adrp	x2, 2d000 <__FINI_ARRAY__@@Base+0x360>
    4de0:	b0000146 	adrp	x6, 2d000 <__FINI_ARRAY__@@Base+0x360>
    4de4:	b0000145 	adrp	x5, 2d000 <__FINI_ARRAY__@@Base+0x360>
    4de8:	b0000144 	adrp	x4, 2d000 <__FINI_ARRAY__@@Base+0x360>
    4dec:	a9bd7bfd 	stp	x29, x30, [sp, #-48]!
    4df0:	d2800001 	mov	x1, #0x0                   	// #0
    4df4:	910003fd 	mov	x29, sp
    4df8:	f947e8c6 	ldr	x6, [x6, #4048]
    4dfc:	910063a3 	add	x3, x29, #0x18
    4e00:	f947d8a5 	ldr	x5, [x5, #4016]
    4e04:	f947f084 	ldr	x4, [x4, #4064]
    4e08:	f947e442 	ldr	x2, [x2, #4040]
    4e0c:	f9000fa6 	str	x6, [x29, #24]
    4e10:	f90013a5 	str	x5, [x29, #32]
    4e14:	f90017a4 	str	x4, [x29, #40]
    4e18:	97fffefa 	bl	4a00 <__libc_init@plt>
    4e1c:	aa0003e1 	mov	x1, x0
    4e20:	d0000142 	adrp	x2, 2e000 <_ZTVN10__cxxabiv117__class_type_infoE@@Base+0x500>
    4e24:	90000000 	adrp	x0, 4000 <memcpy@plt-0x9c0>
    4e28:	91000042 	add	x2, x2, #0x0
    4e2c:	91371000 	add	x0, x0, #0xdc4
    4e30:	17ffff44 	b	4b40 <__cxa_atexit@plt>

0000000000004e34 <_Znwm@@Base>:
    4e34:	a9be7bfd 	stp	x29, x30, [sp, #-32]!
    4e38:	eb1f001f 	cmp	x0, xzr
    4e3c:	910003fd 	mov	x29, sp
    4e40:	f9000bf3 	str	x19, [sp, #16]
    4e44:	9a9f1413 	csinc	x19, x0, xzr, ne	// ne = any
    4e48:	aa1303e0 	mov	x0, x19
    4e4c:	97fffef9 	bl	4a30 <malloc@plt>
    4e50:	b50000e0 	cbnz	x0, 4e6c <_Znwm@@Base+0x38>
    4e54:	9400049a 	bl	60bc <_ZSt15get_new_handlerv@@Base>
    4e58:	b4000100 	cbz	x0, 4e78 <_Znwm@@Base+0x44>
    4e5c:	d63f0000 	blr	x0
    4e60:	aa1303e0 	mov	x0, x19
    4e64:	97fffef3 	bl	4a30 <malloc@plt>
    4e68:	b4ffff60 	cbz	x0, 4e54 <_Znwm@@Base+0x20>
    4e6c:	f9400bf3 	ldr	x19, [sp, #16]
    4e70:	a8c27bfd 	ldp	x29, x30, [sp], #32
    4e74:	d65f03c0 	ret
    4e78:	d2800100 	mov	x0, #0x8                   	// #8
    4e7c:	9400005a 	bl	4fe4 <__cxa_allocate_exception@@Base>
    4e80:	b0000141 	adrp	x1, 2d000 <__FINI_ARRAY__@@Base+0x360>
    4e84:	b0000142 	adrp	x2, 2d000 <__FINI_ARRAY__@@Base+0x360>
    4e88:	f947e021 	ldr	x1, [x1, #4032]
    4e8c:	91004021 	add	x1, x1, #0x10
    4e90:	f9000001 	str	x1, [x0]
    4e94:	b0000141 	adrp	x1, 2d000 <__FINI_ARRAY__@@Base+0x360>
    4e98:	f947b842 	ldr	x2, [x2, #3952]
    4e9c:	f947b421 	ldr	x1, [x1, #3944]
    4ea0:	94000441 	bl	5fa4 <__cxa_throw@@Base>

0000000000004ea4 <_ZNKSt9bad_alloc4whatEv@@Base>:
    4ea4:	f0000080 	adrp	x0, 17000 <_Unwind_Backtrace@@Base+0xb6c>
    4ea8:	9137c000 	add	x0, x0, #0xdf0
    4eac:	d65f03c0 	ret

0000000000004eb0 <_ZNSt9bad_allocD1Ev@@Base>:
    4eb0:	b0000141 	adrp	x1, 2d000 <__FINI_ARRAY__@@Base+0x360>
    4eb4:	f947e021 	ldr	x1, [x1, #4032]
    4eb8:	91004021 	add	x1, x1, #0x10
    4ebc:	f9000001 	str	x1, [x0]
    4ec0:	1400012c 	b	5370 <_ZNSt9exceptionD1Ev@@Base>

0000000000004ec4 <_ZNSt9bad_allocD0Ev@@Base>:
    4ec4:	a9be7bfd 	stp	x29, x30, [sp, #-32]!
    4ec8:	910003fd 	mov	x29, sp
    4ecc:	f9000bf3 	str	x19, [sp, #16]
    4ed0:	aa0003f3 	mov	x19, x0
    4ed4:	97fffff7 	bl	4eb0 <_ZNSt9bad_allocD1Ev@@Base>
    4ed8:	aa1303e0 	mov	x0, x19
    4edc:	f9400bf3 	ldr	x19, [sp, #16]
    4ee0:	a8c27bfd 	ldp	x29, x30, [sp], #32
    4ee4:	14000001 	b	4ee8 <_ZdlPv@@Base>

0000000000004ee8 <_ZdlPv@@Base>:
    4ee8:	17fffec2 	b	49f0 <free@plt>
    4eec:	f0000080 	adrp	x0, 17000 <_Unwind_Backtrace@@Base+0xb6c>
    4ef0:	91398000 	add	x0, x0, #0xe60
    4ef4:	d65f03c0 	ret
    4ef8:	f0000080 	adrp	x0, 17000 <_Unwind_Backtrace@@Base+0xb6c>
    4efc:	913a2000 	add	x0, x0, #0xe88
    4f00:	d65f03c0 	ret
    4f04:	90000141 	adrp	x1, 2c000 <_ZTSN10__cxxabiv117__class_type_infoE@@Base+0x14000>
    4f08:	91330021 	add	x1, x1, #0xcc0
    4f0c:	f9000001 	str	x1, [x0]
    4f10:	14000118 	b	5370 <_ZNSt9exceptionD1Ev@@Base>
    4f14:	90000141 	adrp	x1, 2c000 <_ZTSN10__cxxabiv117__class_type_infoE@@Base+0x14000>
    4f18:	9133c021 	add	x1, x1, #0xcf0
    4f1c:	f9000001 	str	x1, [x0]
    4f20:	14000114 	b	5370 <_ZNSt9exceptionD1Ev@@Base>
    4f24:	a9be7bfd 	stp	x29, x30, [sp, #-32]!
    4f28:	90000141 	adrp	x1, 2c000 <_ZTSN10__cxxabiv117__class_type_infoE@@Base+0x14000>
    4f2c:	910003fd 	mov	x29, sp
    4f30:	f9000bf3 	str	x19, [sp, #16]
    4f34:	91330021 	add	x1, x1, #0xcc0
    4f38:	f9000001 	str	x1, [x0]
    4f3c:	aa0003f3 	mov	x19, x0
    4f40:	9400010c 	bl	5370 <_ZNSt9exceptionD1Ev@@Base>
    4f44:	aa1303e0 	mov	x0, x19
    4f48:	f9400bf3 	ldr	x19, [sp, #16]
    4f4c:	a8c27bfd 	ldp	x29, x30, [sp], #32
    4f50:	17ffffe6 	b	4ee8 <_ZdlPv@@Base>
    4f54:	a9be7bfd 	stp	x29, x30, [sp, #-32]!
    4f58:	90000141 	adrp	x1, 2c000 <_ZTSN10__cxxabiv117__class_type_infoE@@Base+0x14000>
    4f5c:	910003fd 	mov	x29, sp
    4f60:	f9000bf3 	str	x19, [sp, #16]
    4f64:	9133c021 	add	x1, x1, #0xcf0
    4f68:	f9000001 	str	x1, [x0]
    4f6c:	aa0003f3 	mov	x19, x0
    4f70:	94000100 	bl	5370 <_ZNSt9exceptionD1Ev@@Base>
    4f74:	aa1303e0 	mov	x0, x19
    4f78:	f9400bf3 	ldr	x19, [sp, #16]
    4f7c:	a8c27bfd 	ldp	x29, x30, [sp], #32
    4f80:	17ffffda 	b	4ee8 <_ZdlPv@@Base>
    4f84:	a9bf7bfd 	stp	x29, x30, [sp, #-16]!
    4f88:	d2800100 	mov	x0, #0x8                   	// #8
    4f8c:	910003fd 	mov	x29, sp
    4f90:	94000015 	bl	4fe4 <__cxa_allocate_exception@@Base>
    4f94:	90000142 	adrp	x2, 2c000 <_ZTSN10__cxxabiv117__class_type_infoE@@Base+0x14000>
    4f98:	b0000141 	adrp	x1, 2d000 <__FINI_ARRAY__@@Base+0x360>
    4f9c:	91330042 	add	x2, x2, #0xcc0
    4fa0:	f9000002 	str	x2, [x0]
    4fa4:	90000002 	adrp	x2, 4000 <memcpy@plt-0x9c0>
    4fa8:	91244021 	add	x1, x1, #0x910
    4fac:	913c1042 	add	x2, x2, #0xf04
    4fb0:	940003fd 	bl	5fa4 <__cxa_throw@@Base>
    4fb4:	a9bf7bfd 	stp	x29, x30, [sp, #-16]!
    4fb8:	d2800100 	mov	x0, #0x8                   	// #8
    4fbc:	910003fd 	mov	x29, sp
    4fc0:	94000009 	bl	4fe4 <__cxa_allocate_exception@@Base>
    4fc4:	90000142 	adrp	x2, 2c000 <_ZTSN10__cxxabiv117__class_type_infoE@@Base+0x14000>
    4fc8:	b0000141 	adrp	x1, 2d000 <__FINI_ARRAY__@@Base+0x360>
    4fcc:	9133c042 	add	x2, x2, #0xcf0
    4fd0:	f9000002 	str	x2, [x0]
    4fd4:	90000002 	adrp	x2, 4000 <memcpy@plt-0x9c0>
    4fd8:	9124a021 	add	x1, x1, #0x928
    4fdc:	913c5042 	add	x2, x2, #0xf14
    4fe0:	940003f1 	bl	5fa4 <__cxa_throw@@Base>

0000000000004fe4 <__cxa_allocate_exception@@Base>:
    4fe4:	a9bd7bfd 	stp	x29, x30, [sp, #-48]!
    4fe8:	910003fd 	mov	x29, sp
    4fec:	a90153f3 	stp	x19, x20, [sp, #16]
    4ff0:	91020014 	add	x20, x0, #0x80
    4ff4:	f90013f5 	str	x21, [sp, #32]
    4ff8:	aa1403e0 	mov	x0, x20
    4ffc:	97fffe8d 	bl	4a30 <malloc@plt>
    5000:	aa0003f3 	mov	x19, x0
    5004:	b40001c0 	cbz	x0, 503c <__cxa_allocate_exception@@Base+0x58>
    5008:	a9007e7f 	stp	xzr, xzr, [x19]
    500c:	a9017e7f 	stp	xzr, xzr, [x19, #16]
    5010:	a9027e7f 	stp	xzr, xzr, [x19, #32]
    5014:	a9037e7f 	stp	xzr, xzr, [x19, #48]
    5018:	a9047e7f 	stp	xzr, xzr, [x19, #64]
    501c:	a9057e7f 	stp	xzr, xzr, [x19, #80]
    5020:	a9067e7f 	stp	xzr, xzr, [x19, #96]
    5024:	a9077e7f 	stp	xzr, xzr, [x19, #112]
    5028:	91020260 	add	x0, x19, #0x80
    502c:	a94153f3 	ldp	x19, x20, [sp, #16]
    5030:	f94013f5 	ldr	x21, [sp, #32]
    5034:	a8c37bfd 	ldp	x29, x30, [sp], #48
    5038:	d65f03c0 	ret
    503c:	90000155 	adrp	x21, 2d000 <__FINI_ARRAY__@@Base+0x360>
    5040:	f947d6a0 	ldr	x0, [x21, #4008]
    5044:	b40000a0 	cbz	x0, 5058 <__cxa_allocate_exception@@Base+0x74>
    5048:	d0000140 	adrp	x0, 2f000 <__bss_start@@Base+0xfd0>
    504c:	91310000 	add	x0, x0, #0xc40
    5050:	97fffec8 	bl	4b70 <pthread_mutex_lock@plt>
    5054:	350003e0 	cbnz	w0, 50d0 <__cxa_allocate_exception@@Base+0xec>
    5058:	d00001c2 	adrp	x2, 3f000 <__bss_start@@Base+0x10fd0>
    505c:	f110029f 	cmp	x20, #0x400
    5060:	f9463841 	ldr	x1, [x2, #3184]
    5064:	54000108 	b.hi	5084 <__cxa_allocate_exception@@Base+0xa0>  // b.pmore
    5068:	aa0103e0 	mov	x0, x1
    506c:	52800013 	mov	w19, #0x0                   	// #0
    5070:	360000c0 	tbz	w0, #0, 5088 <__cxa_allocate_exception@@Base+0xa4>
    5074:	11000673 	add	w19, w19, #0x1
    5078:	d341fc00 	lsr	x0, x0, #1
    507c:	7101027f 	cmp	w19, #0x40
    5080:	54ffff81 	b.ne	5070 <__cxa_allocate_exception@@Base+0x8c>  // b.any
    5084:	94000398 	bl	5ee4 <_ZSt9terminatev@@Base>
    5088:	d2800020 	mov	x0, #0x1                   	// #1
    508c:	f947d6b5 	ldr	x21, [x21, #4008]
    5090:	9ad32000 	lsl	x0, x0, x19
    5094:	d3767e73 	ubfiz	x19, x19, #10, #32
    5098:	aa010001 	orr	x1, x0, x1
    509c:	d0000140 	adrp	x0, 2f000 <__bss_start@@Base+0xfd0>
    50a0:	f9063841 	str	x1, [x2, #3184]
    50a4:	9131c000 	add	x0, x0, #0xc70
    50a8:	8b130013 	add	x19, x0, x19
    50ac:	b4fffaf5 	cbz	x21, 5008 <__cxa_allocate_exception@@Base+0x24>
    50b0:	d0000140 	adrp	x0, 2f000 <__bss_start@@Base+0xfd0>
    50b4:	91310000 	add	x0, x0, #0xc40
    50b8:	97fffe8a 	bl	4ae0 <pthread_mutex_unlock@plt>
    50bc:	34fffa60 	cbz	w0, 5008 <__cxa_allocate_exception@@Base+0x24>
    50c0:	97ffffbd 	bl	4fb4 <_ZdlPv@@Base+0xcc>
    50c4:	b100043f 	cmn	x1, #0x1
    50c8:	54000060 	b.eq	50d4 <__cxa_allocate_exception@@Base+0xf0>  // b.none
    50cc:	9400446c 	bl	1627c <_Unwind_Resume@@Base>
    50d0:	97ffffad 	bl	4f84 <_ZdlPv@@Base+0x9c>
    50d4:	9400032e 	bl	5d8c <__cxa_call_unexpected@@Base>
    50d8:	17fffffb 	b	50c4 <__cxa_allocate_exception@@Base+0xe0>

00000000000050dc <__cxa_free_exception@@Base>:
    50dc:	a9be7bfd 	stp	x29, x30, [sp, #-32]!
    50e0:	d0000141 	adrp	x1, 2f000 <__bss_start@@Base+0xfd0>
    50e4:	910003fd 	mov	x29, sp
    50e8:	9131c021 	add	x1, x1, #0xc70
    50ec:	eb01001f 	cmp	x0, x1
    50f0:	a90153f3 	stp	x19, x20, [sp, #16]
    50f4:	54000323 	b.cc	5158 <__cxa_free_exception@@Base+0x7c>  // b.lo, b.ul, b.last
    50f8:	91404022 	add	x2, x1, #0x10, lsl #12
    50fc:	eb02001f 	cmp	x0, x2
    5100:	540002c2 	b.cs	5158 <__cxa_free_exception@@Base+0x7c>  // b.hs, b.nlast
    5104:	cb010000 	sub	x0, x0, x1
    5108:	530a7c13 	lsr	w19, w0, #10
    510c:	90000140 	adrp	x0, 2d000 <__FINI_ARRAY__@@Base+0x360>
    5110:	f947d400 	ldr	x0, [x0, #4008]
    5114:	b40002a0 	cbz	x0, 5168 <__cxa_free_exception@@Base+0x8c>
    5118:	d0000154 	adrp	x20, 2f000 <__bss_start@@Base+0xfd0>
    511c:	91310280 	add	x0, x20, #0xc40
    5120:	97fffe94 	bl	4b70 <pthread_mutex_lock@plt>
    5124:	350003c0 	cbnz	w0, 519c <__cxa_free_exception@@Base+0xc0>
    5128:	d00001c2 	adrp	x2, 3f000 <__bss_start@@Base+0x10fd0>
    512c:	d2800021 	mov	x1, #0x1                   	// #1
    5130:	9ad32033 	lsl	x19, x1, x19
    5134:	91310280 	add	x0, x20, #0xc40
    5138:	f9463841 	ldr	x1, [x2, #3184]
    513c:	8a330033 	bic	x19, x1, x19
    5140:	f9063853 	str	x19, [x2, #3184]
    5144:	97fffe67 	bl	4ae0 <pthread_mutex_unlock@plt>
    5148:	35000220 	cbnz	w0, 518c <__cxa_free_exception@@Base+0xb0>
    514c:	a94153f3 	ldp	x19, x20, [sp, #16]
    5150:	a8c27bfd 	ldp	x29, x30, [sp], #32
    5154:	d65f03c0 	ret
    5158:	a94153f3 	ldp	x19, x20, [sp, #16]
    515c:	a8c27bfd 	ldp	x29, x30, [sp], #32
    5160:	d1020000 	sub	x0, x0, #0x80
    5164:	17fffe23 	b	49f0 <free@plt>
    5168:	d00001c0 	adrp	x0, 3f000 <__bss_start@@Base+0x10fd0>
    516c:	d2800021 	mov	x1, #0x1                   	// #1
    5170:	9ad32033 	lsl	x19, x1, x19
    5174:	f9463801 	ldr	x1, [x0, #3184]
    5178:	8a330033 	bic	x19, x1, x19
    517c:	f9063813 	str	x19, [x0, #3184]
    5180:	a94153f3 	ldp	x19, x20, [sp, #16]
    5184:	a8c27bfd 	ldp	x29, x30, [sp], #32
    5188:	d65f03c0 	ret
    518c:	97ffff8a 	bl	4fb4 <_ZdlPv@@Base+0xcc>
    5190:	b100043f 	cmn	x1, #0x1
    5194:	54000080 	b.eq	51a4 <__cxa_free_exception@@Base+0xc8>  // b.none
    5198:	94004439 	bl	1627c <_Unwind_Resume@@Base>
    519c:	97ffff7a 	bl	4f84 <_ZdlPv@@Base+0x9c>
    51a0:	17fffffc 	b	5190 <__cxa_free_exception@@Base+0xb4>
    51a4:	940002fa 	bl	5d8c <__cxa_call_unexpected@@Base>

00000000000051a8 <__cxa_allocate_dependent_exception@@Base>:
    51a8:	a9be7bfd 	stp	x29, x30, [sp, #-32]!
    51ac:	d2800e00 	mov	x0, #0x70                  	// #112
    51b0:	910003fd 	mov	x29, sp
    51b4:	a90153f3 	stp	x19, x20, [sp, #16]
    51b8:	97fffe1e 	bl	4a30 <malloc@plt>
    51bc:	aa0003f3 	mov	x19, x0
    51c0:	b4000180 	cbz	x0, 51f0 <__cxa_allocate_dependent_exception@@Base+0x48>
    51c4:	a9007e7f 	stp	xzr, xzr, [x19]
    51c8:	a9017e7f 	stp	xzr, xzr, [x19, #16]
    51cc:	a9027e7f 	stp	xzr, xzr, [x19, #32]
    51d0:	a9037e7f 	stp	xzr, xzr, [x19, #48]
    51d4:	a9047e7f 	stp	xzr, xzr, [x19, #64]
    51d8:	a9057e7f 	stp	xzr, xzr, [x19, #80]
    51dc:	a9067e7f 	stp	xzr, xzr, [x19, #96]
    51e0:	aa1303e0 	mov	x0, x19
    51e4:	a94153f3 	ldp	x19, x20, [sp, #16]
    51e8:	a8c27bfd 	ldp	x29, x30, [sp], #32
    51ec:	d65f03c0 	ret
    51f0:	90000154 	adrp	x20, 2d000 <__FINI_ARRAY__@@Base+0x360>
    51f4:	f947d680 	ldr	x0, [x20, #4008]
    51f8:	b40000a0 	cbz	x0, 520c <__cxa_allocate_dependent_exception@@Base+0x64>
    51fc:	d0000140 	adrp	x0, 2f000 <__bss_start@@Base+0xfd0>
    5200:	91310000 	add	x0, x0, #0xc40
    5204:	97fffe5b 	bl	4b70 <pthread_mutex_lock@plt>
    5208:	35000380 	cbnz	w0, 5278 <__cxa_allocate_dependent_exception@@Base+0xd0>
    520c:	b0000143 	adrp	x3, 2e000 <_ZTVN10__cxxabiv117__class_type_infoE@@Base+0x500>
    5210:	52800000 	mov	w0, #0x0                   	// #0
    5214:	f9401873 	ldr	x19, [x3, #48]
    5218:	aa1303e1 	mov	x1, x19
    521c:	360000c1 	tbz	w1, #0, 5234 <__cxa_allocate_dependent_exception@@Base+0x8c>
    5220:	11000400 	add	w0, w0, #0x1
    5224:	d341fc21 	lsr	x1, x1, #1
    5228:	7101001f 	cmp	w0, #0x40
    522c:	54ffff81 	b.ne	521c <__cxa_allocate_dependent_exception@@Base+0x74>  // b.any
    5230:	9400032d 	bl	5ee4 <_ZSt9terminatev@@Base>
    5234:	d2800022 	mov	x2, #0x1                   	// #1
    5238:	2a0003e1 	mov	w1, w0
    523c:	9ac02040 	lsl	x0, x2, x0
    5240:	f947d694 	ldr	x20, [x20, #4008]
    5244:	aa130013 	orr	x19, x0, x19
    5248:	d379e020 	lsl	x0, x1, #7
    524c:	f9001873 	str	x19, [x3, #48]
    5250:	b0000153 	adrp	x19, 2e000 <_ZTVN10__cxxabiv117__class_type_infoE@@Base+0x500>
    5254:	cb011000 	sub	x0, x0, x1, lsl #4
    5258:	91010273 	add	x19, x19, #0x40
    525c:	8b000273 	add	x19, x19, x0
    5260:	b4fffb34 	cbz	x20, 51c4 <__cxa_allocate_dependent_exception@@Base+0x1c>
    5264:	d0000140 	adrp	x0, 2f000 <__bss_start@@Base+0xfd0>
    5268:	91310000 	add	x0, x0, #0xc40
    526c:	97fffe1d 	bl	4ae0 <pthread_mutex_unlock@plt>
    5270:	34fffaa0 	cbz	w0, 51c4 <__cxa_allocate_dependent_exception@@Base+0x1c>
    5274:	97ffff50 	bl	4fb4 <_ZdlPv@@Base+0xcc>
    5278:	97ffff43 	bl	4f84 <_ZdlPv@@Base+0x9c>
    527c:	b100043f 	cmn	x1, #0x1
    5280:	54000060 	b.eq	528c <__cxa_allocate_dependent_exception@@Base+0xe4>  // b.none
    5284:	940043fe 	bl	1627c <_Unwind_Resume@@Base>
    5288:	17fffffd 	b	527c <__cxa_allocate_dependent_exception@@Base+0xd4>
    528c:	940002c0 	bl	5d8c <__cxa_call_unexpected@@Base>

0000000000005290 <__cxa_free_dependent_exception@@Base>:
    5290:	a9be7bfd 	stp	x29, x30, [sp, #-32]!
    5294:	b0000141 	adrp	x1, 2e000 <_ZTVN10__cxxabiv117__class_type_infoE@@Base+0x500>
    5298:	910003fd 	mov	x29, sp
    529c:	91010021 	add	x1, x1, #0x40
    52a0:	eb01001f 	cmp	x0, x1
    52a4:	a90153f3 	stp	x19, x20, [sp, #16]
    52a8:	540003e3 	b.cc	5324 <__cxa_free_dependent_exception@@Base+0x94>  // b.lo, b.ul, b.last
    52ac:	91400422 	add	x2, x1, #0x1, lsl #12
    52b0:	91300042 	add	x2, x2, #0xc00
    52b4:	eb02001f 	cmp	x0, x2
    52b8:	54000362 	b.cs	5324 <__cxa_free_dependent_exception@@Base+0x94>  // b.hs, b.nlast
    52bc:	4b010000 	sub	w0, w0, w1
    52c0:	90000141 	adrp	x1, 2d000 <__FINI_ARRAY__@@Base+0x360>
    52c4:	d2849293 	mov	x19, #0x2494                	// #9364
    52c8:	d344fc00 	lsr	x0, x0, #4
    52cc:	f2b24933 	movk	x19, #0x9249, lsl #16
    52d0:	f2c92493 	movk	x19, #0x4924, lsl #32
    52d4:	f947d421 	ldr	x1, [x1, #4008]
    52d8:	f2e49253 	movk	x19, #0x2492, lsl #48
    52dc:	9bd37c13 	umulh	x19, x0, x19
    52e0:	b4000281 	cbz	x1, 5330 <__cxa_free_dependent_exception@@Base+0xa0>
    52e4:	d0000154 	adrp	x20, 2f000 <__bss_start@@Base+0xfd0>
    52e8:	91310280 	add	x0, x20, #0xc40
    52ec:	97fffe21 	bl	4b70 <pthread_mutex_lock@plt>
    52f0:	350003a0 	cbnz	w0, 5364 <__cxa_free_dependent_exception@@Base+0xd4>
    52f4:	b0000142 	adrp	x2, 2e000 <_ZTVN10__cxxabiv117__class_type_infoE@@Base+0x500>
    52f8:	d2800021 	mov	x1, #0x1                   	// #1
    52fc:	9ad32033 	lsl	x19, x1, x19
    5300:	91310280 	add	x0, x20, #0xc40
    5304:	f9401841 	ldr	x1, [x2, #48]
    5308:	8a330033 	bic	x19, x1, x19
    530c:	f9001853 	str	x19, [x2, #48]
    5310:	97fffdf4 	bl	4ae0 <pthread_mutex_unlock@plt>
    5314:	35000200 	cbnz	w0, 5354 <__cxa_free_dependent_exception@@Base+0xc4>
    5318:	a94153f3 	ldp	x19, x20, [sp, #16]
    531c:	a8c27bfd 	ldp	x29, x30, [sp], #32
    5320:	d65f03c0 	ret
    5324:	a94153f3 	ldp	x19, x20, [sp, #16]
    5328:	a8c27bfd 	ldp	x29, x30, [sp], #32
    532c:	17fffdb1 	b	49f0 <free@plt>
    5330:	b0000140 	adrp	x0, 2e000 <_ZTVN10__cxxabiv117__class_type_infoE@@Base+0x500>
    5334:	d2800021 	mov	x1, #0x1                   	// #1
    5338:	9ad32033 	lsl	x19, x1, x19
    533c:	f9401801 	ldr	x1, [x0, #48]
    5340:	8a330033 	bic	x19, x1, x19
    5344:	f9001813 	str	x19, [x0, #48]
    5348:	a94153f3 	ldp	x19, x20, [sp, #16]
    534c:	a8c27bfd 	ldp	x29, x30, [sp], #32
    5350:	d65f03c0 	ret
    5354:	97ffff18 	bl	4fb4 <_ZdlPv@@Base+0xcc>
    5358:	b100043f 	cmn	x1, #0x1
    535c:	54000080 	b.eq	536c <__cxa_free_dependent_exception@@Base+0xdc>  // b.none
    5360:	940043c7 	bl	1627c <_Unwind_Resume@@Base>
    5364:	97ffff08 	bl	4f84 <_ZdlPv@@Base+0x9c>
    5368:	17fffffc 	b	5358 <__cxa_free_dependent_exception@@Base+0xc8>
    536c:	94000288 	bl	5d8c <__cxa_call_unexpected@@Base>

0000000000005370 <_ZNSt9exceptionD1Ev@@Base>:
    5370:	d65f03c0 	ret

0000000000005374 <_ZNSt13bad_exceptionD1Ev@@Base>:
    5374:	90000141 	adrp	x1, 2d000 <__FINI_ARRAY__@@Base+0x360>
    5378:	f947c421 	ldr	x1, [x1, #3976]
    537c:	91004021 	add	x1, x1, #0x10
    5380:	f9000001 	str	x1, [x0]
    5384:	17fffffb 	b	5370 <_ZNSt9exceptionD1Ev@@Base>

0000000000005388 <_ZNKSt9exception4whatEv@@Base>:
    5388:	d0000080 	adrp	x0, 17000 <_Unwind_Backtrace@@Base+0xb6c>
    538c:	913cc000 	add	x0, x0, #0xf30
    5390:	d65f03c0 	ret

0000000000005394 <_ZNKSt13bad_exception4whatEv@@Base>:
    5394:	d0000080 	adrp	x0, 17000 <_Unwind_Backtrace@@Base+0xb6c>
    5398:	913d0000 	add	x0, x0, #0xf40
    539c:	d65f03c0 	ret

00000000000053a0 <_ZNSt9exceptionD0Ev@@Base>:
    53a0:	a9be7bfd 	stp	x29, x30, [sp, #-32]!
    53a4:	910003fd 	mov	x29, sp
    53a8:	f9000bf3 	str	x19, [sp, #16]
    53ac:	aa0003f3 	mov	x19, x0
    53b0:	97fffff0 	bl	5370 <_ZNSt9exceptionD1Ev@@Base>
    53b4:	aa1303e0 	mov	x0, x19
    53b8:	f9400bf3 	ldr	x19, [sp, #16]
    53bc:	a8c27bfd 	ldp	x29, x30, [sp], #32
    53c0:	17fffeca 	b	4ee8 <_ZdlPv@@Base>

00000000000053c4 <_ZNSt13bad_exceptionD0Ev@@Base>:
    53c4:	a9be7bfd 	stp	x29, x30, [sp, #-32]!
    53c8:	910003fd 	mov	x29, sp
    53cc:	f9000bf3 	str	x19, [sp, #16]
    53d0:	aa0003f3 	mov	x19, x0
    53d4:	97ffffe8 	bl	5374 <_ZNSt13bad_exceptionD1Ev@@Base>
    53d8:	aa1303e0 	mov	x0, x19
    53dc:	f9400bf3 	ldr	x19, [sp, #16]
    53e0:	a8c27bfd 	ldp	x29, x30, [sp], #32
    53e4:	17fffec1 	b	4ee8 <_ZdlPv@@Base>

00000000000053e8 <_ZN10__cxxabiv115__forced_unwindD1Ev@@Base>:
    53e8:	d65f03c0 	ret

00000000000053ec <_ZN10__cxxabiv115__forced_unwindD0Ev@@Base>:
    53ec:	a9be7bfd 	stp	x29, x30, [sp, #-32]!
    53f0:	910003fd 	mov	x29, sp
    53f4:	f9000bf3 	str	x19, [sp, #16]
    53f8:	aa0003f3 	mov	x19, x0
    53fc:	97fffffb 	bl	53e8 <_ZN10__cxxabiv115__forced_unwindD1Ev@@Base>
    5400:	aa1303e0 	mov	x0, x19
    5404:	f9400bf3 	ldr	x19, [sp, #16]
    5408:	a8c27bfd 	ldp	x29, x30, [sp], #32
    540c:	17fffeb7 	b	4ee8 <_ZdlPv@@Base>

0000000000005410 <_ZN10__cxxabiv119__foreign_exceptionD1Ev@@Base>:
    5410:	d65f03c0 	ret

0000000000005414 <_ZN10__cxxabiv119__foreign_exceptionD0Ev@@Base>:
    5414:	a9be7bfd 	stp	x29, x30, [sp, #-32]!
    5418:	910003fd 	mov	x29, sp
    541c:	f9000bf3 	str	x19, [sp, #16]
    5420:	aa0003f3 	mov	x19, x0
    5424:	97fffffb 	bl	5410 <_ZN10__cxxabiv119__foreign_exceptionD1Ev@@Base>
    5428:	aa1303e0 	mov	x0, x19
    542c:	f9400bf3 	ldr	x19, [sp, #16]
    5430:	a8c27bfd 	ldp	x29, x30, [sp], #32
    5434:	17fffead 	b	4ee8 <_ZdlPv@@Base>
    5438:	d2800005 	mov	x5, #0x0                   	// #0
    543c:	52800003 	mov	w3, #0x0                   	// #0
    5440:	38401404 	ldrb	w4, [x0], #1
    5444:	92401882 	and	x2, x4, #0x7f
    5448:	9ac32042 	lsl	x2, x2, x3
    544c:	11001c63 	add	w3, w3, #0x7
    5450:	aa0200a5 	orr	x5, x5, x2
    5454:	373fff64 	tbnz	w4, #7, 5440 <_ZN10__cxxabiv119__foreign_exceptionD0Ev@@Base+0x2c>
    5458:	7100fc7f 	cmp	w3, #0x3f
    545c:	540000a8 	b.hi	5470 <_ZN10__cxxabiv119__foreign_exceptionD0Ev@@Base+0x5c>  // b.pmore
    5460:	36300084 	tbz	w4, #6, 5470 <_ZN10__cxxabiv119__foreign_exceptionD0Ev@@Base+0x5c>
    5464:	92800002 	mov	x2, #0xffffffffffffffff    	// #-1
    5468:	9ac32043 	lsl	x3, x2, x3
    546c:	aa050065 	orr	x5, x3, x5
    5470:	f9000025 	str	x5, [x1]
    5474:	d65f03c0 	ret
    5478:	a9bc7bfd 	stp	x29, x30, [sp, #-64]!
    547c:	910003fd 	mov	x29, sp
    5480:	a90153f3 	stp	x19, x20, [sp, #16]
    5484:	53001c13 	uxtb	w19, w0
    5488:	aa0103f4 	mov	x20, x1
    548c:	7101427f 	cmp	w19, #0x50
    5490:	540006e0 	b.eq	556c <_ZN10__cxxabiv119__foreign_exceptionD0Ev@@Base+0x158>  // b.none
    5494:	12000e60 	and	w0, w19, #0xf
    5498:	7100301f 	cmp	w0, #0xc
    549c:	54000049 	b.ls	54a4 <_ZN10__cxxabiv119__foreign_exceptionD0Ev@@Base+0x90>  // b.plast
    54a0:	97fffda4 	bl	4b30 <abort@plt>
    54a4:	d0000081 	adrp	x1, 17000 <_Unwind_Backtrace@@Base+0xb6c>
    54a8:	913d5021 	add	x1, x1, #0xf54
    54ac:	38604820 	ldrb	w0, [x1, w0, uxtw]
    54b0:	10000061 	adr	x1, 54bc <_ZN10__cxxabiv119__foreign_exceptionD0Ev@@Base+0xa8>
    54b4:	8b208820 	add	x0, x1, w0, sxtb #2
    54b8:	d61f0000 	br	x0
    54bc:	aa0203e0 	mov	x0, x2
    54c0:	f8408401 	ldr	x1, [x0], #8
    54c4:	b40000e1 	cbz	x1, 54e0 <_ZN10__cxxabiv119__foreign_exceptionD0Ev@@Base+0xcc>
    54c8:	121c0a64 	and	w4, w19, #0x70
    54cc:	7100409f 	cmp	w4, #0x10
    54d0:	9a940042 	csel	x2, x2, x20, eq	// eq = none
    54d4:	8b020021 	add	x1, x1, x2
    54d8:	36380053 	tbz	w19, #7, 54e0 <_ZN10__cxxabiv119__foreign_exceptionD0Ev@@Base+0xcc>
    54dc:	f9400021 	ldr	x1, [x1]
    54e0:	f9000061 	str	x1, [x3]
    54e4:	a94153f3 	ldp	x19, x20, [sp, #16]
    54e8:	a8c47bfd 	ldp	x29, x30, [sp], #64
    54ec:	d65f03c0 	ret
    54f0:	aa0203e0 	mov	x0, x2
    54f4:	78802401 	ldrsh	x1, [x0], #2
    54f8:	17fffff3 	b	54c4 <_ZN10__cxxabiv119__foreign_exceptionD0Ev@@Base+0xb0>
    54fc:	aa0203e0 	mov	x0, x2
    5500:	9100e3a1 	add	x1, x29, #0x38
    5504:	f90013a3 	str	x3, [x29, #32]
    5508:	f90017a2 	str	x2, [x29, #40]
    550c:	97ffffcb 	bl	5438 <_ZN10__cxxabiv119__foreign_exceptionD0Ev@@Base+0x24>
    5510:	f9401fa1 	ldr	x1, [x29, #56]
    5514:	f94017a2 	ldr	x2, [x29, #40]
    5518:	f94013a3 	ldr	x3, [x29, #32]
    551c:	17ffffea 	b	54c4 <_ZN10__cxxabiv119__foreign_exceptionD0Ev@@Base+0xb0>
    5520:	aa0203e0 	mov	x0, x2
    5524:	b8804401 	ldrsw	x1, [x0], #4
    5528:	17ffffe7 	b	54c4 <_ZN10__cxxabiv119__foreign_exceptionD0Ev@@Base+0xb0>
    552c:	aa0203e0 	mov	x0, x2
    5530:	b8404401 	ldr	w1, [x0], #4
    5534:	17ffffe4 	b	54c4 <_ZN10__cxxabiv119__foreign_exceptionD0Ev@@Base+0xb0>
    5538:	aa0203e0 	mov	x0, x2
    553c:	78402401 	ldrh	w1, [x0], #2
    5540:	17ffffe1 	b	54c4 <_ZN10__cxxabiv119__foreign_exceptionD0Ev@@Base+0xb0>
    5544:	aa0203e0 	mov	x0, x2
    5548:	d2800001 	mov	x1, #0x0                   	// #0
    554c:	52800005 	mov	w5, #0x0                   	// #0
    5550:	38401406 	ldrb	w6, [x0], #1
    5554:	924018c4 	and	x4, x6, #0x7f
    5558:	9ac52084 	lsl	x4, x4, x5
    555c:	11001ca5 	add	w5, w5, #0x7
    5560:	aa040021 	orr	x1, x1, x4
    5564:	373fff66 	tbnz	w6, #7, 5550 <_ZN10__cxxabiv119__foreign_exceptionD0Ev@@Base+0x13c>
    5568:	17ffffd7 	b	54c4 <_ZN10__cxxabiv119__foreign_exceptionD0Ev@@Base+0xb0>
    556c:	91001c42 	add	x2, x2, #0x7
    5570:	927df040 	and	x0, x2, #0xfffffffffffffff8
    5574:	a94153f3 	ldp	x19, x20, [sp, #16]
    5578:	f8408401 	ldr	x1, [x0], #8
    557c:	f9000061 	str	x1, [x3]
    5580:	a8c47bfd 	ldp	x29, x30, [sp], #64
    5584:	d65f03c0 	ret
    5588:	a9bf7bfd 	stp	x29, x30, [sp, #-16]!
    558c:	53001c00 	uxtb	w0, w0
    5590:	7103fc1f 	cmp	w0, #0xff
    5594:	910003fd 	mov	x29, sp
    5598:	54000220 	b.eq	55dc <_ZN10__cxxabiv119__foreign_exceptionD0Ev@@Base+0x1c8>  // b.none
    559c:	121c0802 	and	w2, w0, #0x70
    55a0:	7100805f 	cmp	w2, #0x20
    55a4:	540002a0 	b.eq	55f8 <_ZN10__cxxabiv119__foreign_exceptionD0Ev@@Base+0x1e4>  // b.none
    55a8:	54000149 	b.ls	55d0 <_ZN10__cxxabiv119__foreign_exceptionD0Ev@@Base+0x1bc>  // b.plast
    55ac:	7101005f 	cmp	w2, #0x40
    55b0:	540001e0 	b.eq	55ec <_ZN10__cxxabiv119__foreign_exceptionD0Ev@@Base+0x1d8>  // b.none
    55b4:	7101405f 	cmp	w2, #0x50
    55b8:	54000120 	b.eq	55dc <_ZN10__cxxabiv119__foreign_exceptionD0Ev@@Base+0x1c8>  // b.none
    55bc:	7100c05f 	cmp	w2, #0x30
    55c0:	54000141 	b.ne	55e8 <_ZN10__cxxabiv119__foreign_exceptionD0Ev@@Base+0x1d4>  // b.any
    55c4:	a8c17bfd 	ldp	x29, x30, [sp], #16
    55c8:	aa0103e0 	mov	x0, x1
    55cc:	14003d45 	b	14ae0 <_Unwind_GetDataRelBase@@Base>
    55d0:	34000062 	cbz	w2, 55dc <_ZN10__cxxabiv119__foreign_exceptionD0Ev@@Base+0x1c8>
    55d4:	7100405f 	cmp	w2, #0x10
    55d8:	54000081 	b.ne	55e8 <_ZN10__cxxabiv119__foreign_exceptionD0Ev@@Base+0x1d4>  // b.any
    55dc:	d2800000 	mov	x0, #0x0                   	// #0
    55e0:	a8c17bfd 	ldp	x29, x30, [sp], #16
    55e4:	d65f03c0 	ret
    55e8:	97fffd52 	bl	4b30 <abort@plt>
    55ec:	a8c17bfd 	ldp	x29, x30, [sp], #16
    55f0:	aa0103e0 	mov	x0, x1
    55f4:	14003d2f 	b	14ab0 <_Unwind_GetRegionStart@@Base>
    55f8:	a8c17bfd 	ldp	x29, x30, [sp], #16
    55fc:	aa0103e0 	mov	x0, x1
    5600:	14003d3a 	b	14ae8 <_Unwind_GetTextRelBase@@Base>
    5604:	a9bc7bfd 	stp	x29, x30, [sp, #-64]!
    5608:	910003fd 	mov	x29, sp
    560c:	a90153f3 	stp	x19, x20, [sp, #16]
    5610:	f90013f5 	str	x21, [sp, #32]
    5614:	aa0203f3 	mov	x19, x2
    5618:	aa0003f5 	mov	x21, x0
    561c:	b4000760 	cbz	x0, 5708 <_ZN10__cxxabiv119__foreign_exceptionD0Ev@@Base+0x2f4>
    5620:	f9001fa1 	str	x1, [x29, #56]
    5624:	94003d23 	bl	14ab0 <_Unwind_GetRegionStart@@Base>
    5628:	f9401fa1 	ldr	x1, [x29, #56]
    562c:	f9000260 	str	x0, [x19]
    5630:	91000422 	add	x2, x1, #0x1
    5634:	39400034 	ldrb	w20, [x1]
    5638:	7103fe9f 	cmp	w20, #0xff
    563c:	54000560 	b.eq	56e8 <_ZN10__cxxabiv119__foreign_exceptionD0Ev@@Base+0x2d4>  // b.none
    5640:	aa1503e1 	mov	x1, x21
    5644:	2a1403e0 	mov	w0, w20
    5648:	f9001fa2 	str	x2, [x29, #56]
    564c:	97ffffcf 	bl	5588 <_ZN10__cxxabiv119__foreign_exceptionD0Ev@@Base+0x174>
    5650:	aa0003e1 	mov	x1, x0
    5654:	f9401fa2 	ldr	x2, [x29, #56]
    5658:	2a1403e0 	mov	w0, w20
    565c:	91002263 	add	x3, x19, #0x8
    5660:	97ffff86 	bl	5478 <_ZN10__cxxabiv119__foreign_exceptionD0Ev@@Base+0x64>
    5664:	aa0003e2 	mov	x2, x0
    5668:	91000440 	add	x0, x2, #0x1
    566c:	39400041 	ldrb	w1, [x2]
    5670:	3900a261 	strb	w1, [x19, #40]
    5674:	7103fc3f 	cmp	w1, #0xff
    5678:	54000440 	b.eq	5700 <_ZN10__cxxabiv119__foreign_exceptionD0Ev@@Base+0x2ec>  // b.none
    567c:	d2800004 	mov	x4, #0x0                   	// #0
    5680:	52800002 	mov	w2, #0x0                   	// #0
    5684:	38401403 	ldrb	w3, [x0], #1
    5688:	92401861 	and	x1, x3, #0x7f
    568c:	9ac22021 	lsl	x1, x1, x2
    5690:	11001c42 	add	w2, w2, #0x7
    5694:	aa010084 	orr	x4, x4, x1
    5698:	373fff63 	tbnz	w3, #7, 5684 <_ZN10__cxxabiv119__foreign_exceptionD0Ev@@Base+0x270>
    569c:	8b040004 	add	x4, x0, x4
    56a0:	f9000e64 	str	x4, [x19, #24]
    56a4:	39400001 	ldrb	w1, [x0]
    56a8:	d2800004 	mov	x4, #0x0                   	// #0
    56ac:	91000400 	add	x0, x0, #0x1
    56b0:	3900a661 	strb	w1, [x19, #41]
    56b4:	52800002 	mov	w2, #0x0                   	// #0
    56b8:	38401403 	ldrb	w3, [x0], #1
    56bc:	92401861 	and	x1, x3, #0x7f
    56c0:	9ac22021 	lsl	x1, x1, x2
    56c4:	11001c42 	add	w2, w2, #0x7
    56c8:	aa010084 	orr	x4, x4, x1
    56cc:	373fff63 	tbnz	w3, #7, 56b8 <_ZN10__cxxabiv119__foreign_exceptionD0Ev@@Base+0x2a4>
    56d0:	8b040004 	add	x4, x0, x4
    56d4:	f9001264 	str	x4, [x19, #32]
    56d8:	f94013f5 	ldr	x21, [sp, #32]
    56dc:	a94153f3 	ldp	x19, x20, [sp, #16]
    56e0:	a8c47bfd 	ldp	x29, x30, [sp], #64
    56e4:	d65f03c0 	ret
    56e8:	f9000660 	str	x0, [x19, #8]
    56ec:	91000440 	add	x0, x2, #0x1
    56f0:	39400041 	ldrb	w1, [x2]
    56f4:	3900a261 	strb	w1, [x19, #40]
    56f8:	7103fc3f 	cmp	w1, #0xff
    56fc:	54fffc01 	b.ne	567c <_ZN10__cxxabiv119__foreign_exceptionD0Ev@@Base+0x268>  // b.any
    5700:	f9000e7f 	str	xzr, [x19, #24]
    5704:	17ffffe8 	b	56a4 <_ZN10__cxxabiv119__foreign_exceptionD0Ev@@Base+0x290>
    5708:	d2800000 	mov	x0, #0x0                   	// #0
    570c:	17ffffc8 	b	562c <_ZN10__cxxabiv119__foreign_exceptionD0Ev@@Base+0x218>
    5710:	a9ba7bfd 	stp	x29, x30, [sp, #-96]!
    5714:	aa2303e3 	mvn	x3, x3
    5718:	910003fd 	mov	x29, sp
    571c:	a90363f7 	stp	x23, x24, [sp, #48]
    5720:	f9400c17 	ldr	x23, [x0, #24]
    5724:	aa0003f8 	mov	x24, x0
    5728:	a9025bf5 	stp	x21, x22, [sp, #32]
    572c:	d0000095 	adrp	x21, 17000 <_Unwind_Backtrace@@Base+0xb6c>
    5730:	f90023f9 	str	x25, [sp, #64]
    5734:	a90153f3 	stp	x19, x20, [sp, #16]
    5738:	aa0203f6 	mov	x22, x2
    573c:	aa0103f3 	mov	x19, x1
    5740:	913d92b5 	add	x21, x21, #0xf64
    5744:	910163b4 	add	x20, x29, #0x58
    5748:	8b0302f7 	add	x23, x23, x3
    574c:	d2800002 	mov	x2, #0x0                   	// #0
    5750:	52800001 	mov	w1, #0x0                   	// #0
    5754:	384016e3 	ldrb	w3, [x23], #1
    5758:	92401860 	and	x0, x3, #0x7f
    575c:	9ac12000 	lsl	x0, x0, x1
    5760:	11001c21 	add	w1, w1, #0x7
    5764:	aa000042 	orr	x2, x2, x0
    5768:	373fff63 	tbnz	w3, #7, 5754 <_ZN10__cxxabiv119__foreign_exceptionD0Ev@@Base+0x340>
    576c:	b4000642 	cbz	x2, 5834 <_ZN10__cxxabiv119__foreign_exceptionD0Ev@@Base+0x420>
    5770:	3940a300 	ldrb	w0, [x24, #40]
    5774:	7103fc1f 	cmp	w0, #0xff
    5778:	540005a0 	b.eq	582c <_ZN10__cxxabiv119__foreign_exceptionD0Ev@@Base+0x418>  // b.none
    577c:	12000801 	and	w1, w0, #0x7
    5780:	7100103f 	cmp	w1, #0x4
    5784:	54000049 	b.ls	578c <_ZN10__cxxabiv119__foreign_exceptionD0Ev@@Base+0x378>  // b.plast
    5788:	97fffcea 	bl	4b30 <abort@plt>
    578c:	38614aa1 	ldrb	w1, [x21, w1, uxtw]
    5790:	10000063 	adr	x3, 579c <_ZN10__cxxabiv119__foreign_exceptionD0Ev@@Base+0x388>
    5794:	8b218861 	add	x1, x3, w1, sxtb #2
    5798:	d61f0020 	br	x1
    579c:	cb020be2 	neg	x2, x2, lsl #2
    57a0:	f9400f04 	ldr	x4, [x24, #24]
    57a4:	aa1403e3 	mov	x3, x20
    57a8:	f9400b01 	ldr	x1, [x24, #16]
    57ac:	8b020082 	add	x2, x4, x2
    57b0:	97ffff32 	bl	5478 <_ZN10__cxxabiv119__foreign_exceptionD0Ev@@Base+0x64>
    57b4:	f9402fb9 	ldr	x25, [x29, #88]
    57b8:	f9400261 	ldr	x1, [x19]
    57bc:	aa1303e0 	mov	x0, x19
    57c0:	f9002fb6 	str	x22, [x29, #88]
    57c4:	f9400821 	ldr	x1, [x1, #16]
    57c8:	d63f0020 	blr	x1
    57cc:	53001c00 	uxtb	w0, w0
    57d0:	34000080 	cbz	w0, 57e0 <_ZN10__cxxabiv119__foreign_exceptionD0Ev@@Base+0x3cc>
    57d4:	f9402fa0 	ldr	x0, [x29, #88]
    57d8:	f9400000 	ldr	x0, [x0]
    57dc:	f9002fa0 	str	x0, [x29, #88]
    57e0:	f9400324 	ldr	x4, [x25]
    57e4:	aa1903e0 	mov	x0, x25
    57e8:	aa1303e1 	mov	x1, x19
    57ec:	aa1403e2 	mov	x2, x20
    57f0:	52800023 	mov	w3, #0x1                   	// #1
    57f4:	f9401084 	ldr	x4, [x4, #32]
    57f8:	d63f0080 	blr	x4
    57fc:	53001c00 	uxtb	w0, w0
    5800:	34fffa60 	cbz	w0, 574c <_ZN10__cxxabiv119__foreign_exceptionD0Ev@@Base+0x338>
    5804:	a94153f3 	ldp	x19, x20, [sp, #16]
    5808:	a9425bf5 	ldp	x21, x22, [sp, #32]
    580c:	a94363f7 	ldp	x23, x24, [sp, #48]
    5810:	f94023f9 	ldr	x25, [sp, #64]
    5814:	a8c67bfd 	ldp	x29, x30, [sp], #96
    5818:	d65f03c0 	ret
    581c:	cb0207e2 	neg	x2, x2, lsl #1
    5820:	17ffffe0 	b	57a0 <_ZN10__cxxabiv119__foreign_exceptionD0Ev@@Base+0x38c>
    5824:	cb020fe2 	neg	x2, x2, lsl #3
    5828:	17ffffde 	b	57a0 <_ZN10__cxxabiv119__foreign_exceptionD0Ev@@Base+0x38c>
    582c:	d2800002 	mov	x2, #0x0                   	// #0
    5830:	17ffffdc 	b	57a0 <_ZN10__cxxabiv119__foreign_exceptionD0Ev@@Base+0x38c>
    5834:	a94153f3 	ldp	x19, x20, [sp, #16]
    5838:	a9425bf5 	ldp	x21, x22, [sp, #32]
    583c:	a94363f7 	ldp	x23, x24, [sp, #48]
    5840:	f94023f9 	ldr	x25, [sp, #64]
    5844:	52800000 	mov	w0, #0x0                   	// #0
    5848:	a8c67bfd 	ldp	x29, x30, [sp], #96
    584c:	d65f03c0 	ret

0000000000005850 <__gxx_personality_v0@@Base>:
    5850:	a9b17bfd 	stp	x29, x30, [sp, #-240]!
    5854:	7100041f 	cmp	w0, #0x1
    5858:	52800060 	mov	w0, #0x3                   	// #3
    585c:	910003fd 	mov	x29, sp
    5860:	a9025bf5 	stp	x21, x22, [sp, #32]
    5864:	a90153f3 	stp	x19, x20, [sp, #16]
    5868:	a90363f7 	stp	x23, x24, [sp, #48]
    586c:	a9046bf9 	stp	x25, x26, [sp, #64]
    5870:	a90573fb 	stp	x27, x28, [sp, #80]
    5874:	b900a7bf 	str	wzr, [x29, #164]
    5878:	2a0103f6 	mov	w22, w1
    587c:	aa0303f5 	mov	x21, x3
    5880:	aa0403f4 	mov	x20, x4
    5884:	54000100 	b.eq	58a4 <__gxx_personality_v0@@Base+0x54>  // b.none
    5888:	a94153f3 	ldp	x19, x20, [sp, #16]
    588c:	a9425bf5 	ldp	x21, x22, [sp, #32]
    5890:	a94363f7 	ldp	x23, x24, [sp, #48]
    5894:	a9446bf9 	ldp	x25, x26, [sp, #64]
    5898:	a94573fb 	ldp	x27, x28, [sp, #80]
    589c:	a8cf7bfd 	ldp	x29, x30, [sp], #240
    58a0:	d65f03c0 	ret
    58a4:	d29aa000 	mov	x0, #0xd500                	// #54528
    58a8:	f2b79a80 	movk	x0, #0xbcd4, lsl #16
    58ac:	f2d55780 	movk	x0, #0xaabc, lsl #32
    58b0:	f2f71620 	movk	x0, #0xb8b1, lsl #48
    58b4:	8b000040 	add	x0, x2, x0
    58b8:	f100041f 	cmp	x0, #0x1
    58bc:	1a9f97fb 	cset	w27, hi	// hi = pmore
    58c0:	7100183f 	cmp	w1, #0x6
    58c4:	1a9f17e0 	cset	w0, eq	// eq = none
    58c8:	6b1b001f 	cmp	w0, w27
    58cc:	54000609 	b.ls	598c <__gxx_personality_v0@@Base+0x13c>  // b.plast
    58d0:	f85e8060 	ldur	x0, [x3, #-24]
    58d4:	f85f007a 	ldur	x26, [x3, #-16]
    58d8:	f9004ba0 	str	x0, [x29, #144]
    58dc:	b85dc073 	ldur	w19, [x3, #-36]
    58e0:	b500009a 	cbnz	x26, 58f0 <__gxx_personality_v0@@Base+0xa0>
    58e4:	371811b6 	tbnz	w22, #3, 5b18 <__gxx_personality_v0@@Base+0x2c8>
    58e8:	aa1503e0 	mov	x0, x21
    58ec:	94000376 	bl	66c4 <_ZNK10__cxxabiv117__class_type_info12__do_dyncastElNS0_10__sub_kindEPKS0_PKvS3_S5_RNS0_16__dyncast_resultE@@Base+0xf8>
    58f0:	36180336 	tbz	w22, #3, 5954 <__gxx_personality_v0@@Base+0x104>
    58f4:	37f824b3 	tbnz	w19, #31, 5d88 <__gxx_personality_v0@@Base+0x538>
    58f8:	aa1503e2 	mov	x2, x21
    58fc:	aa1403e0 	mov	x0, x20
    5900:	52800001 	mov	w1, #0x0                   	// #0
    5904:	94003c4a 	bl	14a2c <_Unwind_SetGR@@Base>
    5908:	93407e62 	sxtw	x2, w19
    590c:	aa1403e0 	mov	x0, x20
    5910:	52800021 	mov	w1, #0x1                   	// #1
    5914:	94003c46 	bl	14a2c <_Unwind_SetGR@@Base>
    5918:	aa1403e0 	mov	x0, x20
    591c:	aa1a03e1 	mov	x1, x26
    5920:	94003c60 	bl	14aa0 <_Unwind_SetIP@@Base>
    5924:	528000e0 	mov	w0, #0x7                   	// #7
    5928:	a94153f3 	ldp	x19, x20, [sp, #16]
    592c:	a9425bf5 	ldp	x21, x22, [sp, #32]
    5930:	a94363f7 	ldp	x23, x24, [sp, #48]
    5934:	a9446bf9 	ldp	x25, x26, [sp, #64]
    5938:	a94573fb 	ldp	x27, x28, [sp, #80]
    593c:	a8cf7bfd 	ldp	x29, x30, [sp], #240
    5940:	d65f03c0 	ret
    5944:	7100041f 	cmp	w0, #0x1
    5948:	37180eb6 	tbnz	w22, #3, 5b1c <__gxx_personality_v0@@Base+0x2cc>
    594c:	35000e9b 	cbnz	w27, 5b1c <__gxx_personality_v0@@Base+0x2cc>
    5950:	54fffcc0 	b.eq	58e8 <__gxx_personality_v0@@Base+0x98>  // b.none
    5954:	36fffd33 	tbz	w19, #31, 58f8 <__gxx_personality_v0@@Base+0xa8>
    5958:	f9404ba1 	ldr	x1, [x29, #144]
    595c:	910303a2 	add	x2, x29, #0xc0
    5960:	aa1403e0 	mov	x0, x20
    5964:	97ffff28 	bl	5604 <_ZN10__cxxabiv119__foreign_exceptionD0Ev@@Base+0x1f0>
    5968:	3943a3a0 	ldrb	w0, [x29, #232]
    596c:	aa1403e1 	mov	x1, x20
    5970:	97ffff06 	bl	5588 <_ZN10__cxxabiv119__foreign_exceptionD0Ev@@Base+0x174>
    5974:	f9006ba0 	str	x0, [x29, #208]
    5978:	3943a3a0 	ldrb	w0, [x29, #232]
    597c:	aa1403e1 	mov	x1, x20
    5980:	97ffff02 	bl	5588 <_ZN10__cxxabiv119__foreign_exceptionD0Ev@@Base+0x174>
    5984:	f81f02a0 	stur	x0, [x21, #-16]
    5988:	17ffffdc 	b	58f8 <__gxx_personality_v0@@Base+0xa8>
    598c:	aa0403e0 	mov	x0, x4
    5990:	94003c46 	bl	14aa8 <_Unwind_GetLanguageSpecificData@@Base>
    5994:	f9004ba0 	str	x0, [x29, #144]
    5998:	b4000d20 	cbz	x0, 5b3c <__gxx_personality_v0@@Base+0x2ec>
    599c:	f9404ba1 	ldr	x1, [x29, #144]
    59a0:	910303b3 	add	x19, x29, #0xc0
    59a4:	aa1303e2 	mov	x2, x19
    59a8:	aa1403e0 	mov	x0, x20
    59ac:	97ffff16 	bl	5604 <_ZN10__cxxabiv119__foreign_exceptionD0Ev@@Base+0x1f0>
    59b0:	f9004fa0 	str	x0, [x29, #152]
    59b4:	3943a3a0 	ldrb	w0, [x29, #232]
    59b8:	aa1403e1 	mov	x1, x20
    59bc:	97fffef3 	bl	5588 <_ZN10__cxxabiv119__foreign_exceptionD0Ev@@Base+0x174>
    59c0:	f9006ba0 	str	x0, [x29, #208]
    59c4:	910293a1 	add	x1, x29, #0xa4
    59c8:	aa1403e0 	mov	x0, x20
    59cc:	94003c30 	bl	14a8c <_Unwind_GetIPInfo@@Base>
    59d0:	b940a7a1 	ldr	w1, [x29, #164]
    59d4:	f9404fa2 	ldr	x2, [x29, #152]
    59d8:	6b1f003f 	cmp	w1, wzr
    59dc:	f94073a1 	ldr	x1, [x29, #224]
    59e0:	9a9f17fa 	cset	x26, eq	// eq = none
    59e4:	eb01005f 	cmp	x2, x1
    59e8:	cb1a001a 	sub	x26, x0, x26
    59ec:	54000602 	b.cs	5aac <__gxx_personality_v0@@Base+0x25c>  // b.hs, b.nlast
    59f0:	9102a3b7 	add	x23, x29, #0xa8
    59f4:	9102c3b8 	add	x24, x29, #0xb0
    59f8:	9102e3b9 	add	x25, x29, #0xb8
    59fc:	3940a67c 	ldrb	w28, [x19, #41]
    5a00:	d2800001 	mov	x1, #0x0                   	// #0
    5a04:	f9004fa2 	str	x2, [x29, #152]
    5a08:	2a1c03e0 	mov	w0, w28
    5a0c:	97fffedf 	bl	5588 <_ZN10__cxxabiv119__foreign_exceptionD0Ev@@Base+0x174>
    5a10:	aa0003e1 	mov	x1, x0
    5a14:	f9404fa2 	ldr	x2, [x29, #152]
    5a18:	aa1703e3 	mov	x3, x23
    5a1c:	2a1c03e0 	mov	w0, w28
    5a20:	97fffe96 	bl	5478 <_ZN10__cxxabiv119__foreign_exceptionD0Ev@@Base+0x64>
    5a24:	3940a67c 	ldrb	w28, [x19, #41]
    5a28:	f9004fa0 	str	x0, [x29, #152]
    5a2c:	d2800001 	mov	x1, #0x0                   	// #0
    5a30:	2a1c03e0 	mov	w0, w28
    5a34:	97fffed5 	bl	5588 <_ZN10__cxxabiv119__foreign_exceptionD0Ev@@Base+0x174>
    5a38:	aa0003e1 	mov	x1, x0
    5a3c:	f9404fa2 	ldr	x2, [x29, #152]
    5a40:	aa1803e3 	mov	x3, x24
    5a44:	2a1c03e0 	mov	w0, w28
    5a48:	97fffe8c 	bl	5478 <_ZN10__cxxabiv119__foreign_exceptionD0Ev@@Base+0x64>
    5a4c:	3940a67c 	ldrb	w28, [x19, #41]
    5a50:	f9004fa0 	str	x0, [x29, #152]
    5a54:	d2800001 	mov	x1, #0x0                   	// #0
    5a58:	2a1c03e0 	mov	w0, w28
    5a5c:	97fffecb 	bl	5588 <_ZN10__cxxabiv119__foreign_exceptionD0Ev@@Base+0x174>
    5a60:	aa0003e1 	mov	x1, x0
    5a64:	f9404fa2 	ldr	x2, [x29, #152]
    5a68:	2a1c03e0 	mov	w0, w28
    5a6c:	aa1903e3 	mov	x3, x25
    5a70:	97fffe82 	bl	5478 <_ZN10__cxxabiv119__foreign_exceptionD0Ev@@Base+0x64>
    5a74:	aa0003e2 	mov	x2, x0
    5a78:	d2800004 	mov	x4, #0x0                   	// #0
    5a7c:	52800001 	mov	w1, #0x0                   	// #0
    5a80:	38401443 	ldrb	w3, [x2], #1
    5a84:	92401860 	and	x0, x3, #0x7f
    5a88:	9ac12000 	lsl	x0, x0, x1
    5a8c:	11001c21 	add	w1, w1, #0x7
    5a90:	aa000084 	orr	x4, x4, x0
    5a94:	373fff63 	tbnz	w3, #7, 5a80 <__gxx_personality_v0@@Base+0x230>
    5a98:	f9400260 	ldr	x0, [x19]
    5a9c:	f94057a1 	ldr	x1, [x29, #168]
    5aa0:	8b000020 	add	x0, x1, x0
    5aa4:	eb00035f 	cmp	x26, x0
    5aa8:	54000262 	b.cs	5af4 <__gxx_personality_v0@@Base+0x2a4>  // b.hs, b.nlast
    5aac:	d280001a 	mov	x26, #0x0                   	// #0
    5ab0:	52800020 	mov	w0, #0x1                   	// #1
    5ab4:	f90047bf 	str	xzr, [x29, #136]
    5ab8:	52800013 	mov	w19, #0x0                   	// #0
    5abc:	d280001c 	mov	x28, #0x0                   	// #0
    5ac0:	3607f436 	tbz	w22, #0, 5944 <__gxx_personality_v0@@Base+0xf4>
    5ac4:	7100081f 	cmp	w0, #0x2
    5ac8:	540003a0 	b.eq	5b3c <__gxx_personality_v0@@Base+0x2ec>  // b.none
    5acc:	528000c0 	mov	w0, #0x6                   	// #6
    5ad0:	35ffeddb 	cbnz	w27, 5888 <__gxx_personality_v0@@Base+0x38>
    5ad4:	f9404ba1 	ldr	x1, [x29, #144]
    5ad8:	f81e82a1 	stur	x1, [x21, #-24]
    5adc:	f94047a1 	ldr	x1, [x29, #136]
    5ae0:	b81dc2b3 	stur	w19, [x21, #-36]
    5ae4:	f81e02bc 	stur	x28, [x21, #-32]
    5ae8:	f81f82a1 	stur	x1, [x21, #-8]
    5aec:	f81f02ba 	stur	x26, [x21, #-16]
    5af0:	17ffff66 	b	5888 <__gxx_personality_v0@@Base+0x38>
    5af4:	f9405ba1 	ldr	x1, [x29, #176]
    5af8:	8b010000 	add	x0, x0, x1
    5afc:	eb00035f 	cmp	x26, x0
    5b00:	54000123 	b.cc	5b24 <__gxx_personality_v0@@Base+0x2d4>  // b.lo, b.ul, b.last
    5b04:	f9401260 	ldr	x0, [x19, #32]
    5b08:	eb00005f 	cmp	x2, x0
    5b0c:	54fff783 	b.cc	59fc <__gxx_personality_v0@@Base+0x1ac>  // b.lo, b.ul, b.last
    5b10:	17ffffe7 	b	5aac <__gxx_personality_v0@@Base+0x25c>
    5b14:	940002ff 	bl	6710 <__cxa_begin_catch@@Base>
    5b18:	940000f3 	bl	5ee4 <_ZSt9terminatev@@Base>
    5b1c:	54ffeec1 	b.ne	58f4 <__gxx_personality_v0@@Base+0xa4>  // b.any
    5b20:	940000f1 	bl	5ee4 <_ZSt9terminatev@@Base>
    5b24:	f9405fa0 	ldr	x0, [x29, #184]
    5b28:	b40000a0 	cbz	x0, 5b3c <__gxx_personality_v0@@Base+0x2ec>
    5b2c:	f940067a 	ldr	x26, [x19, #8]
    5b30:	8b1a001a 	add	x26, x0, x26
    5b34:	b50000c4 	cbnz	x4, 5b4c <__gxx_personality_v0@@Base+0x2fc>
    5b38:	b500007a 	cbnz	x26, 5b44 <__gxx_personality_v0@@Base+0x2f4>
    5b3c:	52800100 	mov	w0, #0x8                   	// #8
    5b40:	17ffff52 	b	5888 <__gxx_personality_v0@@Base+0x38>
    5b44:	52800040 	mov	w0, #0x2                   	// #2
    5b48:	17ffffdb 	b	5ab4 <__gxx_personality_v0@@Base+0x264>
    5b4c:	f9401260 	ldr	x0, [x19, #32]
    5b50:	b4ffff7a 	cbz	x26, 5b3c <__gxx_personality_v0@@Base+0x2ec>
    5b54:	d1000484 	sub	x4, x4, #0x1
    5b58:	ab040000 	adds	x0, x0, x4
    5b5c:	aa0003fc 	mov	x28, x0
    5b60:	54ffff20 	b.eq	5b44 <__gxx_personality_v0@@Base+0x2f4>  // b.none
    5b64:	121d02c0 	and	w0, w22, #0x8
    5b68:	b9007ba0 	str	w0, [x29, #120]
    5b6c:	37180e36 	tbnz	w22, #3, 5d30 <__gxx_personality_v0@@Base+0x4e0>
    5b70:	3500103b 	cbnz	w27, 5d74 <__gxx_personality_v0@@Base+0x524>
    5b74:	aa1503e1 	mov	x1, x21
    5b78:	f8420420 	ldr	x0, [x1], #32
    5b7c:	f90047a1 	str	x1, [x29, #136]
    5b80:	36000060 	tbz	w0, #0, 5b8c <__gxx_personality_v0@@Base+0x33c>
    5b84:	f85b02a0 	ldur	x0, [x21, #-80]
    5b88:	f90047a0 	str	x0, [x29, #136]
    5b8c:	f94047a0 	ldr	x0, [x29, #136]
    5b90:	f8590000 	ldur	x0, [x0, #-112]
    5b94:	f90043a0 	str	x0, [x29, #128]
    5b98:	d0000080 	adrp	x0, 17000 <_Unwind_Backtrace@@Base+0xb6c>
    5b9c:	b9007fbf 	str	wzr, [x29, #124]
    5ba0:	913db000 	add	x0, x0, #0xf6c
    5ba4:	f9003ba0 	str	x0, [x29, #112]
    5ba8:	aa1703e1 	mov	x1, x23
    5bac:	aa1c03e0 	mov	x0, x28
    5bb0:	97fffe22 	bl	5438 <_ZN10__cxxabiv119__foreign_exceptionD0Ev@@Base+0x24>
    5bb4:	f9004fa0 	str	x0, [x29, #152]
    5bb8:	aa1803e1 	mov	x1, x24
    5bbc:	97fffe1f 	bl	5438 <_ZN10__cxxabiv119__foreign_exceptionD0Ev@@Base+0x24>
    5bc0:	f94057a3 	ldr	x3, [x29, #168]
    5bc4:	eb1f007f 	cmp	x3, xzr
    5bc8:	540003e0 	b.eq	5c44 <__gxx_personality_v0@@Base+0x3f4>  // b.none
    5bcc:	5400042c 	b.gt	5c50 <__gxx_personality_v0@@Base+0x400>
    5bd0:	f94043a0 	ldr	x0, [x29, #128]
    5bd4:	eb1f001f 	cmp	x0, xzr
    5bd8:	b9407ba0 	ldr	w0, [x29, #120]
    5bdc:	1a9f07e1 	cset	w1, ne	// ne = any
    5be0:	6b1f001f 	cmp	w0, wzr
    5be4:	1a9f17e0 	cset	w0, eq	// eq = none
    5be8:	0a000020 	and	w0, w1, w0
    5bec:	6b1b001f 	cmp	w0, w27
    5bf0:	54000aa8 	b.hi	5d44 <__gxx_personality_v0@@Base+0x4f4>  // b.pmore
    5bf4:	f9406fa1 	ldr	x1, [x29, #216]
    5bf8:	aa2303e3 	mvn	x3, x3
    5bfc:	d2800004 	mov	x4, #0x0                   	// #0
    5c00:	52800002 	mov	w2, #0x0                   	// #0
    5c04:	8b030021 	add	x1, x1, x3
    5c08:	38401423 	ldrb	w3, [x1], #1
    5c0c:	92401860 	and	x0, x3, #0x7f
    5c10:	9ac22000 	lsl	x0, x0, x2
    5c14:	11001c42 	add	w2, w2, #0x7
    5c18:	aa000084 	orr	x4, x4, x0
    5c1c:	373fff63 	tbnz	w3, #7, 5c08 <__gxx_personality_v0@@Base+0x3b8>
    5c20:	eb1f009f 	cmp	x4, xzr
    5c24:	1a9f17e0 	cset	w0, eq	// eq = none
    5c28:	35000720 	cbnz	w0, 5d0c <__gxx_personality_v0@@Base+0x4bc>
    5c2c:	f9405ba0 	ldr	x0, [x29, #176]
    5c30:	b4000980 	cbz	x0, 5d60 <__gxx_personality_v0@@Base+0x510>
    5c34:	f9404fa1 	ldr	x1, [x29, #152]
    5c38:	8b000020 	add	x0, x1, x0
    5c3c:	aa0003fc 	mov	x28, x0
    5c40:	17ffffda 	b	5ba8 <__gxx_personality_v0@@Base+0x358>
    5c44:	52800020 	mov	w0, #0x1                   	// #1
    5c48:	b9007fa0 	str	w0, [x29, #124]
    5c4c:	17fffff8 	b	5c2c <__gxx_personality_v0@@Base+0x3dc>
    5c50:	3940a260 	ldrb	w0, [x19, #40]
    5c54:	7103fc1f 	cmp	w0, #0xff
    5c58:	54000680 	b.eq	5d28 <__gxx_personality_v0@@Base+0x4d8>  // b.none
    5c5c:	12000801 	and	w1, w0, #0x7
    5c60:	7100103f 	cmp	w1, #0x4
    5c64:	54000049 	b.ls	5c6c <__gxx_personality_v0@@Base+0x41c>  // b.plast
    5c68:	97fffbb2 	bl	4b30 <abort@plt>
    5c6c:	f9403ba2 	ldr	x2, [x29, #112]
    5c70:	38614841 	ldrb	w1, [x2, w1, uxtw]
    5c74:	10000062 	adr	x2, 5c80 <__gxx_personality_v0@@Base+0x430>
    5c78:	8b218841 	add	x1, x2, w1, sxtb #2
    5c7c:	d61f0020 	br	x1
    5c80:	cb030be2 	neg	x2, x3, lsl #2
    5c84:	f9400e64 	ldr	x4, [x19, #24]
    5c88:	aa1903e3 	mov	x3, x25
    5c8c:	f9400a61 	ldr	x1, [x19, #16]
    5c90:	8b020082 	add	x2, x4, x2
    5c94:	97fffdf9 	bl	5478 <_ZN10__cxxabiv119__foreign_exceptionD0Ev@@Base+0x64>
    5c98:	f9405fa1 	ldr	x1, [x29, #184]
    5c9c:	b4000381 	cbz	x1, 5d0c <__gxx_personality_v0@@Base+0x4bc>
    5ca0:	f94043a0 	ldr	x0, [x29, #128]
    5ca4:	b4fffc40 	cbz	x0, 5c2c <__gxx_personality_v0@@Base+0x3dc>
    5ca8:	f94047a0 	ldr	x0, [x29, #136]
    5cac:	f90037a1 	str	x1, [x29, #104]
    5cb0:	f94043a1 	ldr	x1, [x29, #128]
    5cb4:	f9005fa0 	str	x0, [x29, #184]
    5cb8:	aa0103e0 	mov	x0, x1
    5cbc:	f9400022 	ldr	x2, [x1]
    5cc0:	f9400842 	ldr	x2, [x2, #16]
    5cc4:	d63f0040 	blr	x2
    5cc8:	53001c00 	uxtb	w0, w0
    5ccc:	f94037a1 	ldr	x1, [x29, #104]
    5cd0:	34000080 	cbz	w0, 5ce0 <__gxx_personality_v0@@Base+0x490>
    5cd4:	f9405fa0 	ldr	x0, [x29, #184]
    5cd8:	f9400000 	ldr	x0, [x0]
    5cdc:	f9005fa0 	str	x0, [x29, #184]
    5ce0:	f9400024 	ldr	x4, [x1]
    5ce4:	aa0103e0 	mov	x0, x1
    5ce8:	f94043a1 	ldr	x1, [x29, #128]
    5cec:	aa1903e2 	mov	x2, x25
    5cf0:	52800023 	mov	w3, #0x1                   	// #1
    5cf4:	f9401084 	ldr	x4, [x4, #32]
    5cf8:	d63f0080 	blr	x4
    5cfc:	53001c00 	uxtb	w0, w0
    5d00:	34fff960 	cbz	w0, 5c2c <__gxx_personality_v0@@Base+0x3dc>
    5d04:	f9405fa0 	ldr	x0, [x29, #184]
    5d08:	f90047a0 	str	x0, [x29, #136]
    5d0c:	b940abb3 	ldr	w19, [x29, #168]
    5d10:	52800060 	mov	w0, #0x3                   	// #3
    5d14:	17ffff6b 	b	5ac0 <__gxx_personality_v0@@Base+0x270>
    5d18:	cb0307e2 	neg	x2, x3, lsl #1
    5d1c:	17ffffda 	b	5c84 <__gxx_personality_v0@@Base+0x434>
    5d20:	cb030fe2 	neg	x2, x3, lsl #3
    5d24:	17ffffd8 	b	5c84 <__gxx_personality_v0@@Base+0x434>
    5d28:	d2800002 	mov	x2, #0x0                   	// #0
    5d2c:	17ffffd6 	b	5c84 <__gxx_personality_v0@@Base+0x434>
    5d30:	90000140 	adrp	x0, 2d000 <__FINI_ARRAY__@@Base+0x360>
    5d34:	f90047bf 	str	xzr, [x29, #136]
    5d38:	f947c800 	ldr	x0, [x0, #3984]
    5d3c:	f90043a0 	str	x0, [x29, #128]
    5d40:	17ffff96 	b	5b98 <__gxx_personality_v0@@Base+0x348>
    5d44:	f94043a1 	ldr	x1, [x29, #128]
    5d48:	aa1303e0 	mov	x0, x19
    5d4c:	f94047a2 	ldr	x2, [x29, #136]
    5d50:	97fffe70 	bl	5710 <_ZN10__cxxabiv119__foreign_exceptionD0Ev@@Base+0x2fc>
    5d54:	53001c00 	uxtb	w0, w0
    5d58:	52000000 	eor	w0, w0, #0x1
    5d5c:	17ffffb3 	b	5c28 <__gxx_personality_v0@@Base+0x3d8>
    5d60:	b9407fa0 	ldr	w0, [x29, #124]
    5d64:	34ffeec0 	cbz	w0, 5b3c <__gxx_personality_v0@@Base+0x2ec>
    5d68:	52800013 	mov	w19, #0x0                   	// #0
    5d6c:	52800040 	mov	w0, #0x2                   	// #2
    5d70:	17ffff54 	b	5ac0 <__gxx_personality_v0@@Base+0x270>
    5d74:	90000140 	adrp	x0, 2d000 <__FINI_ARRAY__@@Base+0x360>
    5d78:	f90047bf 	str	xzr, [x29, #136]
    5d7c:	f947d000 	ldr	x0, [x0, #4000]
    5d80:	f90043a0 	str	x0, [x29, #128]
    5d84:	17ffff85 	b	5b98 <__gxx_personality_v0@@Base+0x348>
    5d88:	9400006a 	bl	5f30 <_ZSt10unexpectedv@@Base>

0000000000005d8c <__cxa_call_unexpected@@Base>:
    5d8c:	a9b87bfd 	stp	x29, x30, [sp, #-128]!
    5d90:	910003fd 	mov	x29, sp
    5d94:	a90153f3 	stp	x19, x20, [sp, #16]
    5d98:	aa0003f3 	mov	x19, x0
    5d9c:	f9001bf7 	str	x23, [sp, #48]
    5da0:	a9025bf5 	stp	x21, x22, [sp, #32]
    5da4:	9400025b 	bl	6710 <__cxa_begin_catch@@Base>
    5da8:	f85f0261 	ldur	x1, [x19, #-16]
    5dac:	f85c0260 	ldur	x0, [x19, #-64]
    5db0:	f85e8275 	ldur	x21, [x19, #-24]
    5db4:	b85dc274 	ldur	w20, [x19, #-36]
    5db8:	f90033a1 	str	x1, [x29, #96]
    5dbc:	f85c8273 	ldur	x19, [x19, #-56]
    5dc0:	9400004d 	bl	5ef4 <_ZN10__cxxabiv112__unexpectedEPFvvE@@Base>
    5dc4:	94000253 	bl	6710 <__cxa_begin_catch@@Base>
    5dc8:	940002c3 	bl	68d4 <__cxa_get_globals_fast@@Base>
    5dcc:	f9400000 	ldr	x0, [x0]
    5dd0:	9101c017 	add	x23, x0, #0x70
    5dd4:	f9402801 	ldr	x1, [x0, #80]
    5dd8:	36000041 	tbz	w1, #0, 5de0 <__cxa_call_unexpected@@Base+0x54>
    5ddc:	f9400017 	ldr	x23, [x0]
    5de0:	910143b6 	add	x22, x29, #0x50
    5de4:	d2800000 	mov	x0, #0x0                   	// #0
    5de8:	aa1503e1 	mov	x1, x21
    5dec:	aa1603e2 	mov	x2, x22
    5df0:	97fffe05 	bl	5604 <_ZN10__cxxabiv119__foreign_exceptionD0Ev@@Base+0x1f0>
    5df4:	93407e94 	sxtw	x20, w20
    5df8:	f85902e1 	ldur	x1, [x23, #-112]
    5dfc:	aa1603e0 	mov	x0, x22
    5e00:	aa1703e2 	mov	x2, x23
    5e04:	aa1403e3 	mov	x3, x20
    5e08:	97fffe42 	bl	5710 <_ZN10__cxxabiv119__foreign_exceptionD0Ev@@Base+0x2fc>
    5e0c:	53001c00 	uxtb	w0, w0
    5e10:	340000e0 	cbz	w0, 5e2c <__cxa_call_unexpected@@Base+0xa0>
    5e14:	94000087 	bl	6030 <__cxa_rethrow@@Base>
    5e18:	f90027a0 	str	x0, [x29, #72]
    5e1c:	94000265 	bl	67b0 <__cxa_end_catch@@Base>
    5e20:	94000264 	bl	67b0 <__cxa_end_catch@@Base>
    5e24:	f94027a0 	ldr	x0, [x29, #72]
    5e28:	94004115 	bl	1627c <_Unwind_Resume@@Base>
    5e2c:	90000155 	adrp	x21, 2d000 <__FINI_ARRAY__@@Base+0x360>
    5e30:	aa1603e0 	mov	x0, x22
    5e34:	d2800002 	mov	x2, #0x0                   	// #0
    5e38:	aa1403e3 	mov	x3, x20
    5e3c:	f947f6a1 	ldr	x1, [x21, #4072]
    5e40:	97fffe34 	bl	5710 <_ZN10__cxxabiv119__foreign_exceptionD0Ev@@Base+0x2fc>
    5e44:	53001c00 	uxtb	w0, w0
    5e48:	34000160 	cbz	w0, 5e74 <__cxa_call_unexpected@@Base+0xe8>
    5e4c:	d2800100 	mov	x0, #0x8                   	// #8
    5e50:	97fffc65 	bl	4fe4 <__cxa_allocate_exception@@Base>
    5e54:	90000141 	adrp	x1, 2d000 <__FINI_ARRAY__@@Base+0x360>
    5e58:	90000142 	adrp	x2, 2d000 <__FINI_ARRAY__@@Base+0x360>
    5e5c:	f947c421 	ldr	x1, [x1, #3976]
    5e60:	91004021 	add	x1, x1, #0x10
    5e64:	f9000001 	str	x1, [x0]
    5e68:	f947f6a1 	ldr	x1, [x21, #4072]
    5e6c:	f947bc42 	ldr	x2, [x2, #3960]
    5e70:	9400004d 	bl	5fa4 <__cxa_throw@@Base>
    5e74:	aa1303e0 	mov	x0, x19
    5e78:	94000001 	bl	5e7c <_ZN10__cxxabiv111__terminateEPFvvE@@Base>

0000000000005e7c <_ZN10__cxxabiv111__terminateEPFvvE@@Base>:
    5e7c:	a9be7bfd 	stp	x29, x30, [sp, #-32]!
    5e80:	910003fd 	mov	x29, sp
    5e84:	d63f0000 	blr	x0
    5e88:	97fffb2a 	bl	4b30 <abort@plt>
    5e8c:	94000221 	bl	6710 <__cxa_begin_catch@@Base>
    5e90:	97fffb28 	bl	4b30 <abort@plt>
    5e94:	f9000ba1 	str	x1, [x29, #16]
    5e98:	f9000fa0 	str	x0, [x29, #24]
    5e9c:	94000245 	bl	67b0 <__cxa_end_catch@@Base>
    5ea0:	f9400ba1 	ldr	x1, [x29, #16]
    5ea4:	f9400fa0 	ldr	x0, [x29, #24]
    5ea8:	b100043f 	cmn	x1, #0x1
    5eac:	54000040 	b.eq	5eb4 <_ZN10__cxxabiv111__terminateEPFvvE@@Base+0x38>  // b.none
    5eb0:	940040f3 	bl	1627c <_Unwind_Resume@@Base>
    5eb4:	97ffffb6 	bl	5d8c <__cxa_call_unexpected@@Base>

0000000000005eb8 <_ZSt13set_terminatePFvvE@@Base>:
    5eb8:	90000141 	adrp	x1, 2d000 <__FINI_ARRAY__@@Base+0x360>
    5ebc:	aa0003e2 	mov	x2, x0
    5ec0:	f947b021 	ldr	x1, [x1, #3936]
    5ec4:	c85ffc20 	ldaxr	x0, [x1]
    5ec8:	c803fc22 	stlxr	w3, x2, [x1]
    5ecc:	35ffffc3 	cbnz	w3, 5ec4 <_ZSt13set_terminatePFvvE@@Base+0xc>
    5ed0:	d65f03c0 	ret

0000000000005ed4 <_ZSt13get_terminatev@@Base>:
    5ed4:	90000140 	adrp	x0, 2d000 <__FINI_ARRAY__@@Base+0x360>
    5ed8:	f947b000 	ldr	x0, [x0, #3936]
    5edc:	c8dffc00 	ldar	x0, [x0]
    5ee0:	d65f03c0 	ret

0000000000005ee4 <_ZSt9terminatev@@Base>:
    5ee4:	a9bf7bfd 	stp	x29, x30, [sp, #-16]!
    5ee8:	910003fd 	mov	x29, sp
    5eec:	97fffffa 	bl	5ed4 <_ZSt13get_terminatev@@Base>
    5ef0:	97ffffe3 	bl	5e7c <_ZN10__cxxabiv111__terminateEPFvvE@@Base>

0000000000005ef4 <_ZN10__cxxabiv112__unexpectedEPFvvE@@Base>:
    5ef4:	a9bf7bfd 	stp	x29, x30, [sp, #-16]!
    5ef8:	910003fd 	mov	x29, sp
    5efc:	d63f0000 	blr	x0
    5f00:	97fffff9 	bl	5ee4 <_ZSt9terminatev@@Base>

0000000000005f04 <_ZSt14set_unexpectedPFvvE@@Base>:
    5f04:	90000141 	adrp	x1, 2d000 <__FINI_ARRAY__@@Base+0x360>
    5f08:	aa0003e2 	mov	x2, x0
    5f0c:	f947cc21 	ldr	x1, [x1, #3992]
    5f10:	c85ffc20 	ldaxr	x0, [x1]
    5f14:	c803fc22 	stlxr	w3, x2, [x1]
    5f18:	35ffffc3 	cbnz	w3, 5f10 <_ZSt14set_unexpectedPFvvE@@Base+0xc>
    5f1c:	d65f03c0 	ret

0000000000005f20 <_ZSt14get_unexpectedv@@Base>:
    5f20:	90000140 	adrp	x0, 2d000 <__FINI_ARRAY__@@Base+0x360>
    5f24:	f947cc00 	ldr	x0, [x0, #3992]
    5f28:	c8dffc00 	ldar	x0, [x0]
    5f2c:	d65f03c0 	ret

0000000000005f30 <_ZSt10unexpectedv@@Base>:
    5f30:	a9bf7bfd 	stp	x29, x30, [sp, #-16]!
    5f34:	910003fd 	mov	x29, sp
    5f38:	97fffffa 	bl	5f20 <_ZSt14get_unexpectedv@@Base>
    5f3c:	97ffffee 	bl	5ef4 <_ZN10__cxxabiv112__unexpectedEPFvvE@@Base>
    5f40:	a9be7bfd 	stp	x29, x30, [sp, #-32]!
    5f44:	7100041f 	cmp	w0, #0x1
    5f48:	910003fd 	mov	x29, sp
    5f4c:	f9000bf3 	str	x19, [sp, #16]
    5f50:	54000268 	b.hi	5f9c <_ZSt10unexpectedv@@Base+0x6c>  // b.pmore
    5f54:	d1018020 	sub	x0, x1, #0x60
    5f58:	885ffc02 	ldaxr	w2, [x0]
    5f5c:	51000442 	sub	w2, w2, #0x1
    5f60:	8803fc02 	stlxr	w3, w2, [x0]
    5f64:	35ffffa3 	cbnz	w3, 5f58 <_ZSt10unexpectedv@@Base+0x28>
    5f68:	35000142 	cbnz	w2, 5f90 <_ZSt10unexpectedv@@Base+0x60>
    5f6c:	f85b8022 	ldur	x2, [x1, #-72]
    5f70:	91008033 	add	x19, x1, #0x20
    5f74:	b4000062 	cbz	x2, 5f80 <_ZSt10unexpectedv@@Base+0x50>
    5f78:	aa1303e0 	mov	x0, x19
    5f7c:	d63f0040 	blr	x2
    5f80:	aa1303e0 	mov	x0, x19
    5f84:	f9400bf3 	ldr	x19, [sp, #16]
    5f88:	a8c27bfd 	ldp	x29, x30, [sp], #32
    5f8c:	17fffc54 	b	50dc <__cxa_free_exception@@Base>
    5f90:	f9400bf3 	ldr	x19, [sp, #16]
    5f94:	a8c27bfd 	ldp	x29, x30, [sp], #32
    5f98:	d65f03c0 	ret
    5f9c:	f85c8020 	ldur	x0, [x1, #-56]
    5fa0:	97ffffb7 	bl	5e7c <_ZN10__cxxabiv111__terminateEPFvvE@@Base>

0000000000005fa4 <__cxa_throw@@Base>:
    5fa4:	a9bd7bfd 	stp	x29, x30, [sp, #-48]!
    5fa8:	910003fd 	mov	x29, sp
    5fac:	a90153f3 	stp	x19, x20, [sp, #16]
    5fb0:	aa0003f3 	mov	x19, x0
    5fb4:	f90013a1 	str	x1, [x29, #32]
    5fb8:	d1020274 	sub	x20, x19, #0x80
    5fbc:	f90017a2 	str	x2, [x29, #40]
    5fc0:	94000257 	bl	691c <__cxa_get_globals@@Base>
    5fc4:	b9400803 	ldr	w3, [x0, #8]
    5fc8:	91018294 	add	x20, x20, #0x60
    5fcc:	f94017a2 	ldr	x2, [x29, #40]
    5fd0:	11000463 	add	w3, w3, #0x1
    5fd4:	f94013a1 	ldr	x1, [x29, #32]
    5fd8:	b9000803 	str	w3, [x0, #8]
    5fdc:	52800020 	mov	w0, #0x1                   	// #1
    5fe0:	f8198262 	stur	x2, [x19, #-104]
    5fe4:	f8190261 	stur	x1, [x19, #-112]
    5fe8:	b8180260 	stur	w0, [x19, #-128]
    5fec:	97ffffcd 	bl	5f20 <_ZSt14get_unexpectedv@@Base>
    5ff0:	f81a0260 	stur	x0, [x19, #-96]
    5ff4:	97ffffb8 	bl	5ed4 <_ZSt13get_terminatev@@Base>
    5ff8:	f81a8260 	stur	x0, [x19, #-88]
    5ffc:	d2856001 	mov	x1, #0x2b00                	// #11008
    6000:	aa1403e0 	mov	x0, x20
    6004:	f2a86561 	movk	x1, #0x432b, lsl #16
    6008:	f2caa861 	movk	x1, #0x5543, lsl #32
    600c:	f2e8e9c1 	movk	x1, #0x474e, lsl #48
    6010:	f81e0261 	stur	x1, [x19, #-32]
    6014:	f0ffffe1 	adrp	x1, 5000 <__cxa_allocate_exception@@Base+0x1c>
    6018:	913d0021 	add	x1, x1, #0xf40
    601c:	f81e8261 	stur	x1, [x19, #-24]
    6020:	94003ffc 	bl	16010 <_Unwind_RaiseException@@Base>
    6024:	aa1403e0 	mov	x0, x20
    6028:	940001ba 	bl	6710 <__cxa_begin_catch@@Base>
    602c:	97ffffae 	bl	5ee4 <_ZSt9terminatev@@Base>

0000000000006030 <__cxa_rethrow@@Base>:
    6030:	a9be7bfd 	stp	x29, x30, [sp, #-32]!
    6034:	910003fd 	mov	x29, sp
    6038:	f9000bf3 	str	x19, [sp, #16]
    603c:	94000238 	bl	691c <__cxa_get_globals@@Base>
    6040:	b9400802 	ldr	w2, [x0, #8]
    6044:	f9400001 	ldr	x1, [x0]
    6048:	11000442 	add	w2, w2, #0x1
    604c:	b9000802 	str	w2, [x0, #8]
    6050:	b40001e1 	cbz	x1, 608c <__cxa_rethrow@@Base+0x5c>
    6054:	d29aa002 	mov	x2, #0xd500                	// #54528
    6058:	f9402823 	ldr	x3, [x1, #80]
    605c:	f2b79a82 	movk	x2, #0xbcd4, lsl #16
    6060:	f2d55782 	movk	x2, #0xaabc, lsl #32
    6064:	f2f71622 	movk	x2, #0xb8b1, lsl #48
    6068:	8b020062 	add	x2, x3, x2
    606c:	f100045f 	cmp	x2, #0x1
    6070:	54000109 	b.ls	6090 <__cxa_rethrow@@Base+0x60>  // b.plast
    6074:	f900001f 	str	xzr, [x0]
    6078:	91014033 	add	x19, x1, #0x50
    607c:	aa1303e0 	mov	x0, x19
    6080:	940040be 	bl	16378 <_Unwind_Resume_or_Rethrow@@Base>
    6084:	aa1303e0 	mov	x0, x19
    6088:	940001a2 	bl	6710 <__cxa_begin_catch@@Base>
    608c:	97ffff96 	bl	5ee4 <_ZSt9terminatev@@Base>
    6090:	b9402820 	ldr	w0, [x1, #40]
    6094:	4b0003e0 	neg	w0, w0
    6098:	b9002820 	str	w0, [x1, #40]
    609c:	17fffff7 	b	6078 <__cxa_rethrow@@Base+0x48>

00000000000060a0 <_ZSt15set_new_handlerPFvvE@@Base>:
    60a0:	b00001c1 	adrp	x1, 3f000 <__bss_start@@Base+0x10fd0>
    60a4:	aa0003e2 	mov	x2, x0
    60a8:	9131e021 	add	x1, x1, #0xc78
    60ac:	c85ffc20 	ldaxr	x0, [x1]
    60b0:	c803fc22 	stlxr	w3, x2, [x1]
    60b4:	35ffffc3 	cbnz	w3, 60ac <_ZSt15set_new_handlerPFvvE@@Base+0xc>
    60b8:	d65f03c0 	ret

00000000000060bc <_ZSt15get_new_handlerv@@Base>:
    60bc:	b00001c0 	adrp	x0, 3f000 <__bss_start@@Base+0x10fd0>
    60c0:	9131e000 	add	x0, x0, #0xc78
    60c4:	c8dffc00 	ldar	x0, [x0]
    60c8:	d65f03c0 	ret

00000000000060cc <__cxa_pure_virtual@@Base>:
    60cc:	a9bf7bfd 	stp	x29, x30, [sp, #-16]!
    60d0:	b0000081 	adrp	x1, 17000 <_Unwind_Backtrace@@Base+0xb6c>
    60d4:	d2800362 	mov	x2, #0x1b                  	// #27
    60d8:	910003fd 	mov	x29, sp
    60dc:	913e0021 	add	x1, x1, #0xf80
    60e0:	52800040 	mov	w0, #0x2                   	// #2
    60e4:	97fffa9f 	bl	4b60 <write@plt>
    60e8:	97ffff7f 	bl	5ee4 <_ZSt9terminatev@@Base>

00000000000060ec <__cxa_deleted_virtual@@Base>:
    60ec:	a9bf7bfd 	stp	x29, x30, [sp, #-16]!
    60f0:	b0000081 	adrp	x1, 17000 <_Unwind_Backtrace@@Base+0xb6c>
    60f4:	d28003c2 	mov	x2, #0x1e                  	// #30
    60f8:	910003fd 	mov	x29, sp
    60fc:	913e8021 	add	x1, x1, #0xfa0
    6100:	52800040 	mov	w0, #0x2                   	// #2
    6104:	97fffa97 	bl	4b60 <write@plt>
    6108:	97ffff77 	bl	5ee4 <_ZSt9terminatev@@Base>

000000000000610c <_ZN10__cxxabiv120__si_class_type_infoD1Ev@@Base>:
    610c:	f0000121 	adrp	x1, 2d000 <__FINI_ARRAY__@@Base+0x360>
    6110:	f947ec21 	ldr	x1, [x1, #4056]
    6114:	91004021 	add	x1, x1, #0x10
    6118:	f9000001 	str	x1, [x0]
    611c:	140000d6 	b	6474 <_ZN10__cxxabiv117__class_type_infoD1Ev@@Base>

0000000000006120 <_ZN10__cxxabiv120__si_class_type_infoD0Ev@@Base>:
    6120:	a9be7bfd 	stp	x29, x30, [sp, #-32]!
    6124:	910003fd 	mov	x29, sp
    6128:	f9000bf3 	str	x19, [sp, #16]
    612c:	aa0003f3 	mov	x19, x0
    6130:	97fffff7 	bl	610c <_ZN10__cxxabiv120__si_class_type_infoD1Ev@@Base>
    6134:	aa1303e0 	mov	x0, x19
    6138:	f9400bf3 	ldr	x19, [sp, #16]
    613c:	a8c27bfd 	ldp	x29, x30, [sp], #32
    6140:	17fffb6a 	b	4ee8 <_ZdlPv@@Base>

0000000000006144 <_ZNK10__cxxabiv120__si_class_type_info12__do_dyncastElNS_17__class_type_info10__sub_kindEPKS1_PKvS4_S6_RNS1_16__dyncast_resultE@@Base>:
    6144:	a9ba7bfd 	stp	x29, x30, [sp, #-96]!
    6148:	910003fd 	mov	x29, sp
    614c:	a90153f3 	stp	x19, x20, [sp, #16]
    6150:	aa0103f4 	mov	x20, x1
    6154:	f9400413 	ldr	x19, [x0, #8]
    6158:	f9400461 	ldr	x1, [x3, #8]
    615c:	a9025bf5 	stp	x21, x22, [sp, #32]
    6160:	eb01027f 	cmp	x19, x1
    6164:	aa0003f5 	mov	x21, x0
    6168:	54000400 	b.eq	61e8 <_ZNK10__cxxabiv120__si_class_type_info12__do_dyncastElNS_17__class_type_info10__sub_kindEPKS1_PKvS4_S6_RNS1_16__dyncast_resultE@@Base+0xa4>  // b.none
    616c:	39400276 	ldrb	w22, [x19]
    6170:	7100aadf 	cmp	w22, #0x2a
    6174:	54000200 	b.eq	61b4 <_ZNK10__cxxabiv120__si_class_type_info12__do_dyncastElNS_17__class_type_info10__sub_kindEPKS1_PKvS4_S6_RNS1_16__dyncast_resultE@@Base+0x70>  // b.none
    6178:	aa1303e0 	mov	x0, x19
    617c:	f9001ba7 	str	x7, [x29, #48]
    6180:	f9001fa6 	str	x6, [x29, #56]
    6184:	f90023a5 	str	x5, [x29, #64]
    6188:	f90027a4 	str	x4, [x29, #72]
    618c:	f9002ba3 	str	x3, [x29, #80]
    6190:	f9002fa2 	str	x2, [x29, #88]
    6194:	97fffa23 	bl	4a20 <strcmp@plt>
    6198:	f9402fa2 	ldr	x2, [x29, #88]
    619c:	f9402ba3 	ldr	x3, [x29, #80]
    61a0:	f94027a4 	ldr	x4, [x29, #72]
    61a4:	f94023a5 	ldr	x5, [x29, #64]
    61a8:	f9401fa6 	ldr	x6, [x29, #56]
    61ac:	f9401ba7 	ldr	x7, [x29, #48]
    61b0:	340001c0 	cbz	w0, 61e8 <_ZNK10__cxxabiv120__si_class_type_info12__do_dyncastElNS_17__class_type_info10__sub_kindEPKS1_PKvS4_S6_RNS1_16__dyncast_resultE@@Base+0xa4>
    61b4:	eb06009f 	cmp	x4, x6
    61b8:	540003e0 	b.eq	6234 <_ZNK10__cxxabiv120__si_class_type_info12__do_dyncastElNS_17__class_type_info10__sub_kindEPKS1_PKvS4_S6_RNS1_16__dyncast_resultE@@Base+0xf0>  // b.none
    61bc:	f9400aa8 	ldr	x8, [x21, #16]
    61c0:	aa1403e1 	mov	x1, x20
    61c4:	aa0803e0 	mov	x0, x8
    61c8:	f9400108 	ldr	x8, [x8]
    61cc:	f9401d08 	ldr	x8, [x8, #56]
    61d0:	d63f0100 	blr	x8
    61d4:	53001c00 	uxtb	w0, w0
    61d8:	a94153f3 	ldp	x19, x20, [sp, #16]
    61dc:	a9425bf5 	ldp	x21, x22, [sp, #32]
    61e0:	a8c67bfd 	ldp	x29, x30, [sp], #96
    61e4:	d65f03c0 	ret
    61e8:	f90000e4 	str	x4, [x7]
    61ec:	b90008e2 	str	w2, [x7, #8]
    61f0:	b7f80174 	tbnz	x20, #63, 621c <_ZNK10__cxxabiv120__si_class_type_info12__do_dyncastElNS_17__class_type_info10__sub_kindEPKS1_PKvS4_S6_RNS1_16__dyncast_resultE@@Base+0xd8>
    61f4:	8b140094 	add	x20, x4, x20
    61f8:	528000c1 	mov	w1, #0x6                   	// #6
    61fc:	eb1400df 	cmp	x6, x20
    6200:	52800000 	mov	w0, #0x0                   	// #0
    6204:	1a9f0421 	csinc	w1, w1, wzr, eq	// eq = none
    6208:	b90010e1 	str	w1, [x7, #16]
    620c:	a94153f3 	ldp	x19, x20, [sp, #16]
    6210:	a9425bf5 	ldp	x21, x22, [sp, #32]
    6214:	a8c67bfd 	ldp	x29, x30, [sp], #96
    6218:	d65f03c0 	ret
    621c:	b1000a9f 	cmn	x20, #0x2
    6220:	52800000 	mov	w0, #0x0                   	// #0
    6224:	54fffda1 	b.ne	61d8 <_ZNK10__cxxabiv120__si_class_type_info12__do_dyncastElNS_17__class_type_info10__sub_kindEPKS1_PKvS4_S6_RNS1_16__dyncast_resultE@@Base+0x94>  // b.any
    6228:	52800021 	mov	w1, #0x1                   	// #1
    622c:	b90010e1 	str	w1, [x7, #16]
    6230:	17ffffea 	b	61d8 <_ZNK10__cxxabiv120__si_class_type_info12__do_dyncastElNS_17__class_type_info10__sub_kindEPKS1_PKvS4_S6_RNS1_16__dyncast_resultE@@Base+0x94>
    6234:	f94004a1 	ldr	x1, [x5, #8]
    6238:	eb01027f 	cmp	x19, x1
    623c:	54000240 	b.eq	6284 <_ZNK10__cxxabiv120__si_class_type_info12__do_dyncastElNS_17__class_type_info10__sub_kindEPKS1_PKvS4_S6_RNS1_16__dyncast_resultE@@Base+0x140>  // b.none
    6240:	7100aadf 	cmp	w22, #0x2a
    6244:	54fffbc0 	b.eq	61bc <_ZNK10__cxxabiv120__si_class_type_info12__do_dyncastElNS_17__class_type_info10__sub_kindEPKS1_PKvS4_S6_RNS1_16__dyncast_resultE@@Base+0x78>  // b.none
    6248:	aa1303e0 	mov	x0, x19
    624c:	f9001ba7 	str	x7, [x29, #48]
    6250:	f9001fa6 	str	x6, [x29, #56]
    6254:	f90023a5 	str	x5, [x29, #64]
    6258:	f90027a4 	str	x4, [x29, #72]
    625c:	f9002ba3 	str	x3, [x29, #80]
    6260:	f9002fa2 	str	x2, [x29, #88]
    6264:	97fff9ef 	bl	4a20 <strcmp@plt>
    6268:	f9402fa2 	ldr	x2, [x29, #88]
    626c:	f9402ba3 	ldr	x3, [x29, #80]
    6270:	f94027a4 	ldr	x4, [x29, #72]
    6274:	f94023a5 	ldr	x5, [x29, #64]
    6278:	f9401fa6 	ldr	x6, [x29, #56]
    627c:	f9401ba7 	ldr	x7, [x29, #48]
    6280:	35fff9e0 	cbnz	w0, 61bc <_ZNK10__cxxabiv120__si_class_type_info12__do_dyncastElNS_17__class_type_info10__sub_kindEPKS1_PKvS4_S6_RNS1_16__dyncast_resultE@@Base+0x78>
    6284:	b9000ce2 	str	w2, [x7, #12]
    6288:	52800000 	mov	w0, #0x0                   	// #0
    628c:	a94153f3 	ldp	x19, x20, [sp, #16]
    6290:	a9425bf5 	ldp	x21, x22, [sp, #32]
    6294:	a8c67bfd 	ldp	x29, x30, [sp], #96
    6298:	d65f03c0 	ret

000000000000629c <_ZNK10__cxxabiv120__si_class_type_info20__do_find_public_srcElPKvPKNS_17__class_type_infoES2_@@Base>:
    629c:	a9bc7bfd 	stp	x29, x30, [sp, #-64]!
    62a0:	eb02009f 	cmp	x4, x2
    62a4:	910003fd 	mov	x29, sp
    62a8:	a90153f3 	stp	x19, x20, [sp, #16]
    62ac:	aa0003f3 	mov	x19, x0
    62b0:	aa0103f4 	mov	x20, x1
    62b4:	54000180 	b.eq	62e4 <_ZNK10__cxxabiv120__si_class_type_info20__do_find_public_srcElPKvPKNS_17__class_type_infoES2_@@Base+0x48>  // b.none
    62b8:	f9400a65 	ldr	x5, [x19, #16]
    62bc:	aa1403e1 	mov	x1, x20
    62c0:	aa0503e0 	mov	x0, x5
    62c4:	f94000a5 	ldr	x5, [x5]
    62c8:	f94020a5 	ldr	x5, [x5, #64]
    62cc:	d63f00a0 	blr	x5
    62d0:	2a0003e1 	mov	w1, w0
    62d4:	a94153f3 	ldp	x19, x20, [sp, #16]
    62d8:	2a0103e0 	mov	w0, w1
    62dc:	a8c47bfd 	ldp	x29, x30, [sp], #64
    62e0:	d65f03c0 	ret
    62e4:	f9400400 	ldr	x0, [x0, #8]
    62e8:	f9400461 	ldr	x1, [x3, #8]
    62ec:	eb01001f 	cmp	x0, x1
    62f0:	540001c0 	b.eq	6328 <_ZNK10__cxxabiv120__si_class_type_info20__do_find_public_srcElPKvPKNS_17__class_type_infoES2_@@Base+0x8c>  // b.none
    62f4:	39400005 	ldrb	w5, [x0]
    62f8:	7100a8bf 	cmp	w5, #0x2a
    62fc:	54fffde0 	b.eq	62b8 <_ZNK10__cxxabiv120__si_class_type_info20__do_find_public_srcElPKvPKNS_17__class_type_infoES2_@@Base+0x1c>  // b.none
    6300:	f90017a4 	str	x4, [x29, #40]
    6304:	f9001ba3 	str	x3, [x29, #48]
    6308:	f9001fa2 	str	x2, [x29, #56]
    630c:	97fff9c5 	bl	4a20 <strcmp@plt>
    6310:	528000c1 	mov	w1, #0x6                   	// #6
    6314:	f9401fa2 	ldr	x2, [x29, #56]
    6318:	f9401ba3 	ldr	x3, [x29, #48]
    631c:	f94017a4 	ldr	x4, [x29, #40]
    6320:	35fffcc0 	cbnz	w0, 62b8 <_ZNK10__cxxabiv120__si_class_type_info20__do_find_public_srcElPKvPKNS_17__class_type_infoES2_@@Base+0x1c>
    6324:	17ffffec 	b	62d4 <_ZNK10__cxxabiv120__si_class_type_info20__do_find_public_srcElPKvPKNS_17__class_type_infoES2_@@Base+0x38>
    6328:	528000c1 	mov	w1, #0x6                   	// #6
    632c:	17ffffea 	b	62d4 <_ZNK10__cxxabiv120__si_class_type_info20__do_find_public_srcElPKvPKNS_17__class_type_infoES2_@@Base+0x38>

0000000000006330 <_ZNK10__cxxabiv120__si_class_type_info11__do_upcastEPKNS_17__class_type_infoEPKvRNS1_15__upcast_resultE@@Base>:
    6330:	a9bd7bfd 	stp	x29, x30, [sp, #-48]!
    6334:	910003fd 	mov	x29, sp
    6338:	a90153f3 	stp	x19, x20, [sp, #16]
    633c:	a9025bf5 	stp	x21, x22, [sp, #32]
    6340:	aa0203f4 	mov	x20, x2
    6344:	aa0003f6 	mov	x22, x0
    6348:	aa0103f5 	mov	x21, x1
    634c:	aa0303f3 	mov	x19, x3
    6350:	94000057 	bl	64ac <_ZNK10__cxxabiv117__class_type_info11__do_upcastEPKS0_PKvRNS0_15__upcast_resultE@@Base>
    6354:	53001c00 	uxtb	w0, w0
    6358:	35000140 	cbnz	w0, 6380 <_ZNK10__cxxabiv120__si_class_type_info11__do_upcastEPKNS_17__class_type_infoEPKvRNS1_15__upcast_resultE@@Base+0x50>
    635c:	f9400ac4 	ldr	x4, [x22, #16]
    6360:	aa1503e1 	mov	x1, x21
    6364:	aa1403e2 	mov	x2, x20
    6368:	aa1303e3 	mov	x3, x19
    636c:	aa0403e0 	mov	x0, x4
    6370:	f9400084 	ldr	x4, [x4]
    6374:	f9401884 	ldr	x4, [x4, #48]
    6378:	d63f0080 	blr	x4
    637c:	53001c00 	uxtb	w0, w0
    6380:	a94153f3 	ldp	x19, x20, [sp, #16]
    6384:	a9425bf5 	ldp	x21, x22, [sp, #32]
    6388:	a8c37bfd 	ldp	x29, x30, [sp], #48
    638c:	d65f03c0 	ret
    6390:	d65f03c0 	ret
    6394:	52800000 	mov	w0, #0x0                   	// #0
    6398:	d65f03c0 	ret
    639c:	52800000 	mov	w0, #0x0                   	// #0
    63a0:	d65f03c0 	ret
    63a4:	52800000 	mov	w0, #0x0                   	// #0
    63a8:	d65f03c0 	ret
    63ac:	17fffacf 	b	4ee8 <_ZdlPv@@Base>
    63b0:	a9bf7bfd 	stp	x29, x30, [sp, #-16]!
    63b4:	910003fd 	mov	x29, sp
    63b8:	f9400400 	ldr	x0, [x0, #8]
    63bc:	f9400421 	ldr	x1, [x1, #8]
    63c0:	eb01001f 	cmp	x0, x1
    63c4:	54000180 	b.eq	63f4 <_ZNK10__cxxabiv120__si_class_type_info11__do_upcastEPKNS_17__class_type_infoEPKvRNS1_15__upcast_resultE@@Base+0xc4>  // b.none
    63c8:	39400002 	ldrb	w2, [x0]
    63cc:	7100a85f 	cmp	w2, #0x2a
    63d0:	540000c0 	b.eq	63e8 <_ZNK10__cxxabiv120__si_class_type_info11__do_upcastEPKNS_17__class_type_infoEPKvRNS1_15__upcast_resultE@@Base+0xb8>  // b.none
    63d4:	97fff993 	bl	4a20 <strcmp@plt>
    63d8:	6b1f001f 	cmp	w0, wzr
    63dc:	1a9f17e0 	cset	w0, eq	// eq = none
    63e0:	a8c17bfd 	ldp	x29, x30, [sp], #16
    63e4:	d65f03c0 	ret
    63e8:	52800000 	mov	w0, #0x0                   	// #0
    63ec:	a8c17bfd 	ldp	x29, x30, [sp], #16
    63f0:	d65f03c0 	ret
    63f4:	52800020 	mov	w0, #0x1                   	// #1
    63f8:	a8c17bfd 	ldp	x29, x30, [sp], #16
    63fc:	d65f03c0 	ret

0000000000006400 <_ZNK10__cxxabiv117__class_type_info11__do_upcastEPKS0_PPv@@Base>:
    6400:	a9bc7bfd 	stp	x29, x30, [sp, #-64]!
    6404:	52800205 	mov	w5, #0x10                  	// #16
    6408:	910003fd 	mov	x29, sp
    640c:	f9400004 	ldr	x4, [x0]
    6410:	9100a3a3 	add	x3, x29, #0x28
    6414:	f9000bf3 	str	x19, [sp, #16]
    6418:	aa0203f3 	mov	x19, x2
    641c:	f9400042 	ldr	x2, [x2]
    6420:	f9401884 	ldr	x4, [x4, #48]
    6424:	f90017bf 	str	xzr, [x29, #40]
    6428:	b90033bf 	str	wzr, [x29, #48]
    642c:	b90037a5 	str	w5, [x29, #52]
    6430:	f9001fbf 	str	xzr, [x29, #56]
    6434:	d63f0080 	blr	x4
    6438:	b94033a1 	ldr	w1, [x29, #48]
    643c:	52800000 	mov	w0, #0x0                   	// #0
    6440:	121f0421 	and	w1, w1, #0x6
    6444:	7100183f 	cmp	w1, #0x6
    6448:	54000081 	b.ne	6458 <_ZNK10__cxxabiv117__class_type_info11__do_upcastEPKS0_PPv@@Base+0x58>  // b.any
    644c:	f94017a1 	ldr	x1, [x29, #40]
    6450:	52800020 	mov	w0, #0x1                   	// #1
    6454:	f9000261 	str	x1, [x19]
    6458:	f9400bf3 	ldr	x19, [sp, #16]
    645c:	a8c47bfd 	ldp	x29, x30, [sp], #64
    6460:	d65f03c0 	ret

0000000000006464 <_ZNK10__cxxabiv117__class_type_info20__do_find_public_srcElPKvPKS0_S2_@@Base>:
    6464:	eb02009f 	cmp	x4, x2
    6468:	528000c0 	mov	w0, #0x6                   	// #6
    646c:	1a9f0400 	csinc	w0, w0, wzr, eq	// eq = none
    6470:	d65f03c0 	ret

0000000000006474 <_ZN10__cxxabiv117__class_type_infoD1Ev@@Base>:
    6474:	f0000121 	adrp	x1, 2d000 <__FINI_ARRAY__@@Base+0x360>
    6478:	f947f821 	ldr	x1, [x1, #4080]
    647c:	91004021 	add	x1, x1, #0x10
    6480:	f9000001 	str	x1, [x0]
    6484:	17ffffc3 	b	6390 <_ZNK10__cxxabiv120__si_class_type_info11__do_upcastEPKNS_17__class_type_infoEPKvRNS1_15__upcast_resultE@@Base+0x60>

0000000000006488 <_ZN10__cxxabiv117__class_type_infoD0Ev@@Base>:
    6488:	a9be7bfd 	stp	x29, x30, [sp, #-32]!
    648c:	910003fd 	mov	x29, sp
    6490:	f9000bf3 	str	x19, [sp, #16]
    6494:	aa0003f3 	mov	x19, x0
    6498:	97fffff7 	bl	6474 <_ZN10__cxxabiv117__class_type_infoD1Ev@@Base>
    649c:	aa1303e0 	mov	x0, x19
    64a0:	f9400bf3 	ldr	x19, [sp, #16]
    64a4:	a8c27bfd 	ldp	x29, x30, [sp], #32
    64a8:	17fffa90 	b	4ee8 <_ZdlPv@@Base>

00000000000064ac <_ZNK10__cxxabiv117__class_type_info11__do_upcastEPKS0_PKvRNS0_15__upcast_resultE@@Base>:
    64ac:	a9be7bfd 	stp	x29, x30, [sp, #-32]!
    64b0:	910003fd 	mov	x29, sp
    64b4:	f9400400 	ldr	x0, [x0, #8]
    64b8:	f9400421 	ldr	x1, [x1, #8]
    64bc:	eb01001f 	cmp	x0, x1
    64c0:	540001a0 	b.eq	64f4 <_ZNK10__cxxabiv117__class_type_info11__do_upcastEPKS0_PKvRNS0_15__upcast_resultE@@Base+0x48>  // b.none
    64c4:	39400004 	ldrb	w4, [x0]
    64c8:	f9000ba3 	str	x3, [x29, #16]
    64cc:	f9000fa2 	str	x2, [x29, #24]
    64d0:	7100a89f 	cmp	w4, #0x2a
    64d4:	540000a0 	b.eq	64e8 <_ZNK10__cxxabiv117__class_type_info11__do_upcastEPKS0_PKvRNS0_15__upcast_resultE@@Base+0x3c>  // b.none
    64d8:	97fff952 	bl	4a20 <strcmp@plt>
    64dc:	f9400fa2 	ldr	x2, [x29, #24]
    64e0:	f9400ba3 	ldr	x3, [x29, #16]
    64e4:	34000080 	cbz	w0, 64f4 <_ZNK10__cxxabiv117__class_type_info11__do_upcastEPKS0_PKvRNS0_15__upcast_resultE@@Base+0x48>
    64e8:	52800000 	mov	w0, #0x0                   	// #0
    64ec:	a8c27bfd 	ldp	x29, x30, [sp], #32
    64f0:	d65f03c0 	ret
    64f4:	d2800201 	mov	x1, #0x10                  	// #16
    64f8:	f9000062 	str	x2, [x3]
    64fc:	f9000861 	str	x1, [x3, #16]
    6500:	528000c1 	mov	w1, #0x6                   	// #6
    6504:	b9000861 	str	w1, [x3, #8]
    6508:	52800020 	mov	w0, #0x1                   	// #1
    650c:	a8c27bfd 	ldp	x29, x30, [sp], #32
    6510:	d65f03c0 	ret

0000000000006514 <_ZNK10__cxxabiv117__class_type_info10__do_catchEPKSt9type_infoPPvj@@Base>:
    6514:	a9bd7bfd 	stp	x29, x30, [sp, #-48]!
    6518:	910003fd 	mov	x29, sp
    651c:	f9400404 	ldr	x4, [x0, #8]
    6520:	f9400425 	ldr	x5, [x1, #8]
    6524:	a90153f3 	stp	x19, x20, [sp, #16]
    6528:	a9025bf5 	stp	x21, x22, [sp, #32]
    652c:	eb05009f 	cmp	x4, x5
    6530:	54000420 	b.eq	65b4 <_ZNK10__cxxabiv117__class_type_info10__do_catchEPKSt9type_infoPPvj@@Base+0xa0>  // b.none
    6534:	aa0003f4 	mov	x20, x0
    6538:	39400080 	ldrb	w0, [x4]
    653c:	2a0303f5 	mov	w21, w3
    6540:	aa0203f6 	mov	x22, x2
    6544:	7100a81f 	cmp	w0, #0x2a
    6548:	aa0103f3 	mov	x19, x1
    654c:	540000c0 	b.eq	6564 <_ZNK10__cxxabiv117__class_type_info10__do_catchEPKSt9type_infoPPvj@@Base+0x50>  // b.none
    6550:	aa0503e1 	mov	x1, x5
    6554:	aa0403e0 	mov	x0, x4
    6558:	97fff932 	bl	4a20 <strcmp@plt>
    655c:	52800021 	mov	w1, #0x1                   	// #1
    6560:	34000080 	cbz	w0, 6570 <_ZNK10__cxxabiv117__class_type_info10__do_catchEPKSt9type_infoPPvj@@Base+0x5c>
    6564:	71000ebf 	cmp	w21, #0x3
    6568:	52800001 	mov	w1, #0x0                   	// #0
    656c:	540000c9 	b.ls	6584 <_ZNK10__cxxabiv117__class_type_info10__do_catchEPKSt9type_infoPPvj@@Base+0x70>  // b.plast
    6570:	2a0103e0 	mov	w0, w1
    6574:	a94153f3 	ldp	x19, x20, [sp, #16]
    6578:	a9425bf5 	ldp	x21, x22, [sp, #32]
    657c:	a8c37bfd 	ldp	x29, x30, [sp], #48
    6580:	d65f03c0 	ret
    6584:	f9400263 	ldr	x3, [x19]
    6588:	aa1403e1 	mov	x1, x20
    658c:	aa1603e2 	mov	x2, x22
    6590:	aa1303e0 	mov	x0, x19
    6594:	f9401463 	ldr	x3, [x3, #40]
    6598:	d63f0060 	blr	x3
    659c:	53001c01 	uxtb	w1, w0
    65a0:	2a0103e0 	mov	w0, w1
    65a4:	a94153f3 	ldp	x19, x20, [sp, #16]
    65a8:	a9425bf5 	ldp	x21, x22, [sp, #32]
    65ac:	a8c37bfd 	ldp	x29, x30, [sp], #48
    65b0:	d65f03c0 	ret
    65b4:	52800021 	mov	w1, #0x1                   	// #1
    65b8:	2a0103e0 	mov	w0, w1
    65bc:	a94153f3 	ldp	x19, x20, [sp, #16]
    65c0:	a9425bf5 	ldp	x21, x22, [sp, #32]
    65c4:	a8c37bfd 	ldp	x29, x30, [sp], #48
    65c8:	d65f03c0 	ret

00000000000065cc <_ZNK10__cxxabiv117__class_type_info12__do_dyncastElNS0_10__sub_kindEPKS0_PKvS3_S5_RNS0_16__dyncast_resultE@@Base>:
    65cc:	a9bc7bfd 	stp	x29, x30, [sp, #-64]!
    65d0:	eb06009f 	cmp	x4, x6
    65d4:	910003fd 	mov	x29, sp
    65d8:	f9000bf3 	str	x19, [sp, #16]
    65dc:	f9400413 	ldr	x19, [x0, #8]
    65e0:	54000280 	b.eq	6630 <_ZNK10__cxxabiv117__class_type_info12__do_dyncastElNS0_10__sub_kindEPKS0_PKvS3_S5_RNS0_16__dyncast_resultE@@Base+0x64>  // b.none
    65e4:	f9400461 	ldr	x1, [x3, #8]
    65e8:	eb01027f 	cmp	x19, x1
    65ec:	540004a0 	b.eq	6680 <_ZNK10__cxxabiv117__class_type_info12__do_dyncastElNS0_10__sub_kindEPKS0_PKvS3_S5_RNS0_16__dyncast_resultE@@Base+0xb4>  // b.none
    65f0:	39400260 	ldrb	w0, [x19]
    65f4:	7100a81f 	cmp	w0, #0x2a
    65f8:	54000140 	b.eq	6620 <_ZNK10__cxxabiv117__class_type_info12__do_dyncastElNS0_10__sub_kindEPKS0_PKvS3_S5_RNS0_16__dyncast_resultE@@Base+0x54>  // b.none
    65fc:	aa1303e0 	mov	x0, x19
    6600:	f90017a7 	str	x7, [x29, #40]
    6604:	f9001ba4 	str	x4, [x29, #48]
    6608:	f9001fa2 	str	x2, [x29, #56]
    660c:	97fff905 	bl	4a20 <strcmp@plt>
    6610:	f9401fa2 	ldr	x2, [x29, #56]
    6614:	f9401ba4 	ldr	x4, [x29, #48]
    6618:	f94017a7 	ldr	x7, [x29, #40]
    661c:	34000320 	cbz	w0, 6680 <_ZNK10__cxxabiv117__class_type_info12__do_dyncastElNS0_10__sub_kindEPKS0_PKvS3_S5_RNS0_16__dyncast_resultE@@Base+0xb4>
    6620:	f9400bf3 	ldr	x19, [sp, #16]
    6624:	52800000 	mov	w0, #0x0                   	// #0
    6628:	a8c47bfd 	ldp	x29, x30, [sp], #64
    662c:	d65f03c0 	ret
    6630:	f94004a1 	ldr	x1, [x5, #8]
    6634:	eb01027f 	cmp	x19, x1
    6638:	54000340 	b.eq	66a0 <_ZNK10__cxxabiv117__class_type_info12__do_dyncastElNS0_10__sub_kindEPKS0_PKvS3_S5_RNS0_16__dyncast_resultE@@Base+0xd4>  // b.none
    663c:	39400260 	ldrb	w0, [x19]
    6640:	7100a81f 	cmp	w0, #0x2a
    6644:	54000380 	b.eq	66b4 <_ZNK10__cxxabiv117__class_type_info12__do_dyncastElNS0_10__sub_kindEPKS0_PKvS3_S5_RNS0_16__dyncast_resultE@@Base+0xe8>  // b.none
    6648:	aa1303e0 	mov	x0, x19
    664c:	f90013a7 	str	x7, [x29, #32]
    6650:	f90017a4 	str	x4, [x29, #40]
    6654:	f9001ba3 	str	x3, [x29, #48]
    6658:	f9001fa2 	str	x2, [x29, #56]
    665c:	97fff8f1 	bl	4a20 <strcmp@plt>
    6660:	f9401fa2 	ldr	x2, [x29, #56]
    6664:	f9401ba3 	ldr	x3, [x29, #48]
    6668:	f94017a4 	ldr	x4, [x29, #40]
    666c:	f94013a7 	ldr	x7, [x29, #32]
    6670:	34000180 	cbz	w0, 66a0 <_ZNK10__cxxabiv117__class_type_info12__do_dyncastElNS0_10__sub_kindEPKS0_PKvS3_S5_RNS0_16__dyncast_resultE@@Base+0xd4>
    6674:	f9400461 	ldr	x1, [x3, #8]
    6678:	eb01027f 	cmp	x19, x1
    667c:	54fffc01 	b.ne	65fc <_ZNK10__cxxabiv117__class_type_info12__do_dyncastElNS0_10__sub_kindEPKS0_PKvS3_S5_RNS0_16__dyncast_resultE@@Base+0x30>  // b.any
    6680:	f90000e4 	str	x4, [x7]
    6684:	52800020 	mov	w0, #0x1                   	// #1
    6688:	b90008e2 	str	w2, [x7, #8]
    668c:	b90010e0 	str	w0, [x7, #16]
    6690:	52800000 	mov	w0, #0x0                   	// #0
    6694:	f9400bf3 	ldr	x19, [sp, #16]
    6698:	a8c47bfd 	ldp	x29, x30, [sp], #64
    669c:	d65f03c0 	ret
    66a0:	b9000ce2 	str	w2, [x7, #12]
    66a4:	52800000 	mov	w0, #0x0                   	// #0
    66a8:	f9400bf3 	ldr	x19, [sp, #16]
    66ac:	a8c47bfd 	ldp	x29, x30, [sp], #64
    66b0:	d65f03c0 	ret
    66b4:	f9400460 	ldr	x0, [x3, #8]
    66b8:	eb00027f 	cmp	x19, x0
    66bc:	54fffb21 	b.ne	6620 <_ZNK10__cxxabiv117__class_type_info12__do_dyncastElNS0_10__sub_kindEPKS0_PKvS3_S5_RNS0_16__dyncast_resultE@@Base+0x54>  // b.any
    66c0:	17fffff0 	b	6680 <_ZNK10__cxxabiv117__class_type_info12__do_dyncastElNS0_10__sub_kindEPKS0_PKvS3_S5_RNS0_16__dyncast_resultE@@Base+0xb4>
    66c4:	a9be7bfd 	stp	x29, x30, [sp, #-32]!
    66c8:	910003fd 	mov	x29, sp
    66cc:	f9000bf3 	str	x19, [sp, #16]
    66d0:	aa0003f3 	mov	x19, x0
    66d4:	b4000140 	cbz	x0, 66fc <_ZNK10__cxxabiv117__class_type_info12__do_dyncastElNS0_10__sub_kindEPKS0_PKvS3_S5_RNS0_16__dyncast_resultE@@Base+0x130>
    66d8:	9400000e 	bl	6710 <__cxa_begin_catch@@Base>
    66dc:	d29aa000 	mov	x0, #0xd500                	// #54528
    66e0:	f9400261 	ldr	x1, [x19]
    66e4:	f2b79a80 	movk	x0, #0xbcd4, lsl #16
    66e8:	f2d55780 	movk	x0, #0xaabc, lsl #32
    66ec:	f2f71620 	movk	x0, #0xb8b1, lsl #48
    66f0:	8b000020 	add	x0, x1, x0
    66f4:	f100041f 	cmp	x0, #0x1
    66f8:	54000049 	b.ls	6700 <_ZNK10__cxxabiv117__class_type_info12__do_dyncastElNS0_10__sub_kindEPKS0_PKvS3_S5_RNS0_16__dyncast_resultE@@Base+0x134>  // b.plast
    66fc:	97fffdfa 	bl	5ee4 <_ZSt9terminatev@@Base>
    6700:	f85c8260 	ldur	x0, [x19, #-56]
    6704:	97fffdde 	bl	5e7c <_ZN10__cxxabiv111__terminateEPFvvE@@Base>

0000000000006708 <__cxa_get_exception_ptr@@Base>:
    6708:	f85f8000 	ldur	x0, [x0, #-8]
    670c:	d65f03c0 	ret

0000000000006710 <__cxa_begin_catch@@Base>:
    6710:	a9be7bfd 	stp	x29, x30, [sp, #-32]!
    6714:	910003fd 	mov	x29, sp
    6718:	f9000bf3 	str	x19, [sp, #16]
    671c:	aa0003f3 	mov	x19, x0
    6720:	9400007f 	bl	691c <__cxa_get_globals@@Base>
    6724:	f9400003 	ldr	x3, [x0]
    6728:	aa1303e2 	mov	x2, x19
    672c:	d29aa001 	mov	x1, #0xd500                	// #54528
    6730:	f2b79a81 	movk	x1, #0xbcd4, lsl #16
    6734:	f2d55781 	movk	x1, #0xaabc, lsl #32
    6738:	f85b0444 	ldr	x4, [x2], #-80
    673c:	f2f71621 	movk	x1, #0xb8b1, lsl #48
    6740:	8b010081 	add	x1, x4, x1
    6744:	f100043f 	cmp	x1, #0x1
    6748:	540000e9 	b.ls	6764 <__cxa_begin_catch@@Base+0x54>  // b.plast
    674c:	b5000303 	cbnz	x3, 67ac <__cxa_begin_catch@@Base+0x9c>
    6750:	f9000002 	str	x2, [x0]
    6754:	d2800000 	mov	x0, #0x0                   	// #0
    6758:	f9400bf3 	ldr	x19, [sp, #16]
    675c:	a8c27bfd 	ldp	x29, x30, [sp], #32
    6760:	d65f03c0 	ret
    6764:	b85d8261 	ldur	w1, [x19, #-40]
    6768:	11000424 	add	w4, w1, #0x1
    676c:	37f801a1 	tbnz	w1, #31, 67a0 <__cxa_begin_catch@@Base+0x90>
    6770:	b9400801 	ldr	w1, [x0, #8]
    6774:	eb02007f 	cmp	x3, x2
    6778:	b81d8264 	stur	w4, [x19, #-40]
    677c:	51000421 	sub	w1, w1, #0x1
    6780:	b9000801 	str	w1, [x0, #8]
    6784:	54000060 	b.eq	6790 <__cxa_begin_catch@@Base+0x80>  // b.none
    6788:	f81d0263 	stur	x3, [x19, #-48]
    678c:	f9000002 	str	x2, [x0]
    6790:	f85f8260 	ldur	x0, [x19, #-8]
    6794:	f9400bf3 	ldr	x19, [sp, #16]
    6798:	a8c27bfd 	ldp	x29, x30, [sp], #32
    679c:	d65f03c0 	ret
    67a0:	52800024 	mov	w4, #0x1                   	// #1
    67a4:	4b010084 	sub	w4, w4, w1
    67a8:	17fffff2 	b	6770 <__cxa_begin_catch@@Base+0x60>
    67ac:	97fffdce 	bl	5ee4 <_ZSt9terminatev@@Base>

00000000000067b0 <__cxa_end_catch@@Base>:
    67b0:	a9bf7bfd 	stp	x29, x30, [sp, #-16]!
    67b4:	910003fd 	mov	x29, sp
    67b8:	94000047 	bl	68d4 <__cxa_get_globals_fast@@Base>
    67bc:	aa0003e2 	mov	x2, x0
    67c0:	f9400000 	ldr	x0, [x0]
    67c4:	b4000200 	cbz	x0, 6804 <__cxa_end_catch@@Base+0x54>
    67c8:	d29aa001 	mov	x1, #0xd500                	// #54528
    67cc:	f9402803 	ldr	x3, [x0, #80]
    67d0:	f2b79a81 	movk	x1, #0xbcd4, lsl #16
    67d4:	f2d55781 	movk	x1, #0xaabc, lsl #32
    67d8:	f2f71621 	movk	x1, #0xb8b1, lsl #48
    67dc:	8b010061 	add	x1, x3, x1
    67e0:	f100043f 	cmp	x1, #0x1
    67e4:	54000148 	b.hi	680c <__cxa_end_catch@@Base+0x5c>  // b.pmore
    67e8:	b9402801 	ldr	w1, [x0, #40]
    67ec:	37f80181 	tbnz	w1, #31, 681c <__cxa_end_catch@@Base+0x6c>
    67f0:	71000421 	subs	w1, w1, #0x1
    67f4:	54000200 	b.eq	6834 <__cxa_end_catch@@Base+0x84>  // b.none
    67f8:	3100043f 	cmn	w1, #0x1
    67fc:	54000260 	b.eq	6848 <__cxa_end_catch@@Base+0x98>  // b.none
    6800:	b9002801 	str	w1, [x0, #40]
    6804:	a8c17bfd 	ldp	x29, x30, [sp], #16
    6808:	d65f03c0 	ret
    680c:	f900005f 	str	xzr, [x2]
    6810:	91014000 	add	x0, x0, #0x50
    6814:	a8c17bfd 	ldp	x29, x30, [sp], #16
    6818:	14003f16 	b	16470 <_Unwind_DeleteException@@Base>
    681c:	31000421 	adds	w1, w1, #0x1
    6820:	54ffff01 	b.ne	6800 <__cxa_end_catch@@Base+0x50>  // b.any
    6824:	f9401003 	ldr	x3, [x0, #32]
    6828:	f9000043 	str	x3, [x2]
    682c:	b9002801 	str	w1, [x0, #40]
    6830:	17fffff5 	b	6804 <__cxa_end_catch@@Base+0x54>
    6834:	f9401001 	ldr	x1, [x0, #32]
    6838:	91014000 	add	x0, x0, #0x50
    683c:	f9000041 	str	x1, [x2]
    6840:	a8c17bfd 	ldp	x29, x30, [sp], #16
    6844:	14003f0b 	b	16470 <_Unwind_DeleteException@@Base>
    6848:	97fffda7 	bl	5ee4 <_ZSt9terminatev@@Base>

000000000000684c <_ZSt18uncaught_exceptionv@@Base>:
    684c:	a9bf7bfd 	stp	x29, x30, [sp, #-16]!
    6850:	910003fd 	mov	x29, sp
    6854:	94000032 	bl	691c <__cxa_get_globals@@Base>
    6858:	b9400800 	ldr	w0, [x0, #8]
    685c:	a8c17bfd 	ldp	x29, x30, [sp], #16
    6860:	6b1f001f 	cmp	w0, wzr
    6864:	1a9f07e0 	cset	w0, ne	// ne = any
    6868:	d65f03c0 	ret
    686c:	b40000c0 	cbz	x0, 6884 <_ZSt18uncaught_exceptionv@@Base+0x38>
    6870:	39401001 	ldrb	w1, [x0, #4]
    6874:	35000041 	cbnz	w1, 687c <_ZSt18uncaught_exceptionv@@Base+0x30>
    6878:	d65f03c0 	ret
    687c:	b9400000 	ldr	w0, [x0]
    6880:	17fff864 	b	4a10 <pthread_key_delete@plt>
    6884:	d4207d00 	brk	#0x3e8
    6888:	a9be7bfd 	stp	x29, x30, [sp, #-32]!
    688c:	910003fd 	mov	x29, sp
    6890:	a90153f3 	stp	x19, x20, [sp, #16]
    6894:	b40001a0 	cbz	x0, 68c8 <_ZSt18uncaught_exceptionv@@Base+0x7c>
    6898:	aa0003f4 	mov	x20, x0
    689c:	f9400000 	ldr	x0, [x0]
    68a0:	b40000c0 	cbz	x0, 68b8 <_ZSt18uncaught_exceptionv@@Base+0x6c>
    68a4:	f9401013 	ldr	x19, [x0, #32]
    68a8:	91014000 	add	x0, x0, #0x50
    68ac:	94003ef1 	bl	16470 <_Unwind_DeleteException@@Base>
    68b0:	aa1303e0 	mov	x0, x19
    68b4:	b5ffff93 	cbnz	x19, 68a4 <_ZSt18uncaught_exceptionv@@Base+0x58>
    68b8:	aa1403e0 	mov	x0, x20
    68bc:	a94153f3 	ldp	x19, x20, [sp, #16]
    68c0:	a8c27bfd 	ldp	x29, x30, [sp], #32
    68c4:	17fff84b 	b	49f0 <free@plt>
    68c8:	a94153f3 	ldp	x19, x20, [sp, #16]
    68cc:	a8c27bfd 	ldp	x29, x30, [sp], #32
    68d0:	d65f03c0 	ret

00000000000068d4 <__cxa_get_globals_fast@@Base>:
    68d4:	b00001c0 	adrp	x0, 3f000 <__bss_start@@Base+0x10fd0>
    68d8:	91320001 	add	x1, x0, #0xc80
    68dc:	a9bf7bfd 	stp	x29, x30, [sp, #-16]!
    68e0:	910003fd 	mov	x29, sp
    68e4:	39401021 	ldrb	w1, [x1, #4]
    68e8:	350000a1 	cbnz	w1, 68fc <__cxa_get_globals_fast@@Base+0x28>
    68ec:	b00001c0 	adrp	x0, 3f000 <__bss_start@@Base+0x10fd0>
    68f0:	91322000 	add	x0, x0, #0xc88
    68f4:	a8c17bfd 	ldp	x29, x30, [sp], #16
    68f8:	d65f03c0 	ret
    68fc:	b94c8000 	ldr	w0, [x0, #3200]
    6900:	97fff888 	bl	4b20 <pthread_getspecific@plt>
    6904:	a8c17bfd 	ldp	x29, x30, [sp], #16
    6908:	d65f03c0 	ret
    690c:	b100043f 	cmn	x1, #0x1
    6910:	54000040 	b.eq	6918 <__cxa_get_globals_fast@@Base+0x44>  // b.none
    6914:	94003e5a 	bl	1627c <_Unwind_Resume@@Base>
    6918:	97fffd1d 	bl	5d8c <__cxa_call_unexpected@@Base>

000000000000691c <__cxa_get_globals@@Base>:
    691c:	a9be7bfd 	stp	x29, x30, [sp, #-32]!
    6920:	910003fd 	mov	x29, sp
    6924:	a90153f3 	stp	x19, x20, [sp, #16]
    6928:	b00001d4 	adrp	x20, 3f000 <__bss_start@@Base+0x10fd0>
    692c:	91320280 	add	x0, x20, #0xc80
    6930:	39401000 	ldrb	w0, [x0, #4]
    6934:	350000e0 	cbnz	w0, 6950 <__cxa_get_globals@@Base+0x34>
    6938:	b00001d3 	adrp	x19, 3f000 <__bss_start@@Base+0x10fd0>
    693c:	91322273 	add	x19, x19, #0xc88
    6940:	aa1303e0 	mov	x0, x19
    6944:	a94153f3 	ldp	x19, x20, [sp, #16]
    6948:	a8c27bfd 	ldp	x29, x30, [sp], #32
    694c:	d65f03c0 	ret
    6950:	b94c8280 	ldr	w0, [x20, #3200]
    6954:	97fff873 	bl	4b20 <pthread_getspecific@plt>
    6958:	aa0003f3 	mov	x19, x0
    695c:	b5ffff20 	cbnz	x0, 6940 <__cxa_get_globals@@Base+0x24>
    6960:	d2800200 	mov	x0, #0x10                  	// #16
    6964:	97fff833 	bl	4a30 <malloc@plt>
    6968:	aa0003f3 	mov	x19, x0
    696c:	b40000a0 	cbz	x0, 6980 <__cxa_get_globals@@Base+0x64>
    6970:	b94c8280 	ldr	w0, [x20, #3200]
    6974:	aa1303e1 	mov	x1, x19
    6978:	97fff836 	bl	4a50 <pthread_setspecific@plt>
    697c:	34000040 	cbz	w0, 6984 <__cxa_get_globals@@Base+0x68>
    6980:	97fffd59 	bl	5ee4 <_ZSt9terminatev@@Base>
    6984:	f900027f 	str	xzr, [x19]
    6988:	b9000a7f 	str	wzr, [x19, #8]
    698c:	17ffffed 	b	6940 <__cxa_get_globals@@Base+0x24>
    6990:	b100043f 	cmn	x1, #0x1
    6994:	54000040 	b.eq	699c <__cxa_get_globals@@Base+0x80>  // b.none
    6998:	94003e39 	bl	1627c <_Unwind_Resume@@Base>
    699c:	97fffcfc 	bl	5d8c <__cxa_call_unexpected@@Base>

00000000000069a0 <_ZN9__gnu_cxx27__verbose_terminate_handlerEv@@Base>:
    69a0:	b00001c0 	adrp	x0, 3f000 <__bss_start@@Base+0x10fd0>
    69a4:	a9bb7bfd 	stp	x29, x30, [sp, #-80]!
    69a8:	910003fd 	mov	x29, sp
    69ac:	39726001 	ldrb	w1, [x0, #3224]
    69b0:	a90153f3 	stp	x19, x20, [sp, #16]
    69b4:	a9025bf5 	stp	x21, x22, [sp, #32]
    69b8:	350005a1 	cbnz	w1, 6a6c <_ZN9__gnu_cxx27__verbose_terminate_handlerEv@@Base+0xcc>
    69bc:	52800021 	mov	w1, #0x1                   	// #1
    69c0:	39326001 	strb	w1, [x0, #3224]
    69c4:	94003706 	bl	145dc <__cxa_current_exception_type@@Base>
    69c8:	b40009c0 	cbz	x0, 6b00 <_ZN9__gnu_cxx27__verbose_terminate_handlerEv@@Base+0x160>
    69cc:	f9400400 	ldr	x0, [x0, #8]
    69d0:	910143a3 	add	x3, x29, #0x50
    69d4:	f0000135 	adrp	x21, 2d000 <__FINI_ARRAY__@@Base+0x360>
    69d8:	12800005 	mov	w5, #0xffffffff            	// #-1
    69dc:	d2800001 	mov	x1, #0x0                   	// #0
    69e0:	d2800002 	mov	x2, #0x0                   	// #0
    69e4:	39400004 	ldrb	w4, [x0]
    69e8:	b81fcc65 	str	w5, [x3, #-4]!
    69ec:	7100a89f 	cmp	w4, #0x2a
    69f0:	9a801413 	cinc	x19, x0, eq	// eq = none
    69f4:	aa1303e0 	mov	x0, x19
    69f8:	94003696 	bl	14450 <__cxa_demangle@@Base>
    69fc:	f947c2b4 	ldr	x20, [x21, #3968]
    6a00:	aa0003f6 	mov	x22, x0
    6a04:	d0000080 	adrp	x0, 18000 <_ZTSN10__cxxabiv117__class_type_infoE@@Base>
    6a08:	9104c294 	add	x20, x20, #0x130
    6a0c:	91014000 	add	x0, x0, #0x50
    6a10:	d2800021 	mov	x1, #0x1                   	// #1
    6a14:	d2800602 	mov	x2, #0x30                  	// #48
    6a18:	aa1403e3 	mov	x3, x20
    6a1c:	97fff835 	bl	4af0 <fwrite@plt>
    6a20:	b9404fa0 	ldr	w0, [x29, #76]
    6a24:	340001c0 	cbz	w0, 6a5c <_ZN9__gnu_cxx27__verbose_terminate_handlerEv@@Base+0xbc>
    6a28:	aa1303e0 	mov	x0, x19
    6a2c:	aa1403e1 	mov	x1, x20
    6a30:	97fff864 	bl	4bc0 <fputs@plt>
    6a34:	f947c2a3 	ldr	x3, [x21, #3968]
    6a38:	d0000080 	adrp	x0, 18000 <_ZTSN10__cxxabiv117__class_type_infoE@@Base>
    6a3c:	91022000 	add	x0, x0, #0x88
    6a40:	d2800021 	mov	x1, #0x1                   	// #1
    6a44:	d2800042 	mov	x2, #0x2                   	// #2
    6a48:	9104c063 	add	x3, x3, #0x130
    6a4c:	97fff829 	bl	4af0 <fwrite@plt>
    6a50:	b9404fa0 	ldr	w0, [x29, #76]
    6a54:	340001e0 	cbz	w0, 6a90 <_ZN9__gnu_cxx27__verbose_terminate_handlerEv@@Base+0xf0>
    6a58:	97fffd76 	bl	6030 <__cxa_rethrow@@Base>
    6a5c:	aa1603e0 	mov	x0, x22
    6a60:	aa1403e1 	mov	x1, x20
    6a64:	97fff857 	bl	4bc0 <fputs@plt>
    6a68:	17fffff3 	b	6a34 <_ZN9__gnu_cxx27__verbose_terminate_handlerEv@@Base+0x94>
    6a6c:	d0000080 	adrp	x0, 18000 <_ZTSN10__cxxabiv117__class_type_infoE@@Base>
    6a70:	d2800021 	mov	x1, #0x1                   	// #1
    6a74:	d28003a2 	mov	x2, #0x1d                  	// #29
    6a78:	9100c000 	add	x0, x0, #0x30
    6a7c:	f0000123 	adrp	x3, 2d000 <__FINI_ARRAY__@@Base+0x360>
    6a80:	f947c063 	ldr	x3, [x3, #3968]
    6a84:	9104c063 	add	x3, x3, #0x130
    6a88:	97fff81a 	bl	4af0 <fwrite@plt>
    6a8c:	97fff829 	bl	4b30 <abort@plt>
    6a90:	aa1603e0 	mov	x0, x22
    6a94:	97fff7d7 	bl	49f0 <free@plt>
    6a98:	97fffd66 	bl	6030 <__cxa_rethrow@@Base>
    6a9c:	f100043f 	cmp	x1, #0x1
    6aa0:	54000421 	b.ne	6b24 <_ZN9__gnu_cxx27__verbose_terminate_handlerEv@@Base+0x184>  // b.any
    6aa4:	f9001fa1 	str	x1, [x29, #56]
    6aa8:	97ffff1a 	bl	6710 <__cxa_begin_catch@@Base>
    6aac:	f9400002 	ldr	x2, [x0]
    6ab0:	f9400842 	ldr	x2, [x2, #16]
    6ab4:	d63f0040 	blr	x2
    6ab8:	aa0003f3 	mov	x19, x0
    6abc:	f947c2a3 	ldr	x3, [x21, #3968]
    6ac0:	d0000080 	adrp	x0, 18000 <_ZTSN10__cxxabiv117__class_type_infoE@@Base>
    6ac4:	f9401fa1 	ldr	x1, [x29, #56]
    6ac8:	91030000 	add	x0, x0, #0xc0
    6acc:	d2800162 	mov	x2, #0xb                   	// #11
    6ad0:	9104c063 	add	x3, x3, #0x130
    6ad4:	97fff807 	bl	4af0 <fwrite@plt>
    6ad8:	f947c2a1 	ldr	x1, [x21, #3968]
    6adc:	aa1303e0 	mov	x0, x19
    6ae0:	9104c021 	add	x1, x1, #0x130
    6ae4:	97fff837 	bl	4bc0 <fputs@plt>
    6ae8:	f947c2a1 	ldr	x1, [x21, #3968]
    6aec:	52800140 	mov	w0, #0xa                   	// #10
    6af0:	9104c021 	add	x1, x1, #0x130
    6af4:	97fff7f3 	bl	4ac0 <fputc@plt>
    6af8:	97ffff2e 	bl	67b0 <__cxa_end_catch@@Base>
    6afc:	97fff80d 	bl	4b30 <abort@plt>
    6b00:	d0000080 	adrp	x0, 18000 <_ZTSN10__cxxabiv117__class_type_infoE@@Base>
    6b04:	d2800021 	mov	x1, #0x1                   	// #1
    6b08:	91024000 	add	x0, x0, #0x90
    6b0c:	d28005a2 	mov	x2, #0x2d                  	// #45
    6b10:	17ffffdb 	b	6a7c <_ZN9__gnu_cxx27__verbose_terminate_handlerEv@@Base+0xdc>
    6b14:	f9001fa0 	str	x0, [x29, #56]
    6b18:	97ffff26 	bl	67b0 <__cxa_end_catch@@Base>
    6b1c:	f9401fa0 	ldr	x0, [x29, #56]
    6b20:	94003dd7 	bl	1627c <_Unwind_Resume@@Base>
    6b24:	97fffefb 	bl	6710 <__cxa_begin_catch@@Base>
    6b28:	97ffff22 	bl	67b0 <__cxa_end_catch@@Base>
    6b2c:	97fff801 	bl	4b30 <abort@plt>
    6b30:	51000424 	sub	w4, w1, #0x1
    6b34:	71012c9f 	cmp	w4, #0x4b
    6b38:	54000089 	b.ls	6b48 <_ZN9__gnu_cxx27__verbose_terminate_handlerEv@@Base+0x1a8>  // b.plast
    6b3c:	d2800006 	mov	x6, #0x0                   	// #0
    6b40:	aa0603e0 	mov	x0, x6
    6b44:	d65f03c0 	ret
    6b48:	d0000085 	adrp	x5, 18000 <_ZTSN10__cxxabiv117__class_type_infoE@@Base>
    6b4c:	910330a5 	add	x5, x5, #0xcc
    6b50:	386448a4 	ldrb	w4, [x5, w4, uxtw]
    6b54:	10000065 	adr	x5, 6b60 <_ZN9__gnu_cxx27__verbose_terminate_handlerEv@@Base+0x1c0>
    6b58:	8b2488a4 	add	x4, x5, w4, sxtb #2
    6b5c:	d61f0080 	br	x4
    6b60:	b4fffee2 	cbz	x2, 6b3c <_ZN9__gnu_cxx27__verbose_terminate_handlerEv@@Base+0x19c>
    6b64:	b9402804 	ldr	w4, [x0, #40]
    6b68:	d2800006 	mov	x6, #0x0                   	// #0
    6b6c:	b9402c05 	ldr	w5, [x0, #44]
    6b70:	6b05009f 	cmp	w4, w5
    6b74:	54fffe6a 	b.ge	6b40 <_ZN9__gnu_cxx27__verbose_terminate_handlerEv@@Base+0x1a0>  // b.tcont
    6b78:	93407c85 	sxtw	x5, w4
    6b7c:	f9401007 	ldr	x7, [x0, #32]
    6b80:	d37be8a8 	lsl	x8, x5, #5
    6b84:	11000484 	add	w4, w4, #0x1
    6b88:	cb050d05 	sub	x5, x8, x5, lsl #3
    6b8c:	b9002804 	str	w4, [x0, #40]
    6b90:	ab0500e0 	adds	x0, x7, x5
    6b94:	54fffd60 	b.eq	6b40 <_ZN9__gnu_cxx27__verbose_terminate_handlerEv@@Base+0x1a0>  // b.none
    6b98:	b82568e1 	str	w1, [x7, x5]
    6b9c:	aa0003e6 	mov	x6, x0
    6ba0:	f9000402 	str	x2, [x0, #8]
    6ba4:	f9000803 	str	x3, [x0, #16]
    6ba8:	aa0603e0 	mov	x0, x6
    6bac:	d65f03c0 	ret
    6bb0:	b4fffc62 	cbz	x2, 6b3c <_ZN9__gnu_cxx27__verbose_terminate_handlerEv@@Base+0x19c>
    6bb4:	b4fffc43 	cbz	x3, 6b3c <_ZN9__gnu_cxx27__verbose_terminate_handlerEv@@Base+0x19c>
    6bb8:	b9402804 	ldr	w4, [x0, #40]
    6bbc:	d2800006 	mov	x6, #0x0                   	// #0
    6bc0:	b9402c05 	ldr	w5, [x0, #44]
    6bc4:	6b05009f 	cmp	w4, w5
    6bc8:	54fffbca 	b.ge	6b40 <_ZN9__gnu_cxx27__verbose_terminate_handlerEv@@Base+0x1a0>  // b.tcont
    6bcc:	17ffffeb 	b	6b78 <_ZN9__gnu_cxx27__verbose_terminate_handlerEv@@Base+0x1d8>
    6bd0:	b9402803 	ldr	w3, [x0, #40]
    6bd4:	b9402c04 	ldr	w4, [x0, #44]
    6bd8:	6b04007f 	cmp	w3, w4
    6bdc:	5400026a 	b.ge	6c28 <_ZN9__gnu_cxx27__verbose_terminate_handlerEv@@Base+0x288>  // b.tcont
    6be0:	93407c64 	sxtw	x4, w3
    6be4:	f9401005 	ldr	x5, [x0, #32]
    6be8:	d37be886 	lsl	x6, x4, #5
    6bec:	11000463 	add	w3, w3, #0x1
    6bf0:	cb040cc4 	sub	x4, x6, x4, lsl #3
    6bf4:	b9002803 	str	w3, [x0, #40]
    6bf8:	ab0400a3 	adds	x3, x5, x4
    6bfc:	1a9f17e6 	cset	w6, eq	// eq = none
    6c00:	eb1f003f 	cmp	x1, xzr
    6c04:	1a9f17e0 	cset	w0, eq	// eq = none
    6c08:	2a0000c0 	orr	w0, w6, w0
    6c0c:	350000e0 	cbnz	w0, 6c28 <_ZN9__gnu_cxx27__verbose_terminate_handlerEv@@Base+0x288>
    6c10:	340000c2 	cbz	w2, 6c28 <_ZN9__gnu_cxx27__verbose_terminate_handlerEv@@Base+0x288>
    6c14:	b82468bf 	str	wzr, [x5, x4]
    6c18:	aa0303e0 	mov	x0, x3
    6c1c:	f9000461 	str	x1, [x3, #8]
    6c20:	b9001062 	str	w2, [x3, #16]
    6c24:	d65f03c0 	ret
    6c28:	d2800000 	mov	x0, #0x0                   	// #0
    6c2c:	d65f03c0 	ret
    6c30:	a9ba7bfd 	stp	x29, x30, [sp, #-96]!
    6c34:	910003fd 	mov	x29, sp
    6c38:	a9025bf5 	stp	x21, x22, [sp, #32]
    6c3c:	a90573fb 	stp	x27, x28, [sp, #80]
    6c40:	aa0103f5 	mov	x21, x1
    6c44:	aa0103fc 	mov	x28, x1
    6c48:	f9400c01 	ldr	x1, [x0, #24]
    6c4c:	52800376 	mov	w22, #0x1b                  	// #27
    6c50:	a90153f3 	stp	x19, x20, [sp, #16]
    6c54:	a90363f7 	stp	x23, x24, [sp, #48]
    6c58:	a9046bf9 	stp	x25, x26, [sp, #64]
    6c5c:	2a0203f4 	mov	w20, w2
    6c60:	aa0003f3 	mov	x19, x0
    6c64:	528003d7 	mov	w23, #0x1e                  	// #30
    6c68:	528003bb 	mov	w27, #0x1d                  	// #29
    6c6c:	5280035a 	mov	w26, #0x1a                  	// #26
    6c70:	52800399 	mov	w25, #0x1c                  	// #28
    6c74:	52800338 	mov	w24, #0x19                  	// #25
    6c78:	39400022 	ldrb	w2, [x1]
    6c7c:	14000014 	b	6ccc <_ZN9__gnu_cxx27__verbose_terminate_handlerEv@@Base+0x32c>
    6c80:	35000300 	cbnz	w0, 6ce0 <_ZN9__gnu_cxx27__verbose_terminate_handlerEv@@Base+0x340>
    6c84:	71012c5f 	cmp	w2, #0x4b
    6c88:	54000661 	b.ne	6d54 <_ZN9__gnu_cxx27__verbose_terminate_handlerEv@@Base+0x3b4>  // b.any
    6c8c:	91000421 	add	x1, x1, #0x1
    6c90:	f9000e61 	str	x1, [x19, #24]
    6c94:	b9405260 	ldr	w0, [x19, #80]
    6c98:	6b1f029f 	cmp	w20, wzr
    6c9c:	1a9612e1 	csel	w1, w23, w22, ne	// ne = any
    6ca0:	11001800 	add	w0, w0, #0x6
    6ca4:	b9005260 	str	w0, [x19, #80]
    6ca8:	aa1303e0 	mov	x0, x19
    6cac:	d2800002 	mov	x2, #0x0                   	// #0
    6cb0:	d2800003 	mov	x3, #0x0                   	// #0
    6cb4:	97ffff9f 	bl	6b30 <_ZN9__gnu_cxx27__verbose_terminate_handlerEv@@Base+0x190>
    6cb8:	f9000380 	str	x0, [x28]
    6cbc:	b40002e0 	cbz	x0, 6d18 <_ZN9__gnu_cxx27__verbose_terminate_handlerEv@@Base+0x378>
    6cc0:	f9400e61 	ldr	x1, [x19, #24]
    6cc4:	9100201c 	add	x28, x0, #0x8
    6cc8:	39400022 	ldrb	w2, [x1]
    6ccc:	7101c85f 	cmp	w2, #0x72
    6cd0:	1a9f17e0 	cset	w0, eq	// eq = none
    6cd4:	7101585f 	cmp	w2, #0x56
    6cd8:	1a9f17e3 	cset	w3, eq	// eq = none
    6cdc:	34fffd23 	cbz	w3, 6c80 <_ZN9__gnu_cxx27__verbose_terminate_handlerEv@@Base+0x2e0>
    6ce0:	91000421 	add	x1, x1, #0x1
    6ce4:	f9000e61 	str	x1, [x19, #24]
    6ce8:	34000280 	cbz	w0, 6d38 <_ZN9__gnu_cxx27__verbose_terminate_handlerEv@@Base+0x398>
    6cec:	b9405260 	ldr	w0, [x19, #80]
    6cf0:	6b1f029f 	cmp	w20, wzr
    6cf4:	1a981321 	csel	w1, w25, w24, ne	// ne = any
    6cf8:	d2800002 	mov	x2, #0x0                   	// #0
    6cfc:	11002400 	add	w0, w0, #0x9
    6d00:	d2800003 	mov	x3, #0x0                   	// #0
    6d04:	b9005260 	str	w0, [x19, #80]
    6d08:	aa1303e0 	mov	x0, x19
    6d0c:	97ffff89 	bl	6b30 <_ZN9__gnu_cxx27__verbose_terminate_handlerEv@@Base+0x190>
    6d10:	f9000380 	str	x0, [x28]
    6d14:	b5fffd60 	cbnz	x0, 6cc0 <_ZN9__gnu_cxx27__verbose_terminate_handlerEv@@Base+0x320>
    6d18:	d2800000 	mov	x0, #0x0                   	// #0
    6d1c:	a94153f3 	ldp	x19, x20, [sp, #16]
    6d20:	a9425bf5 	ldp	x21, x22, [sp, #32]
    6d24:	a94363f7 	ldp	x23, x24, [sp, #48]
    6d28:	a9446bf9 	ldp	x25, x26, [sp, #64]
    6d2c:	a94573fb 	ldp	x27, x28, [sp, #80]
    6d30:	a8c67bfd 	ldp	x29, x30, [sp], #96
    6d34:	d65f03c0 	ret
    6d38:	34fffae3 	cbz	w3, 6c94 <_ZN9__gnu_cxx27__verbose_terminate_handlerEv@@Base+0x2f4>
    6d3c:	b9405260 	ldr	w0, [x19, #80]
    6d40:	6b1f029f 	cmp	w20, wzr
    6d44:	1a9a1361 	csel	w1, w27, w26, ne	// ne = any
    6d48:	11002400 	add	w0, w0, #0x9
    6d4c:	b9005260 	str	w0, [x19, #80]
    6d50:	17ffffd6 	b	6ca8 <_ZN9__gnu_cxx27__verbose_terminate_handlerEv@@Base+0x308>
    6d54:	35000334 	cbnz	w20, 6db8 <_ZN9__gnu_cxx27__verbose_terminate_handlerEv@@Base+0x418>
    6d58:	7101185f 	cmp	w2, #0x46
    6d5c:	540002e1 	b.ne	6db8 <_ZN9__gnu_cxx27__verbose_terminate_handlerEv@@Base+0x418>  // b.any
    6d60:	eb1c02bf 	cmp	x21, x28
    6d64:	540002a0 	b.eq	6db8 <_ZN9__gnu_cxx27__verbose_terminate_handlerEv@@Base+0x418>  // b.none
    6d68:	528003a3 	mov	w3, #0x1d                  	// #29
    6d6c:	528003c2 	mov	w2, #0x1e                  	// #30
    6d70:	52800381 	mov	w1, #0x1c                  	// #28
    6d74:	14000009 	b	6d98 <_ZN9__gnu_cxx27__verbose_terminate_handlerEv@@Base+0x3f8>
    6d78:	71006c1f 	cmp	w0, #0x1b
    6d7c:	540002e0 	b.eq	6dd8 <_ZN9__gnu_cxx27__verbose_terminate_handlerEv@@Base+0x438>  // b.none
    6d80:	7100641f 	cmp	w0, #0x19
    6d84:	54000041 	b.ne	6d8c <_ZN9__gnu_cxx27__verbose_terminate_handlerEv@@Base+0x3ec>  // b.any
    6d88:	b90002a1 	str	w1, [x21]
    6d8c:	910022b5 	add	x21, x21, #0x8
    6d90:	eb1c02bf 	cmp	x21, x28
    6d94:	54000120 	b.eq	6db8 <_ZN9__gnu_cxx27__verbose_terminate_handlerEv@@Base+0x418>  // b.none
    6d98:	f94002b5 	ldr	x21, [x21]
    6d9c:	b94002a0 	ldr	w0, [x21]
    6da0:	7100681f 	cmp	w0, #0x1a
    6da4:	54fffea1 	b.ne	6d78 <_ZN9__gnu_cxx27__verbose_terminate_handlerEv@@Base+0x3d8>  // b.any
    6da8:	b90002a3 	str	w3, [x21]
    6dac:	910022b5 	add	x21, x21, #0x8
    6db0:	eb1c02bf 	cmp	x21, x28
    6db4:	54ffff21 	b.ne	6d98 <_ZN9__gnu_cxx27__verbose_terminate_handlerEv@@Base+0x3f8>  // b.any
    6db8:	aa1c03e0 	mov	x0, x28
    6dbc:	a94153f3 	ldp	x19, x20, [sp, #16]
    6dc0:	a9425bf5 	ldp	x21, x22, [sp, #32]
    6dc4:	a94363f7 	ldp	x23, x24, [sp, #48]
    6dc8:	a9446bf9 	ldp	x25, x26, [sp, #64]
    6dcc:	a94573fb 	ldp	x27, x28, [sp, #80]
    6dd0:	a8c67bfd 	ldp	x29, x30, [sp], #96
    6dd4:	d65f03c0 	ret
    6dd8:	b90002a2 	str	w2, [x21]
    6ddc:	17ffffec 	b	6d8c <_ZN9__gnu_cxx27__verbose_terminate_handlerEv@@Base+0x3ec>
    6de0:	f9400c02 	ldr	x2, [x0, #24]
    6de4:	39400043 	ldrb	w3, [x2]
    6de8:	71014c7f 	cmp	w3, #0x53
    6dec:	54000080 	b.eq	6dfc <_ZN9__gnu_cxx27__verbose_terminate_handlerEv@@Base+0x45c>  // b.none
    6df0:	d2800001 	mov	x1, #0x0                   	// #0
    6df4:	aa0103e0 	mov	x0, x1
    6df8:	d65f03c0 	ret
    6dfc:	91000443 	add	x3, x2, #0x1
    6e00:	f9000c03 	str	x3, [x0, #24]
    6e04:	39400443 	ldrb	w3, [x2, #1]
    6e08:	34000503 	cbz	w3, 6ea8 <_ZN9__gnu_cxx27__verbose_terminate_handlerEv@@Base+0x508>
    6e0c:	91000843 	add	x3, x2, #0x2
    6e10:	f9000c03 	str	x3, [x0, #24]
    6e14:	39400442 	ldrb	w2, [x2, #1]
    6e18:	5100c045 	sub	w5, w2, #0x30
    6e1c:	53001ca3 	uxtb	w3, w5
    6e20:	7100247f 	cmp	w3, #0x9
    6e24:	54000069 	b.ls	6e30 <_ZN9__gnu_cxx27__verbose_terminate_handlerEv@@Base+0x490>  // b.plast
    6e28:	71017c5f 	cmp	w2, #0x5f
    6e2c:	54001301 	b.ne	708c <_ZN9__gnu_cxx27__verbose_terminate_handlerEv@@Base+0x6ec>  // b.any
    6e30:	71017c5f 	cmp	w2, #0x5f
    6e34:	54000880 	b.eq	6f44 <_ZN9__gnu_cxx27__verbose_terminate_handlerEv@@Base+0x5a4>  // b.none
    6e38:	52800003 	mov	w3, #0x0                   	// #0
    6e3c:	531b6861 	lsl	w1, w3, #5
    6e40:	53001ca5 	uxtb	w5, w5
    6e44:	51010446 	sub	w6, w2, #0x41
    6e48:	0b030821 	add	w1, w1, w3, lsl #2
    6e4c:	531b6864 	lsl	w4, w3, #5
    6e50:	710024bf 	cmp	w5, #0x9
    6e54:	0b020021 	add	w1, w1, w2
    6e58:	0b030884 	add	w4, w4, w3, lsl #2
    6e5c:	53001cc6 	uxtb	w6, w6
    6e60:	5100dc21 	sub	w1, w1, #0x37
    6e64:	0b020082 	add	w2, w4, w2
    6e68:	54000528 	b.hi	6f0c <_ZN9__gnu_cxx27__verbose_terminate_handlerEv@@Base+0x56c>  // b.pmore
    6e6c:	5100c041 	sub	w1, w2, #0x30
    6e70:	6b01007f 	cmp	w3, w1
    6e74:	52800002 	mov	w2, #0x0                   	// #0
    6e78:	2a0103e3 	mov	w3, w1
    6e7c:	54fffba8 	b.hi	6df0 <_ZN9__gnu_cxx27__verbose_terminate_handlerEv@@Base+0x450>  // b.pmore
    6e80:	f9400c04 	ldr	x4, [x0, #24]
    6e84:	91000486 	add	x6, x4, #0x1
    6e88:	39400085 	ldrb	w5, [x4]
    6e8c:	340000a5 	cbz	w5, 6ea0 <_ZN9__gnu_cxx27__verbose_terminate_handlerEv@@Base+0x500>
    6e90:	f9000c06 	str	x6, [x0, #24]
    6e94:	39400082 	ldrb	w2, [x4]
    6e98:	71017c5f 	cmp	w2, #0x5f
    6e9c:	540003e0 	b.eq	6f18 <_ZN9__gnu_cxx27__verbose_terminate_handlerEv@@Base+0x578>  // b.none
    6ea0:	5100c045 	sub	w5, w2, #0x30
    6ea4:	17ffffe6 	b	6e3c <_ZN9__gnu_cxx27__verbose_terminate_handlerEv@@Base+0x49c>
    6ea8:	52800002 	mov	w2, #0x0                   	// #0
    6eac:	b9401003 	ldr	w3, [x0, #16]
    6eb0:	6b1f003f 	cmp	w1, wzr
    6eb4:	1a9f07e4 	cset	w4, ne	// ne = any
    6eb8:	d3430c61 	ubfx	x1, x3, #3, #1
    6ebc:	6b01009f 	cmp	w4, w1
    6ec0:	54000468 	b.hi	6f4c <_ZN9__gnu_cxx27__verbose_terminate_handlerEv@@Base+0x5ac>  // b.pmore
    6ec4:	7101d05f 	cmp	w2, #0x74
    6ec8:	54000b60 	b.eq	7034 <_ZN9__gnu_cxx27__verbose_terminate_handlerEv@@Base+0x694>  // b.none
    6ecc:	7101845f 	cmp	w2, #0x61
    6ed0:	54000b80 	b.eq	7040 <_ZN9__gnu_cxx27__verbose_terminate_handlerEv@@Base+0x6a0>  // b.none
    6ed4:	7101885f 	cmp	w2, #0x62
    6ed8:	54000480 	b.eq	6f68 <_ZN9__gnu_cxx27__verbose_terminate_handlerEv@@Base+0x5c8>  // b.none
    6edc:	7101cc5f 	cmp	w2, #0x73
    6ee0:	54000c00 	b.eq	7060 <_ZN9__gnu_cxx27__verbose_terminate_handlerEv@@Base+0x6c0>  // b.none
    6ee4:	7101a45f 	cmp	w2, #0x69
    6ee8:	54000b40 	b.eq	7050 <_ZN9__gnu_cxx27__verbose_terminate_handlerEv@@Base+0x6b0>  // b.none
    6eec:	7101bc5f 	cmp	w2, #0x6f
    6ef0:	54000c60 	b.eq	707c <_ZN9__gnu_cxx27__verbose_terminate_handlerEv@@Base+0x6dc>  // b.none
    6ef4:	7101905f 	cmp	w2, #0x64
    6ef8:	54fff7c1 	b.ne	6df0 <_ZN9__gnu_cxx27__verbose_terminate_handlerEv@@Base+0x450>  // b.any
    6efc:	f0000122 	adrp	x2, 2d000 <__FINI_ARRAY__@@Base+0x360>
    6f00:	9105c042 	add	x2, x2, #0x170
    6f04:	91054042 	add	x2, x2, #0x150
    6f08:	1400001b 	b	6f74 <_ZN9__gnu_cxx27__verbose_terminate_handlerEv@@Base+0x5d4>
    6f0c:	710064df 	cmp	w6, #0x19
    6f10:	54fffb09 	b.ls	6e70 <_ZN9__gnu_cxx27__verbose_terminate_handlerEv@@Base+0x4d0>  // b.plast
    6f14:	17ffffb7 	b	6df0 <_ZN9__gnu_cxx27__verbose_terminate_handlerEv@@Base+0x450>
    6f18:	11000421 	add	w1, w1, #0x1
    6f1c:	b9403802 	ldr	w2, [x0, #56]
    6f20:	6b02003f 	cmp	w1, w2
    6f24:	54fff662 	b.cs	6df0 <_ZN9__gnu_cxx27__verbose_terminate_handlerEv@@Base+0x450>  // b.hs, b.nlast
    6f28:	f9401803 	ldr	x3, [x0, #48]
    6f2c:	b9404002 	ldr	w2, [x0, #64]
    6f30:	f8615861 	ldr	x1, [x3, w1, uxtw #3]
    6f34:	11000442 	add	w2, w2, #0x1
    6f38:	b9004002 	str	w2, [x0, #64]
    6f3c:	aa0103e0 	mov	x0, x1
    6f40:	d65f03c0 	ret
    6f44:	52800001 	mov	w1, #0x0                   	// #0
    6f48:	17fffff5 	b	6f1c <_ZN9__gnu_cxx27__verbose_terminate_handlerEv@@Base+0x57c>
    6f4c:	f9400c01 	ldr	x1, [x0, #24]
    6f50:	39400021 	ldrb	w1, [x1]
    6f54:	51010c21 	sub	w1, w1, #0x43
    6f58:	53001c21 	uxtb	w1, w1
    6f5c:	7100043f 	cmp	w1, #0x1
    6f60:	1a9f87e1 	cset	w1, ls	// ls = plast
    6f64:	17ffffd8 	b	6ec4 <_ZN9__gnu_cxx27__verbose_terminate_handlerEv@@Base+0x524>
    6f68:	f0000122 	adrp	x2, 2d000 <__FINI_ARRAY__@@Base+0x360>
    6f6c:	9105c042 	add	x2, x2, #0x170
    6f70:	9101c042 	add	x2, x2, #0x70
    6f74:	f9401446 	ldr	x6, [x2, #40]
    6f78:	b40007c6 	cbz	x6, 7070 <_ZN9__gnu_cxx27__verbose_terminate_handlerEv@@Base+0x6d0>
    6f7c:	b9402803 	ldr	w3, [x0, #40]
    6f80:	d2800008 	mov	x8, #0x0                   	// #0
    6f84:	b9402c05 	ldr	w5, [x0, #44]
    6f88:	b940304a 	ldr	w10, [x2, #48]
    6f8c:	6b05007f 	cmp	w3, w5
    6f90:	540001ca 	b.ge	6fc8 <_ZN9__gnu_cxx27__verbose_terminate_handlerEv@@Base+0x628>  // b.tcont
    6f94:	93407c64 	sxtw	x4, w3
    6f98:	f9401009 	ldr	x9, [x0, #32]
    6f9c:	d37be887 	lsl	x7, x4, #5
    6fa0:	11000463 	add	w3, w3, #0x1
    6fa4:	cb040ce4 	sub	x4, x7, x4, lsl #3
    6fa8:	b9002803 	str	w3, [x0, #40]
    6fac:	ab040127 	adds	x7, x9, x4
    6fb0:	540000c0 	b.eq	6fc8 <_ZN9__gnu_cxx27__verbose_terminate_handlerEv@@Base+0x628>  // b.none
    6fb4:	52800308 	mov	w8, #0x18                  	// #24
    6fb8:	b8246928 	str	w8, [x9, x4]
    6fbc:	f90004e6 	str	x6, [x7, #8]
    6fc0:	aa0703e8 	mov	x8, x7
    6fc4:	b90010ea 	str	w10, [x7, #16]
    6fc8:	f9002408 	str	x8, [x0, #72]
    6fcc:	340002e1 	cbz	w1, 7028 <_ZN9__gnu_cxx27__verbose_terminate_handlerEv@@Base+0x688>
    6fd0:	f9400c46 	ldr	x6, [x2, #24]
    6fd4:	b9402044 	ldr	w4, [x2, #32]
    6fd8:	b9405001 	ldr	w1, [x0, #80]
    6fdc:	6b0300bf 	cmp	w5, w3
    6fe0:	0b040021 	add	w1, w1, w4
    6fe4:	b9005001 	str	w1, [x0, #80]
    6fe8:	54fff04d 	b.le	6df0 <_ZN9__gnu_cxx27__verbose_terminate_handlerEv@@Base+0x450>
    6fec:	93407c62 	sxtw	x2, w3
    6ff0:	f9401005 	ldr	x5, [x0, #32]
    6ff4:	d37be847 	lsl	x7, x2, #5
    6ff8:	11000461 	add	w1, w3, #0x1
    6ffc:	cb020ce2 	sub	x2, x7, x2, lsl #3
    7000:	b9002801 	str	w1, [x0, #40]
    7004:	ab0200a0 	adds	x0, x5, x2
    7008:	d2800001 	mov	x1, #0x0                   	// #0
    700c:	54ffef40 	b.eq	6df4 <_ZN9__gnu_cxx27__verbose_terminate_handlerEv@@Base+0x454>  // b.none
    7010:	52800301 	mov	w1, #0x18                  	// #24
    7014:	b82268a1 	str	w1, [x5, x2]
    7018:	f9000406 	str	x6, [x0, #8]
    701c:	aa0003e1 	mov	x1, x0
    7020:	b9001004 	str	w4, [x0, #16]
    7024:	17ffff74 	b	6df4 <_ZN9__gnu_cxx27__verbose_terminate_handlerEv@@Base+0x454>
    7028:	f9400446 	ldr	x6, [x2, #8]
    702c:	b9401044 	ldr	w4, [x2, #16]
    7030:	17ffffea 	b	6fd8 <_ZN9__gnu_cxx27__verbose_terminate_handlerEv@@Base+0x638>
    7034:	d0000122 	adrp	x2, 2d000 <__FINI_ARRAY__@@Base+0x360>
    7038:	9105c042 	add	x2, x2, #0x170
    703c:	17ffffce 	b	6f74 <_ZN9__gnu_cxx27__verbose_terminate_handlerEv@@Base+0x5d4>
    7040:	d0000122 	adrp	x2, 2d000 <__FINI_ARRAY__@@Base+0x360>
    7044:	9105c042 	add	x2, x2, #0x170
    7048:	9100e042 	add	x2, x2, #0x38
    704c:	17ffffca 	b	6f74 <_ZN9__gnu_cxx27__verbose_terminate_handlerEv@@Base+0x5d4>
    7050:	d0000122 	adrp	x2, 2d000 <__FINI_ARRAY__@@Base+0x360>
    7054:	9105c042 	add	x2, x2, #0x170
    7058:	91038042 	add	x2, x2, #0xe0
    705c:	17ffffc6 	b	6f74 <_ZN9__gnu_cxx27__verbose_terminate_handlerEv@@Base+0x5d4>
    7060:	d0000122 	adrp	x2, 2d000 <__FINI_ARRAY__@@Base+0x360>
    7064:	9105c042 	add	x2, x2, #0x170
    7068:	9102a042 	add	x2, x2, #0xa8
    706c:	17ffffc2 	b	6f74 <_ZN9__gnu_cxx27__verbose_terminate_handlerEv@@Base+0x5d4>
    7070:	b9402c05 	ldr	w5, [x0, #44]
    7074:	b9402803 	ldr	w3, [x0, #40]
    7078:	17ffffd5 	b	6fcc <_ZN9__gnu_cxx27__verbose_terminate_handlerEv@@Base+0x62c>
    707c:	d0000122 	adrp	x2, 2d000 <__FINI_ARRAY__@@Base+0x360>
    7080:	9105c042 	add	x2, x2, #0x170
    7084:	91046042 	add	x2, x2, #0x118
    7088:	17ffffbb 	b	6f74 <_ZN9__gnu_cxx27__verbose_terminate_handlerEv@@Base+0x5d4>
    708c:	51010443 	sub	w3, w2, #0x41
    7090:	53001c63 	uxtb	w3, w3
    7094:	7100647f 	cmp	w3, #0x19
    7098:	54ffed09 	b.ls	6e38 <_ZN9__gnu_cxx27__verbose_terminate_handlerEv@@Base+0x498>  // b.plast
    709c:	17ffff84 	b	6eac <_ZN9__gnu_cxx27__verbose_terminate_handlerEv@@Base+0x50c>
    70a0:	a9bd7bfd 	stp	x29, x30, [sp, #-48]!
    70a4:	910003fd 	mov	x29, sp
    70a8:	a90153f3 	stp	x19, x20, [sp, #16]
    70ac:	a9025bf5 	stp	x21, x22, [sp, #32]
    70b0:	b0000094 	adrp	x20, 18000 <_ZTSN10__cxxabiv117__class_type_infoE@@Base>
    70b4:	aa0203f3 	mov	x19, x2
    70b8:	aa0003f5 	mov	x21, x0
    70bc:	aa0103f6 	mov	x22, x1
    70c0:	91046294 	add	x20, x20, #0x118
    70c4:	b40000a2 	cbz	x2, 70d8 <_ZN9__gnu_cxx27__verbose_terminate_handlerEv@@Base+0x738>
    70c8:	b9400260 	ldr	w0, [x19]
    70cc:	51000400 	sub	w0, w0, #0x1
    70d0:	71012c1f 	cmp	w0, #0x4b
    70d4:	540000a9 	b.ls	70e8 <_ZN9__gnu_cxx27__verbose_terminate_handlerEv@@Base+0x748>  // b.plast
    70d8:	a94153f3 	ldp	x19, x20, [sp, #16]
    70dc:	a9425bf5 	ldp	x21, x22, [sp, #32]
    70e0:	a8c37bfd 	ldp	x29, x30, [sp], #48
    70e4:	d65f03c0 	ret
    70e8:	38604a80 	ldrb	w0, [x20, w0, uxtw]
    70ec:	10000061 	adr	x1, 70f8 <_ZN9__gnu_cxx27__verbose_terminate_handlerEv@@Base+0x758>
    70f0:	8b208820 	add	x0, x1, w0, sxtb #2
    70f4:	d61f0000 	br	x0
    70f8:	f9400a73 	ldr	x19, [x19, #16]
    70fc:	b5fffe73 	cbnz	x19, 70c8 <_ZN9__gnu_cxx27__verbose_terminate_handlerEv@@Base+0x728>
    7100:	a94153f3 	ldp	x19, x20, [sp, #16]
    7104:	a9425bf5 	ldp	x21, x22, [sp, #32]
    7108:	a8c37bfd 	ldp	x29, x30, [sp], #48
    710c:	d65f03c0 	ret
    7110:	f9400673 	ldr	x19, [x19, #8]
    7114:	b5fffdb3 	cbnz	x19, 70c8 <_ZN9__gnu_cxx27__verbose_terminate_handlerEv@@Base+0x728>
    7118:	17fffffa 	b	7100 <_ZN9__gnu_cxx27__verbose_terminate_handlerEv@@Base+0x760>
    711c:	f9400660 	ldr	x0, [x19, #8]
    7120:	aa0003e2 	mov	x2, x0
    7124:	b9400000 	ldr	w0, [x0]
    7128:	7100141f 	cmp	w0, #0x5
    712c:	540000a1 	b.ne	7140 <_ZN9__gnu_cxx27__verbose_terminate_handlerEv@@Base+0x7a0>  // b.any
    7130:	b94002c0 	ldr	w0, [x22]
    7134:	11000400 	add	w0, w0, #0x1
    7138:	b90002c0 	str	w0, [x22]
    713c:	f9400662 	ldr	x2, [x19, #8]
    7140:	aa1503e0 	mov	x0, x21
    7144:	aa1603e1 	mov	x1, x22
    7148:	97ffffd6 	bl	70a0 <_ZN9__gnu_cxx27__verbose_terminate_handlerEv@@Base+0x700>
    714c:	f9400a73 	ldr	x19, [x19, #16]
    7150:	b5fffbd3 	cbnz	x19, 70c8 <_ZN9__gnu_cxx27__verbose_terminate_handlerEv@@Base+0x728>
    7154:	17ffffeb 	b	7100 <_ZN9__gnu_cxx27__verbose_terminate_handlerEv@@Base+0x760>
    7158:	b94002a0 	ldr	w0, [x21]
    715c:	11000400 	add	w0, w0, #0x1
    7160:	b90002a0 	str	w0, [x21]
    7164:	f9400662 	ldr	x2, [x19, #8]
    7168:	17fffff6 	b	7140 <_ZN9__gnu_cxx27__verbose_terminate_handlerEv@@Base+0x7a0>
    716c:	a9be7bfd 	stp	x29, x30, [sp, #-32]!
    7170:	910003fd 	mov	x29, sp
    7174:	a90153f3 	stp	x19, x20, [sp, #16]
    7178:	53001c34 	uxtb	w20, w1
    717c:	f9408001 	ldr	x1, [x0, #256]
    7180:	aa0003f3 	mov	x19, x0
    7184:	f103fc3f 	cmp	x1, #0xff
    7188:	54000100 	b.eq	71a8 <_ZN9__gnu_cxx27__verbose_terminate_handlerEv@@Base+0x808>  // b.none
    718c:	91000420 	add	x0, x1, #0x1
    7190:	f9008260 	str	x0, [x19, #256]
    7194:	38216a74 	strb	w20, [x19, x1]
    7198:	39042274 	strb	w20, [x19, #264]
    719c:	a94153f3 	ldp	x19, x20, [sp, #16]
    71a0:	a8c27bfd 	ldp	x29, x30, [sp], #32
    71a4:	d65f03c0 	ret
    71a8:	f9408803 	ldr	x3, [x0, #272]
    71ac:	f9408c02 	ldr	x2, [x0, #280]
    71b0:	3903fc1f 	strb	wzr, [x0, #255]
    71b4:	d63f0060 	blr	x3
    71b8:	f9409e62 	ldr	x2, [x19, #312]
    71bc:	d2800001 	mov	x1, #0x0                   	// #0
    71c0:	d2800020 	mov	x0, #0x1                   	// #1
    71c4:	f9008260 	str	x0, [x19, #256]
    71c8:	8b000042 	add	x2, x2, x0
    71cc:	f9009e62 	str	x2, [x19, #312]
    71d0:	38216a74 	strb	w20, [x19, x1]
    71d4:	39042274 	strb	w20, [x19, #264]
    71d8:	a94153f3 	ldp	x19, x20, [sp, #16]
    71dc:	a8c27bfd 	ldp	x29, x30, [sp], #32
    71e0:	d65f03c0 	ret
    71e4:	f9400001 	ldr	x1, [x0]
    71e8:	39400023 	ldrb	w3, [x1]
    71ec:	7101b87f 	cmp	w3, #0x6e
    71f0:	540002e0 	b.eq	724c <_ZN9__gnu_cxx27__verbose_terminate_handlerEv@@Base+0x8ac>  // b.none
    71f4:	d2800005 	mov	x5, #0x0                   	// #0
    71f8:	d2800006 	mov	x6, #0x0                   	// #0
    71fc:	5100c061 	sub	w1, w3, #0x30
    7200:	53001c21 	uxtb	w1, w1
    7204:	7100243f 	cmp	w1, #0x9
    7208:	540002e8 	b.hi	7264 <_ZN9__gnu_cxx27__verbose_terminate_handlerEv@@Base+0x8c4>  // b.pmore
    720c:	f9400004 	ldr	x4, [x0]
    7210:	d2800001 	mov	x1, #0x0                   	// #0
    7214:	91000484 	add	x4, x4, #0x1
    7218:	f9000004 	str	x4, [x0]
    721c:	d37df022 	lsl	x2, x1, #3
    7220:	8b010441 	add	x1, x2, x1, lsl #1
    7224:	8b230021 	add	x1, x1, w3, uxtb
    7228:	38401483 	ldrb	w3, [x4], #1
    722c:	d100c021 	sub	x1, x1, #0x30
    7230:	5100c062 	sub	w2, w3, #0x30
    7234:	53001c42 	uxtb	w2, w2
    7238:	7100245f 	cmp	w2, #0x9
    723c:	54fffee9 	b.ls	7218 <_ZN9__gnu_cxx27__verbose_terminate_handlerEv@@Base+0x878>  // b.plast
    7240:	ca060020 	eor	x0, x1, x6
    7244:	8b050000 	add	x0, x0, x5
    7248:	d65f03c0 	ret
    724c:	91000422 	add	x2, x1, #0x1
    7250:	f9000002 	str	x2, [x0]
    7254:	d2800025 	mov	x5, #0x1                   	// #1
    7258:	92800006 	mov	x6, #0xffffffffffffffff    	// #-1
    725c:	39400423 	ldrb	w3, [x1, #1]
    7260:	17ffffe7 	b	71fc <_ZN9__gnu_cxx27__verbose_terminate_handlerEv@@Base+0x85c>
    7264:	d2800001 	mov	x1, #0x0                   	// #0
    7268:	17fffff6 	b	7240 <_ZN9__gnu_cxx27__verbose_terminate_handlerEv@@Base+0x8a0>
    726c:	f9409002 	ldr	x2, [x0, #288]
    7270:	b4000362 	cbz	x2, 72dc <_ZN9__gnu_cxx27__verbose_terminate_handlerEv@@Base+0x93c>
    7274:	f9400440 	ldr	x0, [x2, #8]
    7278:	f9400022 	ldr	x2, [x1]
    727c:	f9400801 	ldr	x1, [x0, #16]
    7280:	2a0203e0 	mov	w0, w2
    7284:	b40001c1 	cbz	x1, 72bc <_ZN9__gnu_cxx27__verbose_terminate_handlerEv@@Base+0x91c>
    7288:	b9400023 	ldr	w3, [x1]
    728c:	7100bc7f 	cmp	w3, #0x2f
    7290:	54000161 	b.ne	72bc <_ZN9__gnu_cxx27__verbose_terminate_handlerEv@@Base+0x91c>  // b.any
    7294:	6b1f005f 	cmp	w2, wzr
    7298:	540000cc 	b.gt	72b0 <_ZN9__gnu_cxx27__verbose_terminate_handlerEv@@Base+0x910>
    729c:	1400000b 	b	72c8 <_ZN9__gnu_cxx27__verbose_terminate_handlerEv@@Base+0x928>
    72a0:	b9400022 	ldr	w2, [x1]
    72a4:	7100bc5f 	cmp	w2, #0x2f
    72a8:	540000a1 	b.ne	72bc <_ZN9__gnu_cxx27__verbose_terminate_handlerEv@@Base+0x91c>  // b.any
    72ac:	34000120 	cbz	w0, 72d0 <_ZN9__gnu_cxx27__verbose_terminate_handlerEv@@Base+0x930>
    72b0:	f9400821 	ldr	x1, [x1, #16]
    72b4:	51000400 	sub	w0, w0, #0x1
    72b8:	b5ffff41 	cbnz	x1, 72a0 <_ZN9__gnu_cxx27__verbose_terminate_handlerEv@@Base+0x900>
    72bc:	d2800002 	mov	x2, #0x0                   	// #0
    72c0:	aa0203e0 	mov	x0, x2
    72c4:	d65f03c0 	ret
    72c8:	d2800002 	mov	x2, #0x0                   	// #0
    72cc:	54ffffa1 	b.ne	72c0 <_ZN9__gnu_cxx27__verbose_terminate_handlerEv@@Base+0x920>  // b.any
    72d0:	f9400422 	ldr	x2, [x1, #8]
    72d4:	aa0203e0 	mov	x0, x2
    72d8:	d65f03c0 	ret
    72dc:	52800021 	mov	w1, #0x1                   	// #1
    72e0:	b9013001 	str	w1, [x0, #304]
    72e4:	17fffff7 	b	72c0 <_ZN9__gnu_cxx27__verbose_terminate_handlerEv@@Base+0x920>
    72e8:	a9bd7bfd 	stp	x29, x30, [sp, #-48]!
    72ec:	910003fd 	mov	x29, sp
    72f0:	a90153f3 	stp	x19, x20, [sp, #16]
    72f4:	f90013f5 	str	x21, [sp, #32]
    72f8:	b0000094 	adrp	x20, 18000 <_ZTSN10__cxxabiv117__class_type_infoE@@Base>
    72fc:	aa0103f3 	mov	x19, x1
    7300:	aa0003f5 	mov	x21, x0
    7304:	91059294 	add	x20, x20, #0x164
    7308:	b4000141 	cbz	x1, 7330 <_ZN9__gnu_cxx27__verbose_terminate_handlerEv@@Base+0x990>
    730c:	b9400260 	ldr	w0, [x19]
    7310:	71012c1f 	cmp	w0, #0x4b
    7314:	54000189 	b.ls	7344 <_ZN9__gnu_cxx27__verbose_terminate_handlerEv@@Base+0x9a4>  // b.plast
    7318:	f9400661 	ldr	x1, [x19, #8]
    731c:	aa1503e0 	mov	x0, x21
    7320:	97fffff2 	bl	72e8 <_ZN9__gnu_cxx27__verbose_terminate_handlerEv@@Base+0x948>
    7324:	b5000080 	cbnz	x0, 7334 <_ZN9__gnu_cxx27__verbose_terminate_handlerEv@@Base+0x994>
    7328:	f9400a73 	ldr	x19, [x19, #16]
    732c:	b5ffff13 	cbnz	x19, 730c <_ZN9__gnu_cxx27__verbose_terminate_handlerEv@@Base+0x96c>
    7330:	d2800000 	mov	x0, #0x0                   	// #0
    7334:	a94153f3 	ldp	x19, x20, [sp, #16]
    7338:	f94013f5 	ldr	x21, [sp, #32]
    733c:	a8c37bfd 	ldp	x29, x30, [sp], #48
    7340:	d65f03c0 	ret
    7344:	38604a80 	ldrb	w0, [x20, w0, uxtw]
    7348:	10000061 	adr	x1, 7354 <_ZN9__gnu_cxx27__verbose_terminate_handlerEv@@Base+0x9b4>
    734c:	8b208820 	add	x0, x1, w0, sxtb #2
    7350:	d61f0000 	br	x0
    7354:	aa1503e0 	mov	x0, x21
    7358:	91002261 	add	x1, x19, #0x8
    735c:	97ffffc4 	bl	726c <_ZN9__gnu_cxx27__verbose_terminate_handlerEv@@Base+0x8cc>
    7360:	b4fffe80 	cbz	x0, 7330 <_ZN9__gnu_cxx27__verbose_terminate_handlerEv@@Base+0x990>
    7364:	b9400001 	ldr	w1, [x0]
    7368:	7100bc3f 	cmp	w1, #0x2f
    736c:	54fffe21 	b.ne	7330 <_ZN9__gnu_cxx27__verbose_terminate_handlerEv@@Base+0x990>  // b.any
    7370:	a94153f3 	ldp	x19, x20, [sp, #16]
    7374:	f94013f5 	ldr	x21, [sp, #32]
    7378:	a8c37bfd 	ldp	x29, x30, [sp], #48
    737c:	d65f03c0 	ret
    7380:	a9bd7bfd 	stp	x29, x30, [sp, #-48]!
    7384:	910003fd 	mov	x29, sp
    7388:	a9025bf5 	stp	x21, x22, [sp, #32]
    738c:	aa0003f6 	mov	x22, x0
    7390:	f9400440 	ldr	x0, [x2, #8]
    7394:	a90153f3 	stp	x19, x20, [sp, #16]
    7398:	91000400 	add	x0, x0, #0x1
    739c:	f9400853 	ldr	x19, [x2, #16]
    73a0:	8b010000 	add	x0, x0, x1
    73a4:	aa0203f4 	mov	x20, x2
    73a8:	eb13001f 	cmp	x0, x19
    73ac:	aa0103f5 	mov	x21, x1
    73b0:	54000308 	b.hi	7410 <_ZN9__gnu_cxx27__verbose_terminate_handlerEv@@Base+0xa70>  // b.pmore
    73b4:	b9401a80 	ldr	w0, [x20, #24]
    73b8:	340000a0 	cbz	w0, 73cc <_ZN9__gnu_cxx27__verbose_terminate_handlerEv@@Base+0xa2c>
    73bc:	a94153f3 	ldp	x19, x20, [sp, #16]
    73c0:	a9425bf5 	ldp	x21, x22, [sp, #32]
    73c4:	a8c37bfd 	ldp	x29, x30, [sp], #48
    73c8:	d65f03c0 	ret
    73cc:	f9400283 	ldr	x3, [x20]
    73d0:	aa1603e1 	mov	x1, x22
    73d4:	f9400680 	ldr	x0, [x20, #8]
    73d8:	aa1503e2 	mov	x2, x21
    73dc:	8b000060 	add	x0, x3, x0
    73e0:	97fff578 	bl	49c0 <memcpy@plt>
    73e4:	f9400280 	ldr	x0, [x20]
    73e8:	f9400681 	ldr	x1, [x20, #8]
    73ec:	8b150000 	add	x0, x0, x21
    73f0:	3821681f 	strb	wzr, [x0, x1]
    73f4:	f9400680 	ldr	x0, [x20, #8]
    73f8:	8b150015 	add	x21, x0, x21
    73fc:	f9000695 	str	x21, [x20, #8]
    7400:	a94153f3 	ldp	x19, x20, [sp, #16]
    7404:	a9425bf5 	ldp	x21, x22, [sp, #32]
    7408:	a8c37bfd 	ldp	x29, x30, [sp], #48
    740c:	d65f03c0 	ret
    7410:	b9401841 	ldr	w1, [x2, #24]
    7414:	35fffd41 	cbnz	w1, 73bc <_ZN9__gnu_cxx27__verbose_terminate_handlerEv@@Base+0xa1c>
    7418:	b5000093 	cbnz	x19, 7428 <_ZN9__gnu_cxx27__verbose_terminate_handlerEv@@Base+0xa88>
    741c:	f100081f 	cmp	x0, #0x2
    7420:	d2800053 	mov	x19, #0x2                   	// #2
    7424:	54000089 	b.ls	7434 <_ZN9__gnu_cxx27__verbose_terminate_handlerEv@@Base+0xa94>  // b.plast
    7428:	d37ffa73 	lsl	x19, x19, #1
    742c:	eb13001f 	cmp	x0, x19
    7430:	54ffffc8 	b.hi	7428 <_ZN9__gnu_cxx27__verbose_terminate_handlerEv@@Base+0xa88>  // b.pmore
    7434:	f9400280 	ldr	x0, [x20]
    7438:	aa1303e1 	mov	x1, x19
    743c:	97fff595 	bl	4a90 <realloc@plt>
    7440:	b4000080 	cbz	x0, 7450 <_ZN9__gnu_cxx27__verbose_terminate_handlerEv@@Base+0xab0>
    7444:	f9000280 	str	x0, [x20]
    7448:	f9000a93 	str	x19, [x20, #16]
    744c:	17ffffda 	b	73b4 <_ZN9__gnu_cxx27__verbose_terminate_handlerEv@@Base+0xa14>
    7450:	f9400280 	ldr	x0, [x20]
    7454:	97fff567 	bl	49f0 <free@plt>
    7458:	f900029f 	str	xzr, [x20]
    745c:	52800020 	mov	w0, #0x1                   	// #1
    7460:	f900069f 	str	xzr, [x20, #8]
    7464:	f9000a9f 	str	xzr, [x20, #16]
    7468:	b9001a80 	str	w0, [x20, #24]
    746c:	17ffffd4 	b	73bc <_ZN9__gnu_cxx27__verbose_terminate_handlerEv@@Base+0xa1c>
    7470:	a9bc7bfd 	stp	x29, x30, [sp, #-64]!
    7474:	910003fd 	mov	x29, sp
    7478:	a90153f3 	stp	x19, x20, [sp, #16]
    747c:	aa0003f4 	mov	x20, x0
    7480:	aa0103e0 	mov	x0, x1
    7484:	a9025bf5 	stp	x21, x22, [sp, #32]
    7488:	f9001fa1 	str	x1, [x29, #56]
    748c:	97fff579 	bl	4a70 <strlen@plt>
    7490:	b4000420 	cbz	x0, 7514 <_ZN9__gnu_cxx27__verbose_terminate_handlerEv@@Base+0xb74>
    7494:	f9401fa1 	ldr	x1, [x29, #56]
    7498:	aa0103f3 	mov	x19, x1
    749c:	f9408281 	ldr	x1, [x20, #256]
    74a0:	8b000276 	add	x22, x19, x0
    74a4:	14000008 	b	74c4 <_ZN9__gnu_cxx27__verbose_terminate_handlerEv@@Base+0xb24>
    74a8:	91000421 	add	x1, x1, #0x1
    74ac:	f9008281 	str	x1, [x20, #256]
    74b0:	91000673 	add	x19, x19, #0x1
    74b4:	38226a95 	strb	w21, [x20, x2]
    74b8:	eb16027f 	cmp	x19, x22
    74bc:	39042295 	strb	w21, [x20, #264]
    74c0:	540002a0 	b.eq	7514 <_ZN9__gnu_cxx27__verbose_terminate_handlerEv@@Base+0xb74>  // b.none
    74c4:	f103fc3f 	cmp	x1, #0xff
    74c8:	39400275 	ldrb	w21, [x19]
    74cc:	aa0103e2 	mov	x2, x1
    74d0:	54fffec1 	b.ne	74a8 <_ZN9__gnu_cxx27__verbose_terminate_handlerEv@@Base+0xb08>  // b.any
    74d4:	f9408e82 	ldr	x2, [x20, #280]
    74d8:	aa1403e0 	mov	x0, x20
    74dc:	f9408a83 	ldr	x3, [x20, #272]
    74e0:	91000673 	add	x19, x19, #0x1
    74e4:	3903fe9f 	strb	wzr, [x20, #255]
    74e8:	d63f0060 	blr	x3
    74ec:	f9409e80 	ldr	x0, [x20, #312]
    74f0:	d2800002 	mov	x2, #0x0                   	// #0
    74f4:	d2800021 	mov	x1, #0x1                   	// #1
    74f8:	f9008281 	str	x1, [x20, #256]
    74fc:	8b010000 	add	x0, x0, x1
    7500:	f9009e80 	str	x0, [x20, #312]
    7504:	38226a95 	strb	w21, [x20, x2]
    7508:	eb16027f 	cmp	x19, x22
    750c:	39042295 	strb	w21, [x20, #264]
    7510:	54fffda1 	b.ne	74c4 <_ZN9__gnu_cxx27__verbose_terminate_handlerEv@@Base+0xb24>  // b.any
    7514:	a94153f3 	ldp	x19, x20, [sp, #16]
    7518:	a9425bf5 	ldp	x21, x22, [sp, #32]
    751c:	a8c47bfd 	ldp	x29, x30, [sp], #64
    7520:	d65f03c0 	ret
    7524:	a9bd7bfd 	stp	x29, x30, [sp, #-48]!
    7528:	93407c23 	sxtw	x3, w1
    752c:	910003fd 	mov	x29, sp
    7530:	f90013f5 	str	x21, [sp, #32]
    7534:	f9400402 	ldr	x2, [x0, #8]
    7538:	f9400c15 	ldr	x21, [x0, #24]
    753c:	a90153f3 	stp	x19, x20, [sp, #16]
    7540:	cb150042 	sub	x2, x2, x21
    7544:	eb03005f 	cmp	x2, x3
    7548:	5400064b 	b.lt	7610 <_ZN9__gnu_cxx27__verbose_terminate_handlerEv@@Base+0xc70>  // b.tstop
    754c:	b9401004 	ldr	w4, [x0, #16]
    7550:	8b0302a2 	add	x2, x21, x3
    7554:	f9000c02 	str	x2, [x0, #24]
    7558:	37100664 	tbnz	w4, #2, 7624 <_ZN9__gnu_cxx27__verbose_terminate_handlerEv@@Base+0xc84>
    755c:	7100243f 	cmp	w1, #0x9
    7560:	2a0103f4 	mov	w20, w1
    7564:	aa0003f3 	mov	x19, x0
    7568:	5400020d 	b.le	75a8 <_ZN9__gnu_cxx27__verbose_terminate_handlerEv@@Base+0xc08>
    756c:	b0000081 	adrp	x1, 18000 <_ZTSN10__cxxabiv117__class_type_infoE@@Base>
    7570:	aa1503e0 	mov	x0, x21
    7574:	91154021 	add	x1, x1, #0x550
    7578:	d2800102 	mov	x2, #0x8                   	// #8
    757c:	97fff575 	bl	4b50 <memcmp@plt>
    7580:	35000140 	cbnz	w0, 75a8 <_ZN9__gnu_cxx27__verbose_terminate_handlerEv@@Base+0xc08>
    7584:	394022a1 	ldrb	w1, [x21, #8]
    7588:	71017c3f 	cmp	w1, #0x5f
    758c:	1a9f17e2 	cset	w2, eq	// eq = none
    7590:	7100b83f 	cmp	w1, #0x2e
    7594:	1a9f17e0 	cset	w0, eq	// eq = none
    7598:	2a000040 	orr	w0, w2, w0
    759c:	35000500 	cbnz	w0, 763c <_ZN9__gnu_cxx27__verbose_terminate_handlerEv@@Base+0xc9c>
    75a0:	7100903f 	cmp	w1, #0x24
    75a4:	540004c0 	b.eq	763c <_ZN9__gnu_cxx27__verbose_terminate_handlerEv@@Base+0xc9c>  // b.none
    75a8:	b9402a60 	ldr	w0, [x19, #40]
    75ac:	b9402e61 	ldr	w1, [x19, #44]
    75b0:	6b01001f 	cmp	w0, w1
    75b4:	540002ea 	b.ge	7610 <_ZN9__gnu_cxx27__verbose_terminate_handlerEv@@Base+0xc70>  // b.tcont
    75b8:	6b1f029f 	cmp	w20, wzr
    75bc:	93407c01 	sxtw	x1, w0
    75c0:	1a9f17e5 	cset	w5, eq	// eq = none
    75c4:	eb1f02bf 	cmp	x21, xzr
    75c8:	1a9f17e2 	cset	w2, eq	// eq = none
    75cc:	d37be823 	lsl	x3, x1, #5
    75d0:	f9401264 	ldr	x4, [x19, #32]
    75d4:	11000400 	add	w0, w0, #0x1
    75d8:	2a0200a2 	orr	w2, w5, w2
    75dc:	b9002a60 	str	w0, [x19, #40]
    75e0:	cb010c61 	sub	x1, x3, x1, lsl #3
    75e4:	8b010083 	add	x3, x4, x1
    75e8:	35000142 	cbnz	w2, 7610 <_ZN9__gnu_cxx27__verbose_terminate_handlerEv@@Base+0xc70>
    75ec:	b4000123 	cbz	x3, 7610 <_ZN9__gnu_cxx27__verbose_terminate_handlerEv@@Base+0xc70>
    75f0:	b821689f 	str	wzr, [x4, x1]
    75f4:	aa0303e0 	mov	x0, x3
    75f8:	f9000475 	str	x21, [x3, #8]
    75fc:	b9001074 	str	w20, [x3, #16]
    7600:	a94153f3 	ldp	x19, x20, [sp, #16]
    7604:	f94013f5 	ldr	x21, [sp, #32]
    7608:	a8c37bfd 	ldp	x29, x30, [sp], #48
    760c:	d65f03c0 	ret
    7610:	d2800000 	mov	x0, #0x0                   	// #0
    7614:	f94013f5 	ldr	x21, [sp, #32]
    7618:	a94153f3 	ldp	x19, x20, [sp, #16]
    761c:	a8c37bfd 	ldp	x29, x30, [sp], #48
    7620:	d65f03c0 	ret
    7624:	38636aa3 	ldrb	w3, [x21, x3]
    7628:	7100907f 	cmp	w3, #0x24
    762c:	54fff981 	b.ne	755c <_ZN9__gnu_cxx27__verbose_terminate_handlerEv@@Base+0xbbc>  // b.any
    7630:	91000442 	add	x2, x2, #0x1
    7634:	f9000c02 	str	x2, [x0, #24]
    7638:	17ffffc9 	b	755c <_ZN9__gnu_cxx27__verbose_terminate_handlerEv@@Base+0xbbc>
    763c:	394026a0 	ldrb	w0, [x21, #9]
    7640:	7101381f 	cmp	w0, #0x4e
    7644:	54fffb21 	b.ne	75a8 <_ZN9__gnu_cxx27__verbose_terminate_handlerEv@@Base+0xc08>  // b.any
    7648:	b9405263 	ldr	w3, [x19, #80]
    764c:	aa1303e0 	mov	x0, x19
    7650:	f94013f5 	ldr	x21, [sp, #32]
    7654:	b0000081 	adrp	x1, 18000 <_ZTSN10__cxxabiv117__class_type_infoE@@Base>
    7658:	11005863 	add	w3, w3, #0x16
    765c:	91158021 	add	x1, x1, #0x560
    7660:	4b140074 	sub	w20, w3, w20
    7664:	b9005274 	str	w20, [x19, #80]
    7668:	a94153f3 	ldp	x19, x20, [sp, #16]
    766c:	a8c37bfd 	ldp	x29, x30, [sp], #48
    7670:	528002a2 	mov	w2, #0x15                  	// #21
    7674:	17fffd57 	b	6bd0 <_ZN9__gnu_cxx27__verbose_terminate_handlerEv@@Base+0x230>
    7678:	a9ba7bfd 	stp	x29, x30, [sp, #-96]!
    767c:	aa0103e2 	mov	x2, x1
    7680:	b0000081 	adrp	x1, 18000 <_ZTSN10__cxxabiv117__class_type_infoE@@Base>
    7684:	910003fd 	mov	x29, sp
    7688:	a9025bf5 	stp	x21, x22, [sp, #32]
    768c:	910103b6 	add	x22, x29, #0x40
    7690:	9115e021 	add	x1, x1, #0x578
    7694:	a90153f3 	stp	x19, x20, [sp, #16]
    7698:	aa0003f3 	mov	x19, x0
    769c:	aa1603e0 	mov	x0, x22
    76a0:	f9001bf7 	str	x23, [sp, #48]
    76a4:	97fff4e7 	bl	4a40 <sprintf@plt>
    76a8:	aa1603e0 	mov	x0, x22
    76ac:	97fff4f1 	bl	4a70 <strlen@plt>
    76b0:	aa0003f7 	mov	x23, x0
    76b4:	b40003e0 	cbz	x0, 7730 <_ZN9__gnu_cxx27__verbose_terminate_handlerEv@@Base+0xd90>
    76b8:	f9408261 	ldr	x1, [x19, #256]
    76bc:	d2800014 	mov	x20, #0x0                   	// #0
    76c0:	14000008 	b	76e0 <_ZN9__gnu_cxx27__verbose_terminate_handlerEv@@Base+0xd40>
    76c4:	91000421 	add	x1, x1, #0x1
    76c8:	f9008261 	str	x1, [x19, #256]
    76cc:	91000694 	add	x20, x20, #0x1
    76d0:	38206a75 	strb	w21, [x19, x0]
    76d4:	eb17029f 	cmp	x20, x23
    76d8:	39042275 	strb	w21, [x19, #264]
    76dc:	540002a0 	b.eq	7730 <_ZN9__gnu_cxx27__verbose_terminate_handlerEv@@Base+0xd90>  // b.none
    76e0:	f103fc3f 	cmp	x1, #0xff
    76e4:	38746ad5 	ldrb	w21, [x22, x20]
    76e8:	aa0103e0 	mov	x0, x1
    76ec:	54fffec1 	b.ne	76c4 <_ZN9__gnu_cxx27__verbose_terminate_handlerEv@@Base+0xd24>  // b.any
    76f0:	f9408e62 	ldr	x2, [x19, #280]
    76f4:	aa1303e0 	mov	x0, x19
    76f8:	f9408a63 	ldr	x3, [x19, #272]
    76fc:	91000694 	add	x20, x20, #0x1
    7700:	3903fe7f 	strb	wzr, [x19, #255]
    7704:	d63f0060 	blr	x3
    7708:	f9409e62 	ldr	x2, [x19, #312]
    770c:	d2800000 	mov	x0, #0x0                   	// #0
    7710:	d2800021 	mov	x1, #0x1                   	// #1
    7714:	f9008261 	str	x1, [x19, #256]
    7718:	8b010042 	add	x2, x2, x1
    771c:	f9009e62 	str	x2, [x19, #312]
    7720:	38206a75 	strb	w21, [x19, x0]
    7724:	eb17029f 	cmp	x20, x23
    7728:	39042275 	strb	w21, [x19, #264]
    772c:	54fffda1 	b.ne	76e0 <_ZN9__gnu_cxx27__verbose_terminate_handlerEv@@Base+0xd40>  // b.any
    7730:	a94153f3 	ldp	x19, x20, [sp, #16]
    7734:	a9425bf5 	ldp	x21, x22, [sp, #32]
    7738:	f9401bf7 	ldr	x23, [sp, #48]
    773c:	a8c67bfd 	ldp	x29, x30, [sp], #96
    7740:	d65f03c0 	ret
    7744:	a9be7bfd 	stp	x29, x30, [sp, #-32]!
    7748:	52800005 	mov	w5, #0x0                   	// #0
    774c:	910003fd 	mov	x29, sp
    7750:	f9400c01 	ldr	x1, [x0, #24]
    7754:	f9000bf3 	str	x19, [sp, #16]
    7758:	39400023 	ldrb	w3, [x1]
    775c:	7101b87f 	cmp	w3, #0x6e
    7760:	54000380 	b.eq	77d0 <_ZN9__gnu_cxx27__verbose_terminate_handlerEv@@Base+0xe30>  // b.none
    7764:	5100c061 	sub	w1, w3, #0x30
    7768:	53001c21 	uxtb	w1, w1
    776c:	7100243f 	cmp	w1, #0x9
    7770:	540003a8 	b.hi	77e4 <_ZN9__gnu_cxx27__verbose_terminate_handlerEv@@Base+0xe44>  // b.pmore
    7774:	f9400c04 	ldr	x4, [x0, #24]
    7778:	d2800001 	mov	x1, #0x0                   	// #0
    777c:	91000484 	add	x4, x4, #0x1
    7780:	f9000c04 	str	x4, [x0, #24]
    7784:	d37df022 	lsl	x2, x1, #3
    7788:	8b010441 	add	x1, x2, x1, lsl #1
    778c:	8b230021 	add	x1, x1, w3, uxtb
    7790:	38401483 	ldrb	w3, [x4], #1
    7794:	d100c021 	sub	x1, x1, #0x30
    7798:	5100c062 	sub	w2, w3, #0x30
    779c:	53001c42 	uxtb	w2, w2
    77a0:	7100245f 	cmp	w2, #0x9
    77a4:	54fffee9 	b.ls	7780 <_ZN9__gnu_cxx27__verbose_terminate_handlerEv@@Base+0xde0>  // b.plast
    77a8:	eb1f003f 	cmp	x1, xzr
    77ac:	540001cd 	b.le	77e4 <_ZN9__gnu_cxx27__verbose_terminate_handlerEv@@Base+0xe44>
    77b0:	350001a5 	cbnz	w5, 77e4 <_ZN9__gnu_cxx27__verbose_terminate_handlerEv@@Base+0xe44>
    77b4:	aa0003f3 	mov	x19, x0
    77b8:	97ffff5b 	bl	7524 <_ZN9__gnu_cxx27__verbose_terminate_handlerEv@@Base+0xb84>
    77bc:	aa0003e1 	mov	x1, x0
    77c0:	f9002661 	str	x1, [x19, #72]
    77c4:	f9400bf3 	ldr	x19, [sp, #16]
    77c8:	a8c27bfd 	ldp	x29, x30, [sp], #32
    77cc:	d65f03c0 	ret
    77d0:	91000422 	add	x2, x1, #0x1
    77d4:	f9000c02 	str	x2, [x0, #24]
    77d8:	52800025 	mov	w5, #0x1                   	// #1
    77dc:	39400423 	ldrb	w3, [x1, #1]
    77e0:	17ffffe1 	b	7764 <_ZN9__gnu_cxx27__verbose_terminate_handlerEv@@Base+0xdc4>
    77e4:	d2800000 	mov	x0, #0x0                   	// #0
    77e8:	17fffff7 	b	77c4 <_ZN9__gnu_cxx27__verbose_terminate_handlerEv@@Base+0xe24>
    77ec:	f9400c02 	ldr	x2, [x0, #24]
    77f0:	39400044 	ldrb	w4, [x2]
    77f4:	71017c9f 	cmp	w4, #0x5f
    77f8:	54000360 	b.eq	7864 <_ZN9__gnu_cxx27__verbose_terminate_handlerEv@@Base+0xec4>  // b.none
    77fc:	7101b89f 	cmp	w4, #0x6e
    7800:	540002c0 	b.eq	7858 <_ZN9__gnu_cxx27__verbose_terminate_handlerEv@@Base+0xeb8>  // b.none
    7804:	5100c081 	sub	w1, w4, #0x30
    7808:	53001c21 	uxtb	w1, w1
    780c:	7100243f 	cmp	w1, #0x9
    7810:	54000248 	b.hi	7858 <_ZN9__gnu_cxx27__verbose_terminate_handlerEv@@Base+0xeb8>  // b.pmore
    7814:	91000445 	add	x5, x2, #0x1
    7818:	d2800001 	mov	x1, #0x0                   	// #0
    781c:	f9000c05 	str	x5, [x0, #24]
    7820:	d37df023 	lsl	x3, x1, #3
    7824:	8b010461 	add	x1, x3, x1, lsl #1
    7828:	8b240021 	add	x1, x1, w4, uxtb
    782c:	394000a4 	ldrb	w4, [x5]
    7830:	aa0503e2 	mov	x2, x5
    7834:	d100c021 	sub	x1, x1, #0x30
    7838:	910004a5 	add	x5, x5, #0x1
    783c:	5100c083 	sub	w3, w4, #0x30
    7840:	53001c63 	uxtb	w3, w3
    7844:	7100247f 	cmp	w3, #0x9
    7848:	54fffea9 	b.ls	781c <_ZN9__gnu_cxx27__verbose_terminate_handlerEv@@Base+0xe7c>  // b.plast
    784c:	71017c9f 	cmp	w4, #0x5f
    7850:	91000421 	add	x1, x1, #0x1
    7854:	540000a0 	b.eq	7868 <_ZN9__gnu_cxx27__verbose_terminate_handlerEv@@Base+0xec8>  // b.none
    7858:	92800001 	mov	x1, #0xffffffffffffffff    	// #-1
    785c:	aa0103e0 	mov	x0, x1
    7860:	d65f03c0 	ret
    7864:	d2800001 	mov	x1, #0x0                   	// #0
    7868:	91000442 	add	x2, x2, #0x1
    786c:	f9000c02 	str	x2, [x0, #24]
    7870:	aa0103e0 	mov	x0, x1
    7874:	d65f03c0 	ret
    7878:	f9400c01 	ldr	x1, [x0, #24]
    787c:	39400022 	ldrb	w2, [x1]
    7880:	71017c5f 	cmp	w2, #0x5f
    7884:	54000060 	b.eq	7890 <_ZN9__gnu_cxx27__verbose_terminate_handlerEv@@Base+0xef0>  // b.none
    7888:	52800020 	mov	w0, #0x1                   	// #1
    788c:	d65f03c0 	ret
    7890:	91000423 	add	x3, x1, #0x1
    7894:	f9000c03 	str	x3, [x0, #24]
    7898:	39400424 	ldrb	w4, [x1, #1]
    789c:	7101b89f 	cmp	w4, #0x6e
    78a0:	540002c0 	b.eq	78f8 <_ZN9__gnu_cxx27__verbose_terminate_handlerEv@@Base+0xf58>  // b.none
    78a4:	5100c081 	sub	w1, w4, #0x30
    78a8:	53001c21 	uxtb	w1, w1
    78ac:	7100243f 	cmp	w1, #0x9
    78b0:	54fffec8 	b.hi	7888 <_ZN9__gnu_cxx27__verbose_terminate_handlerEv@@Base+0xee8>  // b.pmore
    78b4:	52800005 	mov	w5, #0x0                   	// #0
    78b8:	91000463 	add	x3, x3, #0x1
    78bc:	d2800001 	mov	x1, #0x0                   	// #0
    78c0:	f9000c03 	str	x3, [x0, #24]
    78c4:	d37df022 	lsl	x2, x1, #3
    78c8:	8b010441 	add	x1, x2, x1, lsl #1
    78cc:	8b240021 	add	x1, x1, w4, uxtb
    78d0:	38401464 	ldrb	w4, [x3], #1
    78d4:	d100c021 	sub	x1, x1, #0x30
    78d8:	5100c082 	sub	w2, w4, #0x30
    78dc:	53001c42 	uxtb	w2, w2
    78e0:	7100245f 	cmp	w2, #0x9
    78e4:	54fffee9 	b.ls	78c0 <_ZN9__gnu_cxx27__verbose_terminate_handlerEv@@Base+0xf20>  // b.plast
    78e8:	34fffd05 	cbz	w5, 7888 <_ZN9__gnu_cxx27__verbose_terminate_handlerEv@@Base+0xee8>
    78ec:	d1000420 	sub	x0, x1, #0x1
    78f0:	d37ffc00 	lsr	x0, x0, #63
    78f4:	d65f03c0 	ret
    78f8:	91000823 	add	x3, x1, #0x2
    78fc:	f9000c03 	str	x3, [x0, #24]
    7900:	39400824 	ldrb	w4, [x1, #2]
    7904:	5100c081 	sub	w1, w4, #0x30
    7908:	53001c21 	uxtb	w1, w1
    790c:	7100243f 	cmp	w1, #0x9
    7910:	54fffbc8 	b.hi	7888 <_ZN9__gnu_cxx27__verbose_terminate_handlerEv@@Base+0xee8>  // b.pmore
    7914:	52800025 	mov	w5, #0x1                   	// #1
    7918:	17ffffe8 	b	78b8 <_ZN9__gnu_cxx27__verbose_terminate_handlerEv@@Base+0xf18>
    791c:	f9400c05 	ldr	x5, [x0, #24]
    7920:	394000a1 	ldrb	w1, [x5]
    7924:	7101503f 	cmp	w1, #0x54
    7928:	54000060 	b.eq	7934 <_ZN9__gnu_cxx27__verbose_terminate_handlerEv@@Base+0xf94>  // b.none
    792c:	d2800000 	mov	x0, #0x0                   	// #0
    7930:	d65f03c0 	ret
    7934:	910004a2 	add	x2, x5, #0x1
    7938:	f9000c02 	str	x2, [x0, #24]
    793c:	394004a4 	ldrb	w4, [x5, #1]
    7940:	71017c9f 	cmp	w4, #0x5f
    7944:	540005e0 	b.eq	7a00 <_ZN9__gnu_cxx27__verbose_terminate_handlerEv@@Base+0x1060>  // b.none
    7948:	7101b89f 	cmp	w4, #0x6e
    794c:	54ffff00 	b.eq	792c <_ZN9__gnu_cxx27__verbose_terminate_handlerEv@@Base+0xf8c>  // b.none
    7950:	5100c081 	sub	w1, w4, #0x30
    7954:	53001c21 	uxtb	w1, w1
    7958:	7100243f 	cmp	w1, #0x9
    795c:	54fffe88 	b.hi	792c <_ZN9__gnu_cxx27__verbose_terminate_handlerEv@@Base+0xf8c>  // b.pmore
    7960:	910008a5 	add	x5, x5, #0x2
    7964:	d2800001 	mov	x1, #0x0                   	// #0
    7968:	f9000c05 	str	x5, [x0, #24]
    796c:	d37df023 	lsl	x3, x1, #3
    7970:	8b010461 	add	x1, x3, x1, lsl #1
    7974:	8b240021 	add	x1, x1, w4, uxtb
    7978:	394000a4 	ldrb	w4, [x5]
    797c:	aa0503e2 	mov	x2, x5
    7980:	d100c021 	sub	x1, x1, #0x30
    7984:	910004a5 	add	x5, x5, #0x1
    7988:	5100c083 	sub	w3, w4, #0x30
    798c:	53001c63 	uxtb	w3, w3
    7990:	7100247f 	cmp	w3, #0x9
    7994:	54fffea9 	b.ls	7968 <_ZN9__gnu_cxx27__verbose_terminate_handlerEv@@Base+0xfc8>  // b.plast
    7998:	71017c9f 	cmp	w4, #0x5f
    799c:	91000421 	add	x1, x1, #0x1
    79a0:	54fffc61 	b.ne	792c <_ZN9__gnu_cxx27__verbose_terminate_handlerEv@@Base+0xf8c>  // b.any
    79a4:	b9404004 	ldr	w4, [x0, #64]
    79a8:	91000442 	add	x2, x2, #0x1
    79ac:	b9402803 	ldr	w3, [x0, #40]
    79b0:	b9402c05 	ldr	w5, [x0, #44]
    79b4:	11000484 	add	w4, w4, #0x1
    79b8:	f9000c02 	str	x2, [x0, #24]
    79bc:	b9004004 	str	w4, [x0, #64]
    79c0:	6b05007f 	cmp	w3, w5
    79c4:	54fffb4a 	b.ge	792c <_ZN9__gnu_cxx27__verbose_terminate_handlerEv@@Base+0xf8c>  // b.tcont
    79c8:	93407c62 	sxtw	x2, w3
    79cc:	f9401004 	ldr	x4, [x0, #32]
    79d0:	d37be845 	lsl	x5, x2, #5
    79d4:	11000463 	add	w3, w3, #0x1
    79d8:	cb020ca2 	sub	x2, x5, x2, lsl #3
    79dc:	b9002803 	str	w3, [x0, #40]
    79e0:	ab020083 	adds	x3, x4, x2
    79e4:	d2800000 	mov	x0, #0x0                   	// #0
    79e8:	54fffa40 	b.eq	7930 <_ZN9__gnu_cxx27__verbose_terminate_handlerEv@@Base+0xf90>  // b.none
    79ec:	528000a0 	mov	w0, #0x5                   	// #5
    79f0:	b8226880 	str	w0, [x4, x2]
    79f4:	f9000461 	str	x1, [x3, #8]
    79f8:	aa0303e0 	mov	x0, x3
    79fc:	d65f03c0 	ret
    7a00:	d2800001 	mov	x1, #0x0                   	// #0
    7a04:	17ffffe8 	b	79a4 <_ZN9__gnu_cxx27__verbose_terminate_handlerEv@@Base+0x1004>
    7a08:	a9be7bfd 	stp	x29, x30, [sp, #-32]!
    7a0c:	910003fd 	mov	x29, sp
    7a10:	a90153f3 	stp	x19, x20, [sp, #16]
    7a14:	aa0003f3 	mov	x19, x0
    7a18:	35000161 	cbnz	w1, 7a44 <_ZN9__gnu_cxx27__verbose_terminate_handlerEv@@Base+0x10a4>
    7a1c:	f9400c00 	ldr	x0, [x0, #24]
    7a20:	39400001 	ldrb	w1, [x0]
    7a24:	350000a1 	cbnz	w1, 7a38 <_ZN9__gnu_cxx27__verbose_terminate_handlerEv@@Base+0x1098>
    7a28:	52800000 	mov	w0, #0x0                   	// #0
    7a2c:	a94153f3 	ldp	x19, x20, [sp, #16]
    7a30:	a8c27bfd 	ldp	x29, x30, [sp], #32
    7a34:	d65f03c0 	ret
    7a38:	91000401 	add	x1, x0, #0x1
    7a3c:	f9000e61 	str	x1, [x19, #24]
    7a40:	39400001 	ldrb	w1, [x0]
    7a44:	7101a03f 	cmp	w1, #0x68
    7a48:	540002c0 	b.eq	7aa0 <_ZN9__gnu_cxx27__verbose_terminate_handlerEv@@Base+0x1100>  // b.none
    7a4c:	7101d83f 	cmp	w1, #0x76
    7a50:	54fffec1 	b.ne	7a28 <_ZN9__gnu_cxx27__verbose_terminate_handlerEv@@Base+0x1088>  // b.any
    7a54:	91006274 	add	x20, x19, #0x18
    7a58:	aa1403e0 	mov	x0, x20
    7a5c:	97fffde2 	bl	71e4 <_ZN9__gnu_cxx27__verbose_terminate_handlerEv@@Base+0x844>
    7a60:	f9400e60 	ldr	x0, [x19, #24]
    7a64:	39400001 	ldrb	w1, [x0]
    7a68:	71017c3f 	cmp	w1, #0x5f
    7a6c:	54fffde1 	b.ne	7a28 <_ZN9__gnu_cxx27__verbose_terminate_handlerEv@@Base+0x1088>  // b.any
    7a70:	91000401 	add	x1, x0, #0x1
    7a74:	aa1403e0 	mov	x0, x20
    7a78:	f9000e61 	str	x1, [x19, #24]
    7a7c:	97fffdda 	bl	71e4 <_ZN9__gnu_cxx27__verbose_terminate_handlerEv@@Base+0x844>
    7a80:	f9400e60 	ldr	x0, [x19, #24]
    7a84:	39400002 	ldrb	w2, [x0]
    7a88:	71017c5f 	cmp	w2, #0x5f
    7a8c:	54fffce1 	b.ne	7a28 <_ZN9__gnu_cxx27__verbose_terminate_handlerEv@@Base+0x1088>  // b.any
    7a90:	91000401 	add	x1, x0, #0x1
    7a94:	52800020 	mov	w0, #0x1                   	// #1
    7a98:	f9000e61 	str	x1, [x19, #24]
    7a9c:	17ffffe4 	b	7a2c <_ZN9__gnu_cxx27__verbose_terminate_handlerEv@@Base+0x108c>
    7aa0:	f9400e60 	ldr	x0, [x19, #24]
    7aa4:	39400001 	ldrb	w1, [x0]
    7aa8:	7101b83f 	cmp	w1, #0x6e
    7aac:	540001a0 	b.eq	7ae0 <_ZN9__gnu_cxx27__verbose_terminate_handlerEv@@Base+0x1140>  // b.none
    7ab0:	5100c021 	sub	w1, w1, #0x30
    7ab4:	53001c21 	uxtb	w1, w1
    7ab8:	7100243f 	cmp	w1, #0x9
    7abc:	54fffe48 	b.hi	7a84 <_ZN9__gnu_cxx27__verbose_terminate_handlerEv@@Base+0x10e4>  // b.pmore
    7ac0:	91000400 	add	x0, x0, #0x1
    7ac4:	f9000e60 	str	x0, [x19, #24]
    7ac8:	39400002 	ldrb	w2, [x0]
    7acc:	5100c041 	sub	w1, w2, #0x30
    7ad0:	53001c21 	uxtb	w1, w1
    7ad4:	7100243f 	cmp	w1, #0x9
    7ad8:	54ffff49 	b.ls	7ac0 <_ZN9__gnu_cxx27__verbose_terminate_handlerEv@@Base+0x1120>  // b.plast
    7adc:	17ffffeb 	b	7a88 <_ZN9__gnu_cxx27__verbose_terminate_handlerEv@@Base+0x10e8>
    7ae0:	91000402 	add	x2, x0, #0x1
    7ae4:	f9000e62 	str	x2, [x19, #24]
    7ae8:	39400401 	ldrb	w1, [x0, #1]
    7aec:	aa0203e0 	mov	x0, x2
    7af0:	17fffff0 	b	7ab0 <_ZN9__gnu_cxx27__verbose_terminate_handlerEv@@Base+0x1110>
    7af4:	a9b77bfd 	stp	x29, x30, [sp, #-144]!
    7af8:	910003fd 	mov	x29, sp
    7afc:	f9400c01 	ldr	x1, [x0, #24]
    7b00:	a90153f3 	stp	x19, x20, [sp, #16]
    7b04:	a9046bf9 	stp	x25, x26, [sp, #64]
    7b08:	a9025bf5 	stp	x21, x22, [sp, #32]
    7b0c:	a90363f7 	stp	x23, x24, [sp, #48]
    7b10:	a90573fb 	stp	x27, x28, [sp, #80]
    7b14:	f9402419 	ldr	x25, [x0, #72]
    7b18:	39400035 	ldrb	w21, [x1]
    7b1c:	510126b4 	sub	w20, w21, #0x49
    7b20:	53001e93 	uxtb	w19, w20
    7b24:	7100067f 	cmp	w19, #0x1
    7b28:	54000f28 	b.hi	7d0c <_ZN9__gnu_cxx27__verbose_terminate_handlerEv@@Base+0x136c>  // b.pmore
    7b2c:	9100043c 	add	x28, x1, #0x1
    7b30:	f9000c1c 	str	x28, [x0, #24]
    7b34:	3940043a 	ldrb	w26, [x1, #1]
    7b38:	7101175f 	cmp	w26, #0x45
    7b3c:	54002560 	b.eq	7fe8 <_ZN9__gnu_cxx27__verbose_terminate_handlerEv@@Base+0x1648>  // b.none
    7b40:	910243b3 	add	x19, x29, #0x90
    7b44:	b0000094 	adrp	x20, 18000 <_ZTSN10__cxxabiv117__class_type_infoE@@Base>
    7b48:	b0000098 	adrp	x24, 18000 <_ZTSN10__cxxabiv117__class_type_infoE@@Base>
    7b4c:	b0000096 	adrp	x22, 18000 <_ZTSN10__cxxabiv117__class_type_infoE@@Base>
    7b50:	aa0003fb 	mov	x27, x0
    7b54:	9106c294 	add	x20, x20, #0x1b0
    7b58:	f81f8e7f 	str	xzr, [x19, #-8]!
    7b5c:	91072318 	add	x24, x24, #0x1c8
    7b60:	911662d6 	add	x22, x22, #0x598
    7b64:	5101275a 	sub	w26, w26, #0x49
    7b68:	71003f5f 	cmp	w26, #0xf
    7b6c:	54000369 	b.ls	7bd8 <_ZN9__gnu_cxx27__verbose_terminate_handlerEv@@Base+0x1238>  // b.plast
    7b70:	aa1b03e0 	mov	x0, x27
    7b74:	940006f0 	bl	9734 <_ZN9__gnu_cxx27__verbose_terminate_handlerEv@@Base+0x2d94>
    7b78:	aa0003e2 	mov	x2, x0
    7b7c:	b4000c82 	cbz	x2, 7d0c <_ZN9__gnu_cxx27__verbose_terminate_handlerEv@@Base+0x136c>
    7b80:	aa1b03e0 	mov	x0, x27
    7b84:	528005e1 	mov	w1, #0x2f                  	// #47
    7b88:	d2800003 	mov	x3, #0x0                   	// #0
    7b8c:	97fffbe9 	bl	6b30 <_ZN9__gnu_cxx27__verbose_terminate_handlerEv@@Base+0x190>
    7b90:	f9000260 	str	x0, [x19]
    7b94:	b4000bc0 	cbz	x0, 7d0c <_ZN9__gnu_cxx27__verbose_terminate_handlerEv@@Base+0x136c>
    7b98:	f9400f7c 	ldr	x28, [x27, #24]
    7b9c:	91004013 	add	x19, x0, #0x10
    7ba0:	3940039a 	ldrb	w26, [x28]
    7ba4:	7101175f 	cmp	w26, #0x45
    7ba8:	54fffde1 	b.ne	7b64 <_ZN9__gnu_cxx27__verbose_terminate_handlerEv@@Base+0x11c4>  // b.any
    7bac:	f9002779 	str	x25, [x27, #72]
    7bb0:	9100079c 	add	x28, x28, #0x1
    7bb4:	f9000f7c 	str	x28, [x27, #24]
    7bb8:	f94047a0 	ldr	x0, [x29, #136]
    7bbc:	a94153f3 	ldp	x19, x20, [sp, #16]
    7bc0:	a9425bf5 	ldp	x21, x22, [sp, #32]
    7bc4:	a94363f7 	ldp	x23, x24, [sp, #48]
    7bc8:	a9446bf9 	ldp	x25, x26, [sp, #64]
    7bcc:	a94573fb 	ldp	x27, x28, [sp, #80]
    7bd0:	a8c97bfd 	ldp	x29, x30, [sp], #144
    7bd4:	d65f03c0 	ret
    7bd8:	387a4a80 	ldrb	w0, [x20, w26, uxtw]
    7bdc:	10000061 	adr	x1, 7be8 <_ZN9__gnu_cxx27__verbose_terminate_handlerEv@@Base+0x1248>
    7be0:	8b208820 	add	x0, x1, w0, sxtb #2
    7be4:	d61f0000 	br	x0
    7be8:	91000783 	add	x3, x28, #0x1
    7bec:	b9405775 	ldr	w21, [x27, #84]
    7bf0:	f9000f63 	str	x3, [x27, #24]
    7bf4:	5280003a 	mov	w26, #0x1                   	// #1
    7bf8:	b900577a 	str	w26, [x27, #84]
    7bfc:	39400780 	ldrb	w0, [x28, #1]
    7c00:	7101301f 	cmp	w0, #0x4c
    7c04:	540010a0 	b.eq	7e18 <_ZN9__gnu_cxx27__verbose_terminate_handlerEv@@Base+0x1478>  // b.none
    7c08:	7101501f 	cmp	w0, #0x54
    7c0c:	54001100 	b.eq	7e2c <_ZN9__gnu_cxx27__verbose_terminate_handlerEv@@Base+0x148c>  // b.none
    7c10:	7101cc1f 	cmp	w0, #0x73
    7c14:	54000a80 	b.eq	7d64 <_ZN9__gnu_cxx27__verbose_terminate_handlerEv@@Base+0x13c4>  // b.none
    7c18:	7101981f 	cmp	w0, #0x66
    7c1c:	54000c60 	b.eq	7da8 <_ZN9__gnu_cxx27__verbose_terminate_handlerEv@@Base+0x1408>  // b.none
    7c20:	5100c001 	sub	w1, w0, #0x30
    7c24:	53001c21 	uxtb	w1, w1
    7c28:	7100243f 	cmp	w1, #0x9
    7c2c:	54000589 	b.ls	7cdc <_ZN9__gnu_cxx27__verbose_terminate_handlerEv@@Base+0x133c>  // b.plast
    7c30:	7101bc1f 	cmp	w0, #0x6f
    7c34:	540004a0 	b.eq	7cc8 <_ZN9__gnu_cxx27__verbose_terminate_handlerEv@@Base+0x1328>  // b.none
    7c38:	7101d01f 	cmp	w0, #0x74
    7c3c:	1a9f17e1 	cset	w1, eq	// eq = none
    7c40:	34009401 	cbz	w1, 8ec0 <_ZN9__gnu_cxx27__verbose_terminate_handlerEv@@Base+0x2520>
    7c44:	39400b80 	ldrb	w0, [x28, #2]
    7c48:	7101b01f 	cmp	w0, #0x6c
    7c4c:	540018a0 	b.eq	7f60 <_ZN9__gnu_cxx27__verbose_terminate_handlerEv@@Base+0x15c0>  // b.none
    7c50:	aa1b03e0 	mov	x0, x27
    7c54:	94000ca6 	bl	aeec <_ZN9__gnu_cxx27__verbose_terminate_handlerEv@@Base+0x454c>
    7c58:	aa0003f7 	mov	x23, x0
    7c5c:	b40007e0 	cbz	x0, 7d58 <_ZN9__gnu_cxx27__verbose_terminate_handlerEv@@Base+0x13b8>
    7c60:	b9400000 	ldr	w0, [x0]
    7c64:	7100c41f 	cmp	w0, #0x31
    7c68:	54000ec0 	b.eq	7e40 <_ZN9__gnu_cxx27__verbose_terminate_handlerEv@@Base+0x14a0>  // b.none
    7c6c:	7100c81f 	cmp	w0, #0x32
    7c70:	54001980 	b.eq	7fa0 <_ZN9__gnu_cxx27__verbose_terminate_handlerEv@@Base+0x1600>  // b.none
    7c74:	7100cc1f 	cmp	w0, #0x33
    7c78:	54000701 	b.ne	7d58 <_ZN9__gnu_cxx27__verbose_terminate_handlerEv@@Base+0x13b8>  // b.any
    7c7c:	f9400f60 	ldr	x0, [x27, #24]
    7c80:	39400001 	ldrb	w1, [x0]
    7c84:	71017c3f 	cmp	w1, #0x5f
    7c88:	54001cc1 	b.ne	8020 <_ZN9__gnu_cxx27__verbose_terminate_handlerEv@@Base+0x1680>  // b.any
    7c8c:	91000401 	add	x1, x0, #0x1
    7c90:	aa1b03e0 	mov	x0, x27
    7c94:	f9000f61 	str	x1, [x27, #24]
    7c98:	528008a1 	mov	w1, #0x45                  	// #69
    7c9c:	940004d1 	bl	8fe0 <_ZN9__gnu_cxx27__verbose_terminate_handlerEv@@Base+0x2640>
    7ca0:	aa0003e3 	mov	x3, x0
    7ca4:	140000e2 	b	802c <_ZN9__gnu_cxx27__verbose_terminate_handlerEv@@Base+0x168c>
    7ca8:	aa1b03e0 	mov	x0, x27
    7cac:	9400118a 	bl	c2d4 <_ZN9__gnu_cxx27__verbose_terminate_handlerEv@@Base+0x5934>
    7cb0:	aa0003e2 	mov	x2, x0
    7cb4:	17ffffb2 	b	7b7c <_ZN9__gnu_cxx27__verbose_terminate_handlerEv@@Base+0x11dc>
    7cb8:	aa1b03e0 	mov	x0, x27
    7cbc:	97ffff8e 	bl	7af4 <_ZN9__gnu_cxx27__verbose_terminate_handlerEv@@Base+0x1154>
    7cc0:	aa0003e2 	mov	x2, x0
    7cc4:	17ffffae 	b	7b7c <_ZN9__gnu_cxx27__verbose_terminate_handlerEv@@Base+0x11dc>
    7cc8:	39400b80 	ldrb	w0, [x28, #2]
    7ccc:	7101b81f 	cmp	w0, #0x6e
    7cd0:	54fffc01 	b.ne	7c50 <_ZN9__gnu_cxx27__verbose_terminate_handlerEv@@Base+0x12b0>  // b.any
    7cd4:	91000f9c 	add	x28, x28, #0x3
    7cd8:	f9000f7c 	str	x28, [x27, #24]
    7cdc:	aa1b03e0 	mov	x0, x27
    7ce0:	94000d00 	bl	b0e0 <_ZN9__gnu_cxx27__verbose_terminate_handlerEv@@Base+0x4740>
    7ce4:	f9400f61 	ldr	x1, [x27, #24]
    7ce8:	b40003a0 	cbz	x0, 7d5c <_ZN9__gnu_cxx27__verbose_terminate_handlerEv@@Base+0x13bc>
    7cec:	aa0003e2 	mov	x2, x0
    7cf0:	39400020 	ldrb	w0, [x1]
    7cf4:	7101241f 	cmp	w0, #0x49
    7cf8:	54001620 	b.eq	7fbc <_ZN9__gnu_cxx27__verbose_terminate_handlerEv@@Base+0x161c>  // b.none
    7cfc:	b9005775 	str	w21, [x27, #84]
    7d00:	39400020 	ldrb	w0, [x1]
    7d04:	7101141f 	cmp	w0, #0x45
    7d08:	54000120 	b.eq	7d2c <_ZN9__gnu_cxx27__verbose_terminate_handlerEv@@Base+0x138c>  // b.none
    7d0c:	a94153f3 	ldp	x19, x20, [sp, #16]
    7d10:	a9425bf5 	ldp	x21, x22, [sp, #32]
    7d14:	a94363f7 	ldp	x23, x24, [sp, #48]
    7d18:	a9446bf9 	ldp	x25, x26, [sp, #64]
    7d1c:	a94573fb 	ldp	x27, x28, [sp, #80]
    7d20:	d2800000 	mov	x0, #0x0                   	// #0
    7d24:	a8c97bfd 	ldp	x29, x30, [sp], #144
    7d28:	d65f03c0 	ret
    7d2c:	91000421 	add	x1, x1, #0x1
    7d30:	f9000f61 	str	x1, [x27, #24]
    7d34:	17ffff92 	b	7b7c <_ZN9__gnu_cxx27__verbose_terminate_handlerEv@@Base+0x11dc>
    7d38:	d280001a 	mov	x26, #0x0                   	// #0
    7d3c:	aa1a03e0 	mov	x0, x26
    7d40:	aa1603e1 	mov	x1, x22
    7d44:	97fff337 	bl	4a20 <strcmp@plt>
    7d48:	340026a0 	cbz	w0, 821c <_ZN9__gnu_cxx27__verbose_terminate_handlerEv@@Base+0x187c>
    7d4c:	39400340 	ldrb	w0, [x26]
    7d50:	7101b81f 	cmp	w0, #0x6e
    7d54:	54001d80 	b.eq	8104 <_ZN9__gnu_cxx27__verbose_terminate_handlerEv@@Base+0x1764>  // b.none
    7d58:	f9400f61 	ldr	x1, [x27, #24]
    7d5c:	d2800002 	mov	x2, #0x0                   	// #0
    7d60:	17ffffe7 	b	7cfc <_ZN9__gnu_cxx27__verbose_terminate_handlerEv@@Base+0x135c>
    7d64:	39400b80 	ldrb	w0, [x28, #2]
    7d68:	7101c81f 	cmp	w0, #0x72
    7d6c:	540016e0 	b.eq	8048 <_ZN9__gnu_cxx27__verbose_terminate_handlerEv@@Base+0x16a8>  // b.none
    7d70:	7101c01f 	cmp	w0, #0x70
    7d74:	54fff6e1 	b.ne	7c50 <_ZN9__gnu_cxx27__verbose_terminate_handlerEv@@Base+0x12b0>  // b.any
    7d78:	91000f9c 	add	x28, x28, #0x3
    7d7c:	aa1b03e0 	mov	x0, x27
    7d80:	f9000f7c 	str	x28, [x27, #24]
    7d84:	940011b2 	bl	c44c <_ZN9__gnu_cxx27__verbose_terminate_handlerEv@@Base+0x5aac>
    7d88:	aa0003e2 	mov	x2, x0
    7d8c:	52800941 	mov	w1, #0x4a                  	// #74
    7d90:	aa1b03e0 	mov	x0, x27
    7d94:	d2800003 	mov	x3, #0x0                   	// #0
    7d98:	97fffb66 	bl	6b30 <_ZN9__gnu_cxx27__verbose_terminate_handlerEv@@Base+0x190>
    7d9c:	aa0003e2 	mov	x2, x0
    7da0:	f9400f61 	ldr	x1, [x27, #24]
    7da4:	17ffffd6 	b	7cfc <_ZN9__gnu_cxx27__verbose_terminate_handlerEv@@Base+0x135c>
    7da8:	39400b80 	ldrb	w0, [x28, #2]
    7dac:	7101c01f 	cmp	w0, #0x70
    7db0:	54fff501 	b.ne	7c50 <_ZN9__gnu_cxx27__verbose_terminate_handlerEv@@Base+0x12b0>  // b.any
    7db4:	91000f80 	add	x0, x28, #0x3
    7db8:	f9000f60 	str	x0, [x27, #24]
    7dbc:	39400f80 	ldrb	w0, [x28, #3]
    7dc0:	7101501f 	cmp	w0, #0x54
    7dc4:	54001681 	b.ne	8094 <_ZN9__gnu_cxx27__verbose_terminate_handlerEv@@Base+0x16f4>  // b.any
    7dc8:	9100139c 	add	x28, x28, #0x4
    7dcc:	d280001a 	mov	x26, #0x0                   	// #0
    7dd0:	f9000f7c 	str	x28, [x27, #24]
    7dd4:	b9402b62 	ldr	w2, [x27, #40]
    7dd8:	b9402f60 	ldr	w0, [x27, #44]
    7ddc:	6b00005f 	cmp	w2, w0
    7de0:	54fffbca 	b.ge	7d58 <_ZN9__gnu_cxx27__verbose_terminate_handlerEv@@Base+0x13b8>  // b.tcont
    7de4:	93407c40 	sxtw	x0, w2
    7de8:	f9401361 	ldr	x1, [x27, #32]
    7dec:	d37be803 	lsl	x3, x0, #5
    7df0:	11000442 	add	w2, w2, #0x1
    7df4:	cb000c60 	sub	x0, x3, x0, lsl #3
    7df8:	b9002b62 	str	w2, [x27, #40]
    7dfc:	ab000022 	adds	x2, x1, x0
    7e00:	54fffac0 	b.eq	7d58 <_ZN9__gnu_cxx27__verbose_terminate_handlerEv@@Base+0x13b8>  // b.none
    7e04:	528000c3 	mov	w3, #0x6                   	// #6
    7e08:	b8206823 	str	w3, [x1, x0]
    7e0c:	f900045a 	str	x26, [x2, #8]
    7e10:	f9400f61 	ldr	x1, [x27, #24]
    7e14:	17ffffba 	b	7cfc <_ZN9__gnu_cxx27__verbose_terminate_handlerEv@@Base+0x135c>
    7e18:	aa1b03e0 	mov	x0, x27
    7e1c:	9400112e 	bl	c2d4 <_ZN9__gnu_cxx27__verbose_terminate_handlerEv@@Base+0x5934>
    7e20:	aa0003e2 	mov	x2, x0
    7e24:	f9400f61 	ldr	x1, [x27, #24]
    7e28:	17ffffb5 	b	7cfc <_ZN9__gnu_cxx27__verbose_terminate_handlerEv@@Base+0x135c>
    7e2c:	aa1b03e0 	mov	x0, x27
    7e30:	97fffebb 	bl	791c <_ZN9__gnu_cxx27__verbose_terminate_handlerEv@@Base+0xf7c>
    7e34:	aa0003e2 	mov	x2, x0
    7e38:	f9400f61 	ldr	x1, [x27, #24]
    7e3c:	17ffffb0 	b	7cfc <_ZN9__gnu_cxx27__verbose_terminate_handlerEv@@Base+0x135c>
    7e40:	f94006fc 	ldr	x28, [x23, #8]
    7e44:	b0000081 	adrp	x1, 18000 <_ZTSN10__cxxabiv117__class_type_infoE@@Base>
    7e48:	b9405362 	ldr	w2, [x27, #80]
    7e4c:	912c0021 	add	x1, x1, #0xb00
    7e50:	b9401380 	ldr	w0, [x28, #16]
    7e54:	f940039a 	ldr	x26, [x28]
    7e58:	51000800 	sub	w0, w0, #0x2
    7e5c:	0b000042 	add	w2, w2, w0
    7e60:	aa1a03e0 	mov	x0, x26
    7e64:	b9005362 	str	w2, [x27, #80]
    7e68:	97fff2ee 	bl	4a20 <strcmp@plt>
    7e6c:	34001bc0 	cbz	w0, 81e4 <_ZN9__gnu_cxx27__verbose_terminate_handlerEv@@Base+0x1844>
    7e70:	b9401780 	ldr	w0, [x28, #20]
    7e74:	71000c1f 	cmp	w0, #0x3
    7e78:	54fff708 	b.hi	7d58 <_ZN9__gnu_cxx27__verbose_terminate_handlerEv@@Base+0x13b8>  // b.pmore
    7e7c:	b0000081 	adrp	x1, 18000 <_ZTSN10__cxxabiv117__class_type_infoE@@Base>
    7e80:	91070021 	add	x1, x1, #0x1c0
    7e84:	78605820 	ldrh	w0, [x1, w0, uxtw #1]
    7e88:	10000061 	adr	x1, 7e94 <_ZN9__gnu_cxx27__verbose_terminate_handlerEv@@Base+0x14f4>
    7e8c:	8b20a820 	add	x0, x1, w0, sxth #2
    7e90:	d61f0000 	br	x0
    7e94:	d280001a 	mov	x26, #0x0                   	// #0
    7e98:	f94006e0 	ldr	x0, [x23, #8]
    7e9c:	f9400000 	ldr	x0, [x0]
    7ea0:	39400401 	ldrb	w1, [x0, #1]
    7ea4:	71018c3f 	cmp	w1, #0x63
    7ea8:	540027e0 	b.eq	83a4 <_ZN9__gnu_cxx27__verbose_terminate_handlerEv@@Base+0x1a04>  // b.none
    7eac:	aa1b03e0 	mov	x0, x27
    7eb0:	94001167 	bl	c44c <_ZN9__gnu_cxx27__verbose_terminate_handlerEv@@Base+0x5aac>
    7eb4:	aa0003fc 	mov	x28, x0
    7eb8:	b0000081 	adrp	x1, 18000 <_ZTSN10__cxxabiv117__class_type_infoE@@Base>
    7ebc:	aa1a03e0 	mov	x0, x26
    7ec0:	91160021 	add	x1, x1, #0x580
    7ec4:	97fff2d7 	bl	4a20 <strcmp@plt>
    7ec8:	34001a00 	cbz	w0, 8208 <_ZN9__gnu_cxx27__verbose_terminate_handlerEv@@Base+0x1868>
    7ecc:	b0000081 	adrp	x1, 18000 <_ZTSN10__cxxabiv117__class_type_infoE@@Base>
    7ed0:	aa1a03e0 	mov	x0, x26
    7ed4:	91162021 	add	x1, x1, #0x588
    7ed8:	97fff2d2 	bl	4a20 <strcmp@plt>
    7edc:	340000c0 	cbz	w0, 7ef4 <_ZN9__gnu_cxx27__verbose_terminate_handlerEv@@Base+0x1554>
    7ee0:	b0000081 	adrp	x1, 18000 <_ZTSN10__cxxabiv117__class_type_infoE@@Base>
    7ee4:	aa1a03e0 	mov	x0, x26
    7ee8:	91164021 	add	x1, x1, #0x590
    7eec:	97fff2cd 	bl	4a20 <strcmp@plt>
    7ef0:	35002740 	cbnz	w0, 83d8 <_ZN9__gnu_cxx27__verbose_terminate_handlerEv@@Base+0x1a38>
    7ef4:	aa1b03e0 	mov	x0, x27
    7ef8:	94000c7a 	bl	b0e0 <_ZN9__gnu_cxx27__verbose_terminate_handlerEv@@Base+0x4740>
    7efc:	aa0003e3 	mov	x3, x0
    7f00:	f9400f60 	ldr	x0, [x27, #24]
    7f04:	39400000 	ldrb	w0, [x0]
    7f08:	7101241f 	cmp	w0, #0x49
    7f0c:	54002760 	b.eq	83f8 <_ZN9__gnu_cxx27__verbose_terminate_handlerEv@@Base+0x1a58>  // b.none
    7f10:	52800701 	mov	w1, #0x38                  	// #56
    7f14:	aa1c03e2 	mov	x2, x28
    7f18:	aa1b03e0 	mov	x0, x27
    7f1c:	97fffb05 	bl	6b30 <_ZN9__gnu_cxx27__verbose_terminate_handlerEv@@Base+0x190>
    7f20:	aa0003e3 	mov	x3, x0
    7f24:	528006e1 	mov	w1, #0x37                  	// #55
    7f28:	aa1703e2 	mov	x2, x23
    7f2c:	aa1b03e0 	mov	x0, x27
    7f30:	97fffb00 	bl	6b30 <_ZN9__gnu_cxx27__verbose_terminate_handlerEv@@Base+0x190>
    7f34:	aa0003e2 	mov	x2, x0
    7f38:	f9400f61 	ldr	x1, [x27, #24]
    7f3c:	17ffff70 	b	7cfc <_ZN9__gnu_cxx27__verbose_terminate_handlerEv@@Base+0x135c>
    7f40:	528006a1 	mov	w1, #0x35                  	// #53
    7f44:	aa1703e2 	mov	x2, x23
    7f48:	aa1b03e0 	mov	x0, x27
    7f4c:	d2800003 	mov	x3, #0x0                   	// #0
    7f50:	97fffaf8 	bl	6b30 <_ZN9__gnu_cxx27__verbose_terminate_handlerEv@@Base+0x190>
    7f54:	aa0003e2 	mov	x2, x0
    7f58:	f9400f61 	ldr	x1, [x27, #24]
    7f5c:	17ffff68 	b	7cfc <_ZN9__gnu_cxx27__verbose_terminate_handlerEv@@Base+0x135c>
    7f60:	d2800002 	mov	x2, #0x0                   	// #0
    7f64:	35001481 	cbnz	w1, 81f4 <_ZN9__gnu_cxx27__verbose_terminate_handlerEv@@Base+0x1854>
    7f68:	91000863 	add	x3, x3, #0x2
    7f6c:	528008a1 	mov	w1, #0x45                  	// #69
    7f70:	f9000f63 	str	x3, [x27, #24]
    7f74:	aa1b03e0 	mov	x0, x27
    7f78:	f9003fa2 	str	x2, [x29, #120]
    7f7c:	94000419 	bl	8fe0 <_ZN9__gnu_cxx27__verbose_terminate_handlerEv@@Base+0x2640>
    7f80:	aa0003e3 	mov	x3, x0
    7f84:	f9403fa2 	ldr	x2, [x29, #120]
    7f88:	52800601 	mov	w1, #0x30                  	// #48
    7f8c:	aa1b03e0 	mov	x0, x27
    7f90:	97fffae8 	bl	6b30 <_ZN9__gnu_cxx27__verbose_terminate_handlerEv@@Base+0x190>
    7f94:	aa0003e2 	mov	x2, x0
    7f98:	f9400f61 	ldr	x1, [x27, #24]
    7f9c:	17ffff58 	b	7cfc <_ZN9__gnu_cxx27__verbose_terminate_handlerEv@@Base+0x135c>
    7fa0:	b9400ae0 	ldr	w0, [x23, #8]
    7fa4:	71000c1f 	cmp	w0, #0x3
    7fa8:	54ffed88 	b.hi	7d58 <_ZN9__gnu_cxx27__verbose_terminate_handlerEv@@Base+0x13b8>  // b.pmore
    7fac:	78605b00 	ldrh	w0, [x24, w0, uxtw #1]
    7fb0:	10000061 	adr	x1, 7fbc <_ZN9__gnu_cxx27__verbose_terminate_handlerEv@@Base+0x161c>
    7fb4:	8b20a820 	add	x0, x1, w0, sxth #2
    7fb8:	d61f0000 	br	x0
    7fbc:	aa1b03e0 	mov	x0, x27
    7fc0:	f9003fa2 	str	x2, [x29, #120]
    7fc4:	97fffecc 	bl	7af4 <_ZN9__gnu_cxx27__verbose_terminate_handlerEv@@Base+0x1154>
    7fc8:	aa0003e3 	mov	x3, x0
    7fcc:	f9403fa2 	ldr	x2, [x29, #120]
    7fd0:	52800081 	mov	w1, #0x4                   	// #4
    7fd4:	aa1b03e0 	mov	x0, x27
    7fd8:	97fffad6 	bl	6b30 <_ZN9__gnu_cxx27__verbose_terminate_handlerEv@@Base+0x190>
    7fdc:	aa0003e2 	mov	x2, x0
    7fe0:	f9400f61 	ldr	x1, [x27, #24]
    7fe4:	17ffff46 	b	7cfc <_ZN9__gnu_cxx27__verbose_terminate_handlerEv@@Base+0x135c>
    7fe8:	91000822 	add	x2, x1, #0x2
    7fec:	f9000c02 	str	x2, [x0, #24]
    7ff0:	a94153f3 	ldp	x19, x20, [sp, #16]
    7ff4:	a9425bf5 	ldp	x21, x22, [sp, #32]
    7ff8:	a94363f7 	ldp	x23, x24, [sp, #48]
    7ffc:	a9446bf9 	ldp	x25, x26, [sp, #64]
    8000:	a94573fb 	ldp	x27, x28, [sp, #80]
    8004:	a8c97bfd 	ldp	x29, x30, [sp], #144
    8008:	528005e1 	mov	w1, #0x2f                  	// #47
    800c:	d2800002 	mov	x2, #0x0                   	// #0
    8010:	d2800003 	mov	x3, #0x0                   	// #0
    8014:	17fffac7 	b	6b30 <_ZN9__gnu_cxx27__verbose_terminate_handlerEv@@Base+0x190>
    8018:	91000400 	add	x0, x0, #0x1
    801c:	f9000f60 	str	x0, [x27, #24]
    8020:	aa1b03e0 	mov	x0, x27
    8024:	9400110a 	bl	c44c <_ZN9__gnu_cxx27__verbose_terminate_handlerEv@@Base+0x5aac>
    8028:	aa0003e3 	mov	x3, x0
    802c:	528006c1 	mov	w1, #0x36                  	// #54
    8030:	aa1703e2 	mov	x2, x23
    8034:	aa1b03e0 	mov	x0, x27
    8038:	97fffabe 	bl	6b30 <_ZN9__gnu_cxx27__verbose_terminate_handlerEv@@Base+0x190>
    803c:	aa0003e2 	mov	x2, x0
    8040:	f9400f61 	ldr	x1, [x27, #24]
    8044:	17ffff2e 	b	7cfc <_ZN9__gnu_cxx27__verbose_terminate_handlerEv@@Base+0x135c>
    8048:	91000f9c 	add	x28, x28, #0x3
    804c:	aa1b03e0 	mov	x0, x27
    8050:	f9000f7c 	str	x28, [x27, #24]
    8054:	940005b8 	bl	9734 <_ZN9__gnu_cxx27__verbose_terminate_handlerEv@@Base+0x2d94>
    8058:	aa0003f7 	mov	x23, x0
    805c:	aa1b03e0 	mov	x0, x27
    8060:	94000c20 	bl	b0e0 <_ZN9__gnu_cxx27__verbose_terminate_handlerEv@@Base+0x4740>
    8064:	aa0003e3 	mov	x3, x0
    8068:	f9400f60 	ldr	x0, [x27, #24]
    806c:	39400000 	ldrb	w0, [x0]
    8070:	7101241f 	cmp	w0, #0x49
    8074:	54000a00 	b.eq	81b4 <_ZN9__gnu_cxx27__verbose_terminate_handlerEv@@Base+0x1814>  // b.none
    8078:	2a1a03e1 	mov	w1, w26
    807c:	aa1703e2 	mov	x2, x23
    8080:	aa1b03e0 	mov	x0, x27
    8084:	97fffaab 	bl	6b30 <_ZN9__gnu_cxx27__verbose_terminate_handlerEv@@Base+0x190>
    8088:	aa0003e2 	mov	x2, x0
    808c:	f9400f61 	ldr	x1, [x27, #24]
    8090:	17ffff1b 	b	7cfc <_ZN9__gnu_cxx27__verbose_terminate_handlerEv@@Base+0x135c>
    8094:	aa1b03e0 	mov	x0, x27
    8098:	97fffdd5 	bl	77ec <_ZN9__gnu_cxx27__verbose_terminate_handlerEv@@Base+0xe4c>
    809c:	11000400 	add	w0, w0, #0x1
    80a0:	93407c1a 	sxtw	x26, w0
    80a4:	35ffe980 	cbnz	w0, 7dd4 <_ZN9__gnu_cxx27__verbose_terminate_handlerEv@@Base+0x1434>
    80a8:	f9400f61 	ldr	x1, [x27, #24]
    80ac:	17ffff2c 	b	7d5c <_ZN9__gnu_cxx27__verbose_terminate_handlerEv@@Base+0x13bc>
    80b0:	39400340 	ldrb	w0, [x26]
    80b4:	7101b41f 	cmp	w0, #0x6d
    80b8:	54000060 	b.eq	80c4 <_ZN9__gnu_cxx27__verbose_terminate_handlerEv@@Base+0x1724>  // b.none
    80bc:	7101c01f 	cmp	w0, #0x70
    80c0:	54fffb01 	b.ne	8020 <_ZN9__gnu_cxx27__verbose_terminate_handlerEv@@Base+0x1680>  // b.any
    80c4:	39400741 	ldrb	w1, [x26, #1]
    80c8:	6b00003f 	cmp	w1, w0
    80cc:	54fffaa1 	b.ne	8020 <_ZN9__gnu_cxx27__verbose_terminate_handlerEv@@Base+0x1680>  // b.any
    80d0:	f9400f60 	ldr	x0, [x27, #24]
    80d4:	39400001 	ldrb	w1, [x0]
    80d8:	71017c3f 	cmp	w1, #0x5f
    80dc:	54fff9e0 	b.eq	8018 <_ZN9__gnu_cxx27__verbose_terminate_handlerEv@@Base+0x1678>  // b.none
    80e0:	aa1b03e0 	mov	x0, x27
    80e4:	940010da 	bl	c44c <_ZN9__gnu_cxx27__verbose_terminate_handlerEv@@Base+0x5aac>
    80e8:	aa0003e2 	mov	x2, x0
    80ec:	aa0203e3 	mov	x3, x2
    80f0:	aa1b03e0 	mov	x0, x27
    80f4:	52800701 	mov	w1, #0x38                  	// #56
    80f8:	97fffa8e 	bl	6b30 <_ZN9__gnu_cxx27__verbose_terminate_handlerEv@@Base+0x190>
    80fc:	aa0003e3 	mov	x3, x0
    8100:	17ffffcb 	b	802c <_ZN9__gnu_cxx27__verbose_terminate_handlerEv@@Base+0x168c>
    8104:	39400740 	ldrb	w0, [x26, #1]
    8108:	7101841f 	cmp	w0, #0x61
    810c:	54000060 	b.eq	8118 <_ZN9__gnu_cxx27__verbose_terminate_handlerEv@@Base+0x1778>  // b.none
    8110:	7101dc1f 	cmp	w0, #0x77
    8114:	54ffe221 	b.ne	7d58 <_ZN9__gnu_cxx27__verbose_terminate_handlerEv@@Base+0x13b8>  // b.any
    8118:	52800be1 	mov	w1, #0x5f                  	// #95
    811c:	aa1b03e0 	mov	x0, x27
    8120:	940003b0 	bl	8fe0 <_ZN9__gnu_cxx27__verbose_terminate_handlerEv@@Base+0x2640>
    8124:	f9003fa0 	str	x0, [x29, #120]
    8128:	aa1b03e0 	mov	x0, x27
    812c:	94000582 	bl	9734 <_ZN9__gnu_cxx27__verbose_terminate_handlerEv@@Base+0x2d94>
    8130:	aa0003fa 	mov	x26, x0
    8134:	f9400f61 	ldr	x1, [x27, #24]
    8138:	39400020 	ldrb	w0, [x1]
    813c:	7101141f 	cmp	w0, #0x45
    8140:	54001540 	b.eq	83e8 <_ZN9__gnu_cxx27__verbose_terminate_handlerEv@@Base+0x1a48>  // b.none
    8144:	7101c01f 	cmp	w0, #0x70
    8148:	54001c80 	b.eq	84d8 <_ZN9__gnu_cxx27__verbose_terminate_handlerEv@@Base+0x1b38>  // b.none
    814c:	7101a41f 	cmp	w0, #0x69
    8150:	d2800002 	mov	x2, #0x0                   	// #0
    8154:	54ffdd41 	b.ne	7cfc <_ZN9__gnu_cxx27__verbose_terminate_handlerEv@@Base+0x135c>  // b.any
    8158:	39400420 	ldrb	w0, [x1, #1]
    815c:	7101b01f 	cmp	w0, #0x6c
    8160:	54ffdce1 	b.ne	7cfc <_ZN9__gnu_cxx27__verbose_terminate_handlerEv@@Base+0x135c>  // b.any
    8164:	aa1b03e0 	mov	x0, x27
    8168:	940010b9 	bl	c44c <_ZN9__gnu_cxx27__verbose_terminate_handlerEv@@Base+0x5aac>
    816c:	aa0003e3 	mov	x3, x0
    8170:	52800761 	mov	w1, #0x3b                  	// #59
    8174:	aa1a03e2 	mov	x2, x26
    8178:	aa1b03e0 	mov	x0, x27
    817c:	97fffa6d 	bl	6b30 <_ZN9__gnu_cxx27__verbose_terminate_handlerEv@@Base+0x190>
    8180:	aa0003e3 	mov	x3, x0
    8184:	f9403fa2 	ldr	x2, [x29, #120]
    8188:	52800741 	mov	w1, #0x3a                  	// #58
    818c:	aa1b03e0 	mov	x0, x27
    8190:	97fffa68 	bl	6b30 <_ZN9__gnu_cxx27__verbose_terminate_handlerEv@@Base+0x190>
    8194:	aa0003e3 	mov	x3, x0
    8198:	52800721 	mov	w1, #0x39                  	// #57
    819c:	aa1703e2 	mov	x2, x23
    81a0:	aa1b03e0 	mov	x0, x27
    81a4:	97fffa63 	bl	6b30 <_ZN9__gnu_cxx27__verbose_terminate_handlerEv@@Base+0x190>
    81a8:	aa0003e2 	mov	x2, x0
    81ac:	f9400f61 	ldr	x1, [x27, #24]
    81b0:	17fffed3 	b	7cfc <_ZN9__gnu_cxx27__verbose_terminate_handlerEv@@Base+0x135c>
    81b4:	aa1b03e0 	mov	x0, x27
    81b8:	f9003fa3 	str	x3, [x29, #120]
    81bc:	97fffe4e 	bl	7af4 <_ZN9__gnu_cxx27__verbose_terminate_handlerEv@@Base+0x1154>
    81c0:	aa0003e5 	mov	x5, x0
    81c4:	f9403fa3 	ldr	x3, [x29, #120]
    81c8:	aa1b03e0 	mov	x0, x27
    81cc:	52800081 	mov	w1, #0x4                   	// #4
    81d0:	aa0303e2 	mov	x2, x3
    81d4:	aa0503e3 	mov	x3, x5
    81d8:	97fffa56 	bl	6b30 <_ZN9__gnu_cxx27__verbose_terminate_handlerEv@@Base+0x190>
    81dc:	aa0003e3 	mov	x3, x0
    81e0:	17ffffa6 	b	8078 <_ZN9__gnu_cxx27__verbose_terminate_handlerEv@@Base+0x16d8>
    81e4:	aa1b03e0 	mov	x0, x27
    81e8:	94000553 	bl	9734 <_ZN9__gnu_cxx27__verbose_terminate_handlerEv@@Base+0x2d94>
    81ec:	aa0003e3 	mov	x3, x0
    81f0:	17ffff8f 	b	802c <_ZN9__gnu_cxx27__verbose_terminate_handlerEv@@Base+0x168c>
    81f4:	aa1b03e0 	mov	x0, x27
    81f8:	9400054f 	bl	9734 <_ZN9__gnu_cxx27__verbose_terminate_handlerEv@@Base+0x2d94>
    81fc:	aa0003e2 	mov	x2, x0
    8200:	f9400f63 	ldr	x3, [x27, #24]
    8204:	17ffff59 	b	7f68 <_ZN9__gnu_cxx27__verbose_terminate_handlerEv@@Base+0x15c8>
    8208:	aa1b03e0 	mov	x0, x27
    820c:	528008a1 	mov	w1, #0x45                  	// #69
    8210:	94000374 	bl	8fe0 <_ZN9__gnu_cxx27__verbose_terminate_handlerEv@@Base+0x2640>
    8214:	aa0003e3 	mov	x3, x0
    8218:	17ffff3e 	b	7f10 <_ZN9__gnu_cxx27__verbose_terminate_handlerEv@@Base+0x1570>
    821c:	aa1b03e0 	mov	x0, x27
    8220:	9400108b 	bl	c44c <_ZN9__gnu_cxx27__verbose_terminate_handlerEv@@Base+0x5aac>
    8224:	f9003fa0 	str	x0, [x29, #120]
    8228:	f9400f61 	ldr	x1, [x27, #24]
    822c:	39400020 	ldrb	w0, [x1]
    8230:	7101301f 	cmp	w0, #0x4c
    8234:	54002fa0 	b.eq	8828 <_ZN9__gnu_cxx27__verbose_terminate_handlerEv@@Base+0x1e88>  // b.none
    8238:	7101501f 	cmp	w0, #0x54
    823c:	54002600 	b.eq	86fc <_ZN9__gnu_cxx27__verbose_terminate_handlerEv@@Base+0x1d5c>  // b.none
    8240:	7101cc1f 	cmp	w0, #0x73
    8244:	54001dc0 	b.eq	85fc <_ZN9__gnu_cxx27__verbose_terminate_handlerEv@@Base+0x1c5c>  // b.none
    8248:	7101981f 	cmp	w0, #0x66
    824c:	54001b40 	b.eq	85b4 <_ZN9__gnu_cxx27__verbose_terminate_handlerEv@@Base+0x1c14>  // b.none
    8250:	5100c002 	sub	w2, w0, #0x30
    8254:	53001c42 	uxtb	w2, w2
    8258:	7100245f 	cmp	w2, #0x9
    825c:	54001229 	b.ls	84a0 <_ZN9__gnu_cxx27__verbose_terminate_handlerEv@@Base+0x1b00>  // b.plast
    8260:	7101bc1f 	cmp	w0, #0x6f
    8264:	54001140 	b.eq	848c <_ZN9__gnu_cxx27__verbose_terminate_handlerEv@@Base+0x1aec>  // b.none
    8268:	7101d01f 	cmp	w0, #0x74
    826c:	1a9f17e3 	cset	w3, eq	// eq = none
    8270:	35000063 	cbnz	w3, 827c <_ZN9__gnu_cxx27__verbose_terminate_handlerEv@@Base+0x18dc>
    8274:	7101a41f 	cmp	w0, #0x69
    8278:	54000081 	b.ne	8288 <_ZN9__gnu_cxx27__verbose_terminate_handlerEv@@Base+0x18e8>  // b.any
    827c:	39400420 	ldrb	w0, [x1, #1]
    8280:	7101b01f 	cmp	w0, #0x6c
    8284:	54001e80 	b.eq	8654 <_ZN9__gnu_cxx27__verbose_terminate_handlerEv@@Base+0x1cb4>  // b.none
    8288:	aa1b03e0 	mov	x0, x27
    828c:	94000b18 	bl	aeec <_ZN9__gnu_cxx27__verbose_terminate_handlerEv@@Base+0x454c>
    8290:	aa0003fa 	mov	x26, x0
    8294:	b4001d20 	cbz	x0, 8638 <_ZN9__gnu_cxx27__verbose_terminate_handlerEv@@Base+0x1c98>
    8298:	b9400000 	ldr	w0, [x0]
    829c:	7100c41f 	cmp	w0, #0x31
    82a0:	54002960 	b.eq	87cc <_ZN9__gnu_cxx27__verbose_terminate_handlerEv@@Base+0x1e2c>  // b.none
    82a4:	7100c81f 	cmp	w0, #0x32
    82a8:	54001f80 	b.eq	8698 <_ZN9__gnu_cxx27__verbose_terminate_handlerEv@@Base+0x1cf8>  // b.none
    82ac:	7100cc1f 	cmp	w0, #0x33
    82b0:	54001ca1 	b.ne	8644 <_ZN9__gnu_cxx27__verbose_terminate_handlerEv@@Base+0x1ca4>  // b.any
    82b4:	f9400f60 	ldr	x0, [x27, #24]
    82b8:	39400001 	ldrb	w1, [x0]
    82bc:	71017c3f 	cmp	w1, #0x5f
    82c0:	54005f20 	b.eq	8ea4 <_ZN9__gnu_cxx27__verbose_terminate_handlerEv@@Base+0x2504>  // b.none
    82c4:	aa1b03e0 	mov	x0, x27
    82c8:	94001061 	bl	c44c <_ZN9__gnu_cxx27__verbose_terminate_handlerEv@@Base+0x5aac>
    82cc:	aa0003e3 	mov	x3, x0
    82d0:	aa1b03e0 	mov	x0, x27
    82d4:	528006c1 	mov	w1, #0x36                  	// #54
    82d8:	aa1a03e2 	mov	x2, x26
    82dc:	97fffa15 	bl	6b30 <_ZN9__gnu_cxx27__verbose_terminate_handlerEv@@Base+0x190>
    82e0:	aa0003fa 	mov	x26, x0
    82e4:	f9400f61 	ldr	x1, [x27, #24]
    82e8:	39400020 	ldrb	w0, [x1]
    82ec:	7101301f 	cmp	w0, #0x4c
    82f0:	54002660 	b.eq	87bc <_ZN9__gnu_cxx27__verbose_terminate_handlerEv@@Base+0x1e1c>  // b.none
    82f4:	7101501f 	cmp	w0, #0x54
    82f8:	540025a0 	b.eq	87ac <_ZN9__gnu_cxx27__verbose_terminate_handlerEv@@Base+0x1e0c>  // b.none
    82fc:	7101cc1f 	cmp	w0, #0x73
    8300:	540013a0 	b.eq	8574 <_ZN9__gnu_cxx27__verbose_terminate_handlerEv@@Base+0x1bd4>  // b.none
    8304:	7101981f 	cmp	w0, #0x66
    8308:	54000fe0 	b.eq	8504 <_ZN9__gnu_cxx27__verbose_terminate_handlerEv@@Base+0x1b64>  // b.none
    830c:	5100c002 	sub	w2, w0, #0x30
    8310:	53001c42 	uxtb	w2, w2
    8314:	7100245f 	cmp	w2, #0x9
    8318:	54000929 	b.ls	843c <_ZN9__gnu_cxx27__verbose_terminate_handlerEv@@Base+0x1a9c>  // b.plast
    831c:	7101bc1f 	cmp	w0, #0x6f
    8320:	54000840 	b.eq	8428 <_ZN9__gnu_cxx27__verbose_terminate_handlerEv@@Base+0x1a88>  // b.none
    8324:	7101d01f 	cmp	w0, #0x74
    8328:	1a9f17e3 	cset	w3, eq	// eq = none
    832c:	35000063 	cbnz	w3, 8338 <_ZN9__gnu_cxx27__verbose_terminate_handlerEv@@Base+0x1998>
    8330:	7101a41f 	cmp	w0, #0x69
    8334:	54000081 	b.ne	8344 <_ZN9__gnu_cxx27__verbose_terminate_handlerEv@@Base+0x19a4>  // b.any
    8338:	39400420 	ldrb	w0, [x1, #1]
    833c:	7101b01f 	cmp	w0, #0x6c
    8340:	54001be0 	b.eq	86bc <_ZN9__gnu_cxx27__verbose_terminate_handlerEv@@Base+0x1d1c>  // b.none
    8344:	aa1b03e0 	mov	x0, x27
    8348:	94000ae9 	bl	aeec <_ZN9__gnu_cxx27__verbose_terminate_handlerEv@@Base+0x454c>
    834c:	aa0003fc 	mov	x28, x0
    8350:	b40022a0 	cbz	x0, 87a4 <_ZN9__gnu_cxx27__verbose_terminate_handlerEv@@Base+0x1e04>
    8354:	b9400000 	ldr	w0, [x0]
    8358:	7100c41f 	cmp	w0, #0x31
    835c:	54001f00 	b.eq	873c <_ZN9__gnu_cxx27__verbose_terminate_handlerEv@@Base+0x1d9c>  // b.none
    8360:	7100c81f 	cmp	w0, #0x32
    8364:	54001d80 	b.eq	8714 <_ZN9__gnu_cxx27__verbose_terminate_handlerEv@@Base+0x1d74>  // b.none
    8368:	7100cc1f 	cmp	w0, #0x33
    836c:	540021c1 	b.ne	87a4 <_ZN9__gnu_cxx27__verbose_terminate_handlerEv@@Base+0x1e04>  // b.any
    8370:	f9400f60 	ldr	x0, [x27, #24]
    8374:	39400001 	ldrb	w1, [x0]
    8378:	71017c3f 	cmp	w1, #0x5f
    837c:	54004ee0 	b.eq	8d58 <_ZN9__gnu_cxx27__verbose_terminate_handlerEv@@Base+0x23b8>  // b.none
    8380:	aa1b03e0 	mov	x0, x27
    8384:	94001032 	bl	c44c <_ZN9__gnu_cxx27__verbose_terminate_handlerEv@@Base+0x5aac>
    8388:	aa0003e3 	mov	x3, x0
    838c:	aa1b03e0 	mov	x0, x27
    8390:	528006c1 	mov	w1, #0x36                  	// #54
    8394:	aa1c03e2 	mov	x2, x28
    8398:	97fff9e6 	bl	6b30 <_ZN9__gnu_cxx27__verbose_terminate_handlerEv@@Base+0x190>
    839c:	aa0003e3 	mov	x3, x0
    83a0:	17ffff74 	b	8170 <_ZN9__gnu_cxx27__verbose_terminate_handlerEv@@Base+0x17d0>
    83a4:	39400000 	ldrb	w0, [x0]
    83a8:	5101c801 	sub	w1, w0, #0x72
    83ac:	53001c21 	uxtb	w1, w1
    83b0:	7100043f 	cmp	w1, #0x1
    83b4:	540000a9 	b.ls	83c8 <_ZN9__gnu_cxx27__verbose_terminate_handlerEv@@Base+0x1a28>  // b.plast
    83b8:	51018c00 	sub	w0, w0, #0x63
    83bc:	53001c00 	uxtb	w0, w0
    83c0:	7100041f 	cmp	w0, #0x1
    83c4:	54ffd748 	b.hi	7eac <_ZN9__gnu_cxx27__verbose_terminate_handlerEv@@Base+0x150c>  // b.pmore
    83c8:	aa1b03e0 	mov	x0, x27
    83cc:	940004da 	bl	9734 <_ZN9__gnu_cxx27__verbose_terminate_handlerEv@@Base+0x2d94>
    83d0:	aa0003fc 	mov	x28, x0
    83d4:	17fffeb9 	b	7eb8 <_ZN9__gnu_cxx27__verbose_terminate_handlerEv@@Base+0x1518>
    83d8:	aa1b03e0 	mov	x0, x27
    83dc:	9400101c 	bl	c44c <_ZN9__gnu_cxx27__verbose_terminate_handlerEv@@Base+0x5aac>
    83e0:	aa0003e3 	mov	x3, x0
    83e4:	17fffecb 	b	7f10 <_ZN9__gnu_cxx27__verbose_terminate_handlerEv@@Base+0x1570>
    83e8:	91000421 	add	x1, x1, #0x1
    83ec:	d2800003 	mov	x3, #0x0                   	// #0
    83f0:	f9000f61 	str	x1, [x27, #24]
    83f4:	17ffff5f 	b	8170 <_ZN9__gnu_cxx27__verbose_terminate_handlerEv@@Base+0x17d0>
    83f8:	aa1b03e0 	mov	x0, x27
    83fc:	f9003fa3 	str	x3, [x29, #120]
    8400:	97fffdbd 	bl	7af4 <_ZN9__gnu_cxx27__verbose_terminate_handlerEv@@Base+0x1154>
    8404:	aa0003e5 	mov	x5, x0
    8408:	f9403fa3 	ldr	x3, [x29, #120]
    840c:	aa1b03e0 	mov	x0, x27
    8410:	52800081 	mov	w1, #0x4                   	// #4
    8414:	aa0303e2 	mov	x2, x3
    8418:	aa0503e3 	mov	x3, x5
    841c:	97fff9c5 	bl	6b30 <_ZN9__gnu_cxx27__verbose_terminate_handlerEv@@Base+0x190>
    8420:	aa0003e3 	mov	x3, x0
    8424:	17fffebb 	b	7f10 <_ZN9__gnu_cxx27__verbose_terminate_handlerEv@@Base+0x1570>
    8428:	39400420 	ldrb	w0, [x1, #1]
    842c:	7101b81f 	cmp	w0, #0x6e
    8430:	54fff8a1 	b.ne	8344 <_ZN9__gnu_cxx27__verbose_terminate_handlerEv@@Base+0x19a4>  // b.any
    8434:	91000821 	add	x1, x1, #0x2
    8438:	f9000f61 	str	x1, [x27, #24]
    843c:	aa1b03e0 	mov	x0, x27
    8440:	94000b28 	bl	b0e0 <_ZN9__gnu_cxx27__verbose_terminate_handlerEv@@Base+0x4740>
    8444:	aa0003e3 	mov	x3, x0
    8448:	b4ffe940 	cbz	x0, 8170 <_ZN9__gnu_cxx27__verbose_terminate_handlerEv@@Base+0x17d0>
    844c:	f9400f60 	ldr	x0, [x27, #24]
    8450:	39400000 	ldrb	w0, [x0]
    8454:	7101241f 	cmp	w0, #0x49
    8458:	54ffe8c1 	b.ne	8170 <_ZN9__gnu_cxx27__verbose_terminate_handlerEv@@Base+0x17d0>  // b.any
    845c:	aa1b03e0 	mov	x0, x27
    8460:	f9003ba3 	str	x3, [x29, #112]
    8464:	97fffda4 	bl	7af4 <_ZN9__gnu_cxx27__verbose_terminate_handlerEv@@Base+0x1154>
    8468:	aa0003e5 	mov	x5, x0
    846c:	f9403ba3 	ldr	x3, [x29, #112]
    8470:	aa1b03e0 	mov	x0, x27
    8474:	52800081 	mov	w1, #0x4                   	// #4
    8478:	aa0303e2 	mov	x2, x3
    847c:	aa0503e3 	mov	x3, x5
    8480:	97fff9ac 	bl	6b30 <_ZN9__gnu_cxx27__verbose_terminate_handlerEv@@Base+0x190>
    8484:	aa0003e3 	mov	x3, x0
    8488:	17ffff3a 	b	8170 <_ZN9__gnu_cxx27__verbose_terminate_handlerEv@@Base+0x17d0>
    848c:	39400420 	ldrb	w0, [x1, #1]
    8490:	7101b81f 	cmp	w0, #0x6e
    8494:	54ffefa1 	b.ne	8288 <_ZN9__gnu_cxx27__verbose_terminate_handlerEv@@Base+0x18e8>  // b.any
    8498:	91000821 	add	x1, x1, #0x2
    849c:	f9000f61 	str	x1, [x27, #24]
    84a0:	aa1b03e0 	mov	x0, x27
    84a4:	94000b0f 	bl	b0e0 <_ZN9__gnu_cxx27__verbose_terminate_handlerEv@@Base+0x4740>
    84a8:	aa0003fa 	mov	x26, x0
    84ac:	f9400f61 	ldr	x1, [x27, #24]
    84b0:	39400020 	ldrb	w0, [x1]
    84b4:	b4fff1da 	cbz	x26, 82ec <_ZN9__gnu_cxx27__verbose_terminate_handlerEv@@Base+0x194c>
    84b8:	7101241f 	cmp	w0, #0x49
    84bc:	54fff181 	b.ne	82ec <_ZN9__gnu_cxx27__verbose_terminate_handlerEv@@Base+0x194c>  // b.any
    84c0:	aa1b03e0 	mov	x0, x27
    84c4:	97fffd8c 	bl	7af4 <_ZN9__gnu_cxx27__verbose_terminate_handlerEv@@Base+0x1154>
    84c8:	aa0003e3 	mov	x3, x0
    84cc:	52800081 	mov	w1, #0x4                   	// #4
    84d0:	aa1b03e0 	mov	x0, x27
    84d4:	17ffff81 	b	82d8 <_ZN9__gnu_cxx27__verbose_terminate_handlerEv@@Base+0x1938>
    84d8:	39400420 	ldrb	w0, [x1, #1]
    84dc:	d2800002 	mov	x2, #0x0                   	// #0
    84e0:	7101a41f 	cmp	w0, #0x69
    84e4:	54ffc0c1 	b.ne	7cfc <_ZN9__gnu_cxx27__verbose_terminate_handlerEv@@Base+0x135c>  // b.any
    84e8:	91000821 	add	x1, x1, #0x2
    84ec:	aa1b03e0 	mov	x0, x27
    84f0:	f9000f61 	str	x1, [x27, #24]
    84f4:	528008a1 	mov	w1, #0x45                  	// #69
    84f8:	940002ba 	bl	8fe0 <_ZN9__gnu_cxx27__verbose_terminate_handlerEv@@Base+0x2640>
    84fc:	aa0003e3 	mov	x3, x0
    8500:	17ffff1c 	b	8170 <_ZN9__gnu_cxx27__verbose_terminate_handlerEv@@Base+0x17d0>
    8504:	39400420 	ldrb	w0, [x1, #1]
    8508:	7101c01f 	cmp	w0, #0x70
    850c:	54fff1c1 	b.ne	8344 <_ZN9__gnu_cxx27__verbose_terminate_handlerEv@@Base+0x19a4>  // b.any
    8510:	91000820 	add	x0, x1, #0x2
    8514:	f9000f60 	str	x0, [x27, #24]
    8518:	39400820 	ldrb	w0, [x1, #2]
    851c:	7101501f 	cmp	w0, #0x54
    8520:	54003ea1 	b.ne	8cf4 <_ZN9__gnu_cxx27__verbose_terminate_handlerEv@@Base+0x2354>  // b.any
    8524:	91000c21 	add	x1, x1, #0x3
    8528:	d280001c 	mov	x28, #0x0                   	// #0
    852c:	f9000f61 	str	x1, [x27, #24]
    8530:	b9402b62 	ldr	w2, [x27, #40]
    8534:	d2800003 	mov	x3, #0x0                   	// #0
    8538:	b9402f60 	ldr	w0, [x27, #44]
    853c:	6b00005f 	cmp	w2, w0
    8540:	54ffe18a 	b.ge	8170 <_ZN9__gnu_cxx27__verbose_terminate_handlerEv@@Base+0x17d0>  // b.tcont
    8544:	93407c41 	sxtw	x1, w2
    8548:	f9401360 	ldr	x0, [x27, #32]
    854c:	d37be823 	lsl	x3, x1, #5
    8550:	11000442 	add	w2, w2, #0x1
    8554:	cb010c61 	sub	x1, x3, x1, lsl #3
    8558:	b9002b62 	str	w2, [x27, #40]
    855c:	ab010003 	adds	x3, x0, x1
    8560:	54ffe080 	b.eq	8170 <_ZN9__gnu_cxx27__verbose_terminate_handlerEv@@Base+0x17d0>  // b.none
    8564:	528000c2 	mov	w2, #0x6                   	// #6
    8568:	b8216802 	str	w2, [x0, x1]
    856c:	f900047c 	str	x28, [x3, #8]
    8570:	17ffff00 	b	8170 <_ZN9__gnu_cxx27__verbose_terminate_handlerEv@@Base+0x17d0>
    8574:	39400420 	ldrb	w0, [x1, #1]
    8578:	7101c81f 	cmp	w0, #0x72
    857c:	54003900 	b.eq	8c9c <_ZN9__gnu_cxx27__verbose_terminate_handlerEv@@Base+0x22fc>  // b.none
    8580:	7101c01f 	cmp	w0, #0x70
    8584:	54ffee01 	b.ne	8344 <_ZN9__gnu_cxx27__verbose_terminate_handlerEv@@Base+0x19a4>  // b.any
    8588:	91000821 	add	x1, x1, #0x2
    858c:	aa1b03e0 	mov	x0, x27
    8590:	f9000f61 	str	x1, [x27, #24]
    8594:	94000fae 	bl	c44c <_ZN9__gnu_cxx27__verbose_terminate_handlerEv@@Base+0x5aac>
    8598:	aa0003e2 	mov	x2, x0
    859c:	d2800003 	mov	x3, #0x0                   	// #0
    85a0:	aa1b03e0 	mov	x0, x27
    85a4:	52800941 	mov	w1, #0x4a                  	// #74
    85a8:	97fff962 	bl	6b30 <_ZN9__gnu_cxx27__verbose_terminate_handlerEv@@Base+0x190>
    85ac:	aa0003e3 	mov	x3, x0
    85b0:	17fffef0 	b	8170 <_ZN9__gnu_cxx27__verbose_terminate_handlerEv@@Base+0x17d0>
    85b4:	39400420 	ldrb	w0, [x1, #1]
    85b8:	7101c01f 	cmp	w0, #0x70
    85bc:	54ffe661 	b.ne	8288 <_ZN9__gnu_cxx27__verbose_terminate_handlerEv@@Base+0x18e8>  // b.any
    85c0:	91000820 	add	x0, x1, #0x2
    85c4:	f9000f60 	str	x0, [x27, #24]
    85c8:	39400820 	ldrb	w0, [x1, #2]
    85cc:	7101501f 	cmp	w0, #0x54
    85d0:	54001521 	b.ne	8874 <_ZN9__gnu_cxx27__verbose_terminate_handlerEv@@Base+0x1ed4>  // b.any
    85d4:	91000c21 	add	x1, x1, #0x3
    85d8:	d2800000 	mov	x0, #0x0                   	// #0
    85dc:	f9000f61 	str	x1, [x27, #24]
    85e0:	b9402b7a 	ldr	w26, [x27, #40]
    85e4:	b9402f62 	ldr	w2, [x27, #44]
    85e8:	6b02035f 	cmp	w26, w2
    85ec:	540012ab 	b.lt	8840 <_ZN9__gnu_cxx27__verbose_terminate_handlerEv@@Base+0x1ea0>  // b.tstop
    85f0:	39400020 	ldrb	w0, [x1]
    85f4:	d280001a 	mov	x26, #0x0                   	// #0
    85f8:	17ffff3d 	b	82ec <_ZN9__gnu_cxx27__verbose_terminate_handlerEv@@Base+0x194c>
    85fc:	39400420 	ldrb	w0, [x1, #1]
    8600:	7101c81f 	cmp	w0, #0x72
    8604:	54003140 	b.eq	8c2c <_ZN9__gnu_cxx27__verbose_terminate_handlerEv@@Base+0x228c>  // b.none
    8608:	7101c01f 	cmp	w0, #0x70
    860c:	54ffe3e1 	b.ne	8288 <_ZN9__gnu_cxx27__verbose_terminate_handlerEv@@Base+0x18e8>  // b.any
    8610:	91000821 	add	x1, x1, #0x2
    8614:	aa1b03e0 	mov	x0, x27
    8618:	f9000f61 	str	x1, [x27, #24]
    861c:	94000f8c 	bl	c44c <_ZN9__gnu_cxx27__verbose_terminate_handlerEv@@Base+0x5aac>
    8620:	aa0003e2 	mov	x2, x0
    8624:	52800941 	mov	w1, #0x4a                  	// #74
    8628:	aa1b03e0 	mov	x0, x27
    862c:	d2800003 	mov	x3, #0x0                   	// #0
    8630:	97fff940 	bl	6b30 <_ZN9__gnu_cxx27__verbose_terminate_handlerEv@@Base+0x190>
    8634:	aa0003fa 	mov	x26, x0
    8638:	f9400f61 	ldr	x1, [x27, #24]
    863c:	39400020 	ldrb	w0, [x1]
    8640:	17ffff2b 	b	82ec <_ZN9__gnu_cxx27__verbose_terminate_handlerEv@@Base+0x194c>
    8644:	f9400f61 	ldr	x1, [x27, #24]
    8648:	d280001a 	mov	x26, #0x0                   	// #0
    864c:	39400020 	ldrb	w0, [x1]
    8650:	17ffff27 	b	82ec <_ZN9__gnu_cxx27__verbose_terminate_handlerEv@@Base+0x194c>
    8654:	d2800002 	mov	x2, #0x0                   	// #0
    8658:	35004a03 	cbnz	w3, 8f98 <_ZN9__gnu_cxx27__verbose_terminate_handlerEv@@Base+0x25f8>
    865c:	91000820 	add	x0, x1, #0x2
    8660:	528008a1 	mov	w1, #0x45                  	// #69
    8664:	f9000f60 	str	x0, [x27, #24]
    8668:	aa1b03e0 	mov	x0, x27
    866c:	f9003ba2 	str	x2, [x29, #112]
    8670:	9400025c 	bl	8fe0 <_ZN9__gnu_cxx27__verbose_terminate_handlerEv@@Base+0x2640>
    8674:	aa0003e3 	mov	x3, x0
    8678:	f9403ba2 	ldr	x2, [x29, #112]
    867c:	52800601 	mov	w1, #0x30                  	// #48
    8680:	aa1b03e0 	mov	x0, x27
    8684:	97fff92b 	bl	6b30 <_ZN9__gnu_cxx27__verbose_terminate_handlerEv@@Base+0x190>
    8688:	aa0003fa 	mov	x26, x0
    868c:	f9400f61 	ldr	x1, [x27, #24]
    8690:	39400020 	ldrb	w0, [x1]
    8694:	17ffff16 	b	82ec <_ZN9__gnu_cxx27__verbose_terminate_handlerEv@@Base+0x194c>
    8698:	b9400b41 	ldr	w1, [x26, #8]
    869c:	71000c3f 	cmp	w1, #0x3
    86a0:	54fffd28 	b.hi	8644 <_ZN9__gnu_cxx27__verbose_terminate_handlerEv@@Base+0x1ca4>  // b.pmore
    86a4:	90000080 	adrp	x0, 18000 <_ZTSN10__cxxabiv117__class_type_infoE@@Base>
    86a8:	91074000 	add	x0, x0, #0x1d0
    86ac:	78615800 	ldrh	w0, [x0, w1, uxtw #1]
    86b0:	10000061 	adr	x1, 86bc <_ZN9__gnu_cxx27__verbose_terminate_handlerEv@@Base+0x1d1c>
    86b4:	8b20a820 	add	x0, x1, w0, sxth #2
    86b8:	d61f0000 	br	x0
    86bc:	d2800002 	mov	x2, #0x0                   	// #0
    86c0:	35004763 	cbnz	w3, 8fac <_ZN9__gnu_cxx27__verbose_terminate_handlerEv@@Base+0x260c>
    86c4:	f9400f63 	ldr	x3, [x27, #24]
    86c8:	528008a1 	mov	w1, #0x45                  	// #69
    86cc:	aa1b03e0 	mov	x0, x27
    86d0:	f9003ba2 	str	x2, [x29, #112]
    86d4:	91000863 	add	x3, x3, #0x2
    86d8:	f9000f63 	str	x3, [x27, #24]
    86dc:	94000241 	bl	8fe0 <_ZN9__gnu_cxx27__verbose_terminate_handlerEv@@Base+0x2640>
    86e0:	aa0003e3 	mov	x3, x0
    86e4:	f9403ba2 	ldr	x2, [x29, #112]
    86e8:	aa1b03e0 	mov	x0, x27
    86ec:	52800601 	mov	w1, #0x30                  	// #48
    86f0:	97fff910 	bl	6b30 <_ZN9__gnu_cxx27__verbose_terminate_handlerEv@@Base+0x190>
    86f4:	aa0003e3 	mov	x3, x0
    86f8:	17fffe9e 	b	8170 <_ZN9__gnu_cxx27__verbose_terminate_handlerEv@@Base+0x17d0>
    86fc:	aa1b03e0 	mov	x0, x27
    8700:	97fffc87 	bl	791c <_ZN9__gnu_cxx27__verbose_terminate_handlerEv@@Base+0xf7c>
    8704:	aa0003fa 	mov	x26, x0
    8708:	f9400f61 	ldr	x1, [x27, #24]
    870c:	39400020 	ldrb	w0, [x1]
    8710:	17fffef7 	b	82ec <_ZN9__gnu_cxx27__verbose_terminate_handlerEv@@Base+0x194c>
    8714:	b9400b81 	ldr	w1, [x28, #8]
    8718:	d2800003 	mov	x3, #0x0                   	// #0
    871c:	71000c3f 	cmp	w1, #0x3
    8720:	54ffd288 	b.hi	8170 <_ZN9__gnu_cxx27__verbose_terminate_handlerEv@@Base+0x17d0>  // b.pmore
    8724:	90000080 	adrp	x0, 18000 <_ZTSN10__cxxabiv117__class_type_infoE@@Base>
    8728:	91076000 	add	x0, x0, #0x1d8
    872c:	78615800 	ldrh	w0, [x0, w1, uxtw #1]
    8730:	10000061 	adr	x1, 873c <_ZN9__gnu_cxx27__verbose_terminate_handlerEv@@Base+0x1d9c>
    8734:	8b20a820 	add	x0, x1, w0, sxth #2
    8738:	d61f0000 	br	x0
    873c:	f9400785 	ldr	x5, [x28, #8]
    8740:	90000081 	adrp	x1, 18000 <_ZTSN10__cxxabiv117__class_type_infoE@@Base>
    8744:	b9405363 	ldr	w3, [x27, #80]
    8748:	912c0021 	add	x1, x1, #0xb00
    874c:	f90037a5 	str	x5, [x29, #104]
    8750:	b94010a0 	ldr	w0, [x5, #16]
    8754:	f94000a2 	ldr	x2, [x5]
    8758:	51000800 	sub	w0, w0, #0x2
    875c:	f9003ba2 	str	x2, [x29, #112]
    8760:	0b000063 	add	w3, w3, w0
    8764:	aa0203e0 	mov	x0, x2
    8768:	b9005363 	str	w3, [x27, #80]
    876c:	97fff0ad 	bl	4a20 <strcmp@plt>
    8770:	f9403ba2 	ldr	x2, [x29, #112]
    8774:	f94037a5 	ldr	x5, [x29, #104]
    8778:	340033e0 	cbz	w0, 8df4 <_ZN9__gnu_cxx27__verbose_terminate_handlerEv@@Base+0x2454>
    877c:	b94014a1 	ldr	w1, [x5, #20]
    8780:	d2800003 	mov	x3, #0x0                   	// #0
    8784:	71000c3f 	cmp	w1, #0x3
    8788:	54ffcf48 	b.hi	8170 <_ZN9__gnu_cxx27__verbose_terminate_handlerEv@@Base+0x17d0>  // b.pmore
    878c:	90000080 	adrp	x0, 18000 <_ZTSN10__cxxabiv117__class_type_infoE@@Base>
    8790:	91078000 	add	x0, x0, #0x1e0
    8794:	78615800 	ldrh	w0, [x0, w1, uxtw #1]
    8798:	10000061 	adr	x1, 87a4 <_ZN9__gnu_cxx27__verbose_terminate_handlerEv@@Base+0x1e04>
    879c:	8b20a820 	add	x0, x1, w0, sxth #2
    87a0:	d61f0000 	br	x0
    87a4:	d2800003 	mov	x3, #0x0                   	// #0
    87a8:	17fffe72 	b	8170 <_ZN9__gnu_cxx27__verbose_terminate_handlerEv@@Base+0x17d0>
    87ac:	aa1b03e0 	mov	x0, x27
    87b0:	97fffc5b 	bl	791c <_ZN9__gnu_cxx27__verbose_terminate_handlerEv@@Base+0xf7c>
    87b4:	aa0003e3 	mov	x3, x0
    87b8:	17fffe6e 	b	8170 <_ZN9__gnu_cxx27__verbose_terminate_handlerEv@@Base+0x17d0>
    87bc:	aa1b03e0 	mov	x0, x27
    87c0:	94000ec5 	bl	c2d4 <_ZN9__gnu_cxx27__verbose_terminate_handlerEv@@Base+0x5934>
    87c4:	aa0003e3 	mov	x3, x0
    87c8:	17fffe6a 	b	8170 <_ZN9__gnu_cxx27__verbose_terminate_handlerEv@@Base+0x17d0>
    87cc:	f9400742 	ldr	x2, [x26, #8]
    87d0:	90000081 	adrp	x1, 18000 <_ZTSN10__cxxabiv117__class_type_infoE@@Base>
    87d4:	b9405363 	ldr	w3, [x27, #80]
    87d8:	912c0021 	add	x1, x1, #0xb00
    87dc:	f9003ba2 	str	x2, [x29, #112]
    87e0:	b9401040 	ldr	w0, [x2, #16]
    87e4:	f940005c 	ldr	x28, [x2]
    87e8:	51000800 	sub	w0, w0, #0x2
    87ec:	0b000063 	add	w3, w3, w0
    87f0:	aa1c03e0 	mov	x0, x28
    87f4:	b9005363 	str	w3, [x27, #80]
    87f8:	97fff08a 	bl	4a20 <strcmp@plt>
    87fc:	f9403ba2 	ldr	x2, [x29, #112]
    8800:	34003de0 	cbz	w0, 8fbc <_ZN9__gnu_cxx27__verbose_terminate_handlerEv@@Base+0x261c>
    8804:	b9401441 	ldr	w1, [x2, #20]
    8808:	71000c3f 	cmp	w1, #0x3
    880c:	54fff1c8 	b.hi	8644 <_ZN9__gnu_cxx27__verbose_terminate_handlerEv@@Base+0x1ca4>  // b.pmore
    8810:	90000080 	adrp	x0, 18000 <_ZTSN10__cxxabiv117__class_type_infoE@@Base>
    8814:	9107a000 	add	x0, x0, #0x1e8
    8818:	78615800 	ldrh	w0, [x0, w1, uxtw #1]
    881c:	10000061 	adr	x1, 8828 <_ZN9__gnu_cxx27__verbose_terminate_handlerEv@@Base+0x1e88>
    8820:	8b20a820 	add	x0, x1, w0, sxth #2
    8824:	d61f0000 	br	x0
    8828:	aa1b03e0 	mov	x0, x27
    882c:	94000eaa 	bl	c2d4 <_ZN9__gnu_cxx27__verbose_terminate_handlerEv@@Base+0x5934>
    8830:	aa0003fa 	mov	x26, x0
    8834:	f9400f61 	ldr	x1, [x27, #24]
    8838:	39400020 	ldrb	w0, [x1]
    883c:	17fffeac 	b	82ec <_ZN9__gnu_cxx27__verbose_terminate_handlerEv@@Base+0x194c>
    8840:	93407f42 	sxtw	x2, w26
    8844:	f9401363 	ldr	x3, [x27, #32]
    8848:	d37be845 	lsl	x5, x2, #5
    884c:	1100075a 	add	w26, w26, #0x1
    8850:	cb020ca2 	sub	x2, x5, x2, lsl #3
    8854:	b9002b7a 	str	w26, [x27, #40]
    8858:	ab02007a 	adds	x26, x3, x2
    885c:	54ffef00 	b.eq	863c <_ZN9__gnu_cxx27__verbose_terminate_handlerEv@@Base+0x1c9c>  // b.none
    8860:	528000c5 	mov	w5, #0x6                   	// #6
    8864:	b8226865 	str	w5, [x3, x2]
    8868:	f9000740 	str	x0, [x26, #8]
    886c:	39400020 	ldrb	w0, [x1]
    8870:	17fffe9f 	b	82ec <_ZN9__gnu_cxx27__verbose_terminate_handlerEv@@Base+0x194c>
    8874:	aa1b03e0 	mov	x0, x27
    8878:	97fffbdd 	bl	77ec <_ZN9__gnu_cxx27__verbose_terminate_handlerEv@@Base+0xe4c>
    887c:	31000400 	adds	w0, w0, #0x1
    8880:	f9400f61 	ldr	x1, [x27, #24]
    8884:	54ffee20 	b.eq	8648 <_ZN9__gnu_cxx27__verbose_terminate_handlerEv@@Base+0x1ca8>  // b.none
    8888:	93407c00 	sxtw	x0, w0
    888c:	17ffff55 	b	85e0 <_ZN9__gnu_cxx27__verbose_terminate_handlerEv@@Base+0x1c40>
    8890:	d280001c 	mov	x28, #0x0                   	// #0
    8894:	f9400740 	ldr	x0, [x26, #8]
    8898:	f9400000 	ldr	x0, [x0]
    889c:	39400401 	ldrb	w1, [x0, #1]
    88a0:	71018c3f 	cmp	w1, #0x63
    88a4:	54003400 	b.eq	8f24 <_ZN9__gnu_cxx27__verbose_terminate_handlerEv@@Base+0x2584>  // b.none
    88a8:	aa1b03e0 	mov	x0, x27
    88ac:	94000ee8 	bl	c44c <_ZN9__gnu_cxx27__verbose_terminate_handlerEv@@Base+0x5aac>
    88b0:	f9003ba0 	str	x0, [x29, #112]
    88b4:	90000081 	adrp	x1, 18000 <_ZTSN10__cxxabiv117__class_type_infoE@@Base>
    88b8:	aa1c03e0 	mov	x0, x28
    88bc:	91160021 	add	x1, x1, #0x580
    88c0:	97fff058 	bl	4a20 <strcmp@plt>
    88c4:	34003260 	cbz	w0, 8f10 <_ZN9__gnu_cxx27__verbose_terminate_handlerEv@@Base+0x2570>
    88c8:	90000081 	adrp	x1, 18000 <_ZTSN10__cxxabiv117__class_type_infoE@@Base>
    88cc:	aa1c03e0 	mov	x0, x28
    88d0:	91162021 	add	x1, x1, #0x588
    88d4:	97fff053 	bl	4a20 <strcmp@plt>
    88d8:	340000c0 	cbz	w0, 88f0 <_ZN9__gnu_cxx27__verbose_terminate_handlerEv@@Base+0x1f50>
    88dc:	90000081 	adrp	x1, 18000 <_ZTSN10__cxxabiv117__class_type_infoE@@Base>
    88e0:	aa1c03e0 	mov	x0, x28
    88e4:	91164021 	add	x1, x1, #0x590
    88e8:	97fff04e 	bl	4a20 <strcmp@plt>
    88ec:	35003360 	cbnz	w0, 8f58 <_ZN9__gnu_cxx27__verbose_terminate_handlerEv@@Base+0x25b8>
    88f0:	aa1b03e0 	mov	x0, x27
    88f4:	940009fb 	bl	b0e0 <_ZN9__gnu_cxx27__verbose_terminate_handlerEv@@Base+0x4740>
    88f8:	aa0003e3 	mov	x3, x0
    88fc:	f9400f60 	ldr	x0, [x27, #24]
    8900:	39400000 	ldrb	w0, [x0]
    8904:	7101241f 	cmp	w0, #0x49
    8908:	54003300 	b.eq	8f68 <_ZN9__gnu_cxx27__verbose_terminate_handlerEv@@Base+0x25c8>  // b.none
    890c:	f9403ba2 	ldr	x2, [x29, #112]
    8910:	52800701 	mov	w1, #0x38                  	// #56
    8914:	aa1b03e0 	mov	x0, x27
    8918:	97fff886 	bl	6b30 <_ZN9__gnu_cxx27__verbose_terminate_handlerEv@@Base+0x190>
    891c:	aa0003e3 	mov	x3, x0
    8920:	528006e1 	mov	w1, #0x37                  	// #55
    8924:	aa1b03e0 	mov	x0, x27
    8928:	17fffe6c 	b	82d8 <_ZN9__gnu_cxx27__verbose_terminate_handlerEv@@Base+0x1938>
    892c:	39400380 	ldrb	w0, [x28]
    8930:	7101b41f 	cmp	w0, #0x6d
    8934:	54000060 	b.eq	8940 <_ZN9__gnu_cxx27__verbose_terminate_handlerEv@@Base+0x1fa0>  // b.none
    8938:	7101c01f 	cmp	w0, #0x70
    893c:	54ffcc41 	b.ne	82c4 <_ZN9__gnu_cxx27__verbose_terminate_handlerEv@@Base+0x1924>  // b.any
    8940:	39400781 	ldrb	w1, [x28, #1]
    8944:	6b00003f 	cmp	w1, w0
    8948:	54ffcbe1 	b.ne	82c4 <_ZN9__gnu_cxx27__verbose_terminate_handlerEv@@Base+0x1924>  // b.any
    894c:	f9400f60 	ldr	x0, [x27, #24]
    8950:	39400001 	ldrb	w1, [x0]
    8954:	71017c3f 	cmp	w1, #0x5f
    8958:	540033e0 	b.eq	8fd4 <_ZN9__gnu_cxx27__verbose_terminate_handlerEv@@Base+0x2634>  // b.none
    895c:	aa1b03e0 	mov	x0, x27
    8960:	94000ebb 	bl	c44c <_ZN9__gnu_cxx27__verbose_terminate_handlerEv@@Base+0x5aac>
    8964:	aa0003e2 	mov	x2, x0
    8968:	52800701 	mov	w1, #0x38                  	// #56
    896c:	aa0203e3 	mov	x3, x2
    8970:	aa1b03e0 	mov	x0, x27
    8974:	97fff86f 	bl	6b30 <_ZN9__gnu_cxx27__verbose_terminate_handlerEv@@Base+0x190>
    8978:	aa0003e3 	mov	x3, x0
    897c:	528006c1 	mov	w1, #0x36                  	// #54
    8980:	aa1b03e0 	mov	x0, x27
    8984:	17fffe55 	b	82d8 <_ZN9__gnu_cxx27__verbose_terminate_handlerEv@@Base+0x1938>
    8988:	d280001c 	mov	x28, #0x0                   	// #0
    898c:	aa1c03e0 	mov	x0, x28
    8990:	aa1603e1 	mov	x1, x22
    8994:	97fff023 	bl	4a20 <strcmp@plt>
    8998:	34001ce0 	cbz	w0, 8d34 <_ZN9__gnu_cxx27__verbose_terminate_handlerEv@@Base+0x2394>
    899c:	39400380 	ldrb	w0, [x28]
    89a0:	7101b81f 	cmp	w0, #0x6e
    89a4:	54ffe501 	b.ne	8644 <_ZN9__gnu_cxx27__verbose_terminate_handlerEv@@Base+0x1ca4>  // b.any
    89a8:	39400780 	ldrb	w0, [x28, #1]
    89ac:	7101841f 	cmp	w0, #0x61
    89b0:	54000060 	b.eq	89bc <_ZN9__gnu_cxx27__verbose_terminate_handlerEv@@Base+0x201c>  // b.none
    89b4:	7101dc1f 	cmp	w0, #0x77
    89b8:	54ffe461 	b.ne	8644 <_ZN9__gnu_cxx27__verbose_terminate_handlerEv@@Base+0x1ca4>  // b.any
    89bc:	52800be1 	mov	w1, #0x5f                  	// #95
    89c0:	aa1b03e0 	mov	x0, x27
    89c4:	94000187 	bl	8fe0 <_ZN9__gnu_cxx27__verbose_terminate_handlerEv@@Base+0x2640>
    89c8:	f9003ba0 	str	x0, [x29, #112]
    89cc:	aa1b03e0 	mov	x0, x27
    89d0:	94000359 	bl	9734 <_ZN9__gnu_cxx27__verbose_terminate_handlerEv@@Base+0x2d94>
    89d4:	aa0003fc 	mov	x28, x0
    89d8:	f9400f61 	ldr	x1, [x27, #24]
    89dc:	39400020 	ldrb	w0, [x1]
    89e0:	7101141f 	cmp	w0, #0x45
    89e4:	540028e0 	b.eq	8f00 <_ZN9__gnu_cxx27__verbose_terminate_handlerEv@@Base+0x2560>  // b.none
    89e8:	7101c01f 	cmp	w0, #0x70
    89ec:	54002780 	b.eq	8edc <_ZN9__gnu_cxx27__verbose_terminate_handlerEv@@Base+0x253c>  // b.none
    89f0:	7101a41f 	cmp	w0, #0x69
    89f4:	54002701 	b.ne	8ed4 <_ZN9__gnu_cxx27__verbose_terminate_handlerEv@@Base+0x2534>  // b.any
    89f8:	39400422 	ldrb	w2, [x1, #1]
    89fc:	7101b05f 	cmp	w2, #0x6c
    8a00:	54002661 	b.ne	8ecc <_ZN9__gnu_cxx27__verbose_terminate_handlerEv@@Base+0x252c>  // b.any
    8a04:	aa1b03e0 	mov	x0, x27
    8a08:	94000e91 	bl	c44c <_ZN9__gnu_cxx27__verbose_terminate_handlerEv@@Base+0x5aac>
    8a0c:	aa0003e3 	mov	x3, x0
    8a10:	52800761 	mov	w1, #0x3b                  	// #59
    8a14:	aa1c03e2 	mov	x2, x28
    8a18:	aa1b03e0 	mov	x0, x27
    8a1c:	97fff845 	bl	6b30 <_ZN9__gnu_cxx27__verbose_terminate_handlerEv@@Base+0x190>
    8a20:	aa0003e3 	mov	x3, x0
    8a24:	f9403ba2 	ldr	x2, [x29, #112]
    8a28:	52800741 	mov	w1, #0x3a                  	// #58
    8a2c:	aa1b03e0 	mov	x0, x27
    8a30:	97fff840 	bl	6b30 <_ZN9__gnu_cxx27__verbose_terminate_handlerEv@@Base+0x190>
    8a34:	aa0003e3 	mov	x3, x0
    8a38:	52800721 	mov	w1, #0x39                  	// #57
    8a3c:	aa1b03e0 	mov	x0, x27
    8a40:	17fffe26 	b	82d8 <_ZN9__gnu_cxx27__verbose_terminate_handlerEv@@Base+0x1938>
    8a44:	d2800002 	mov	x2, #0x0                   	// #0
    8a48:	f9400780 	ldr	x0, [x28, #8]
    8a4c:	f9400000 	ldr	x0, [x0]
    8a50:	39400401 	ldrb	w1, [x0, #1]
    8a54:	71018c3f 	cmp	w1, #0x63
    8a58:	54001960 	b.eq	8d84 <_ZN9__gnu_cxx27__verbose_terminate_handlerEv@@Base+0x23e4>  // b.none
    8a5c:	aa1b03e0 	mov	x0, x27
    8a60:	f90037a2 	str	x2, [x29, #104]
    8a64:	94000e7a 	bl	c44c <_ZN9__gnu_cxx27__verbose_terminate_handlerEv@@Base+0x5aac>
    8a68:	f9003ba0 	str	x0, [x29, #112]
    8a6c:	f94037a2 	ldr	x2, [x29, #104]
    8a70:	90000081 	adrp	x1, 18000 <_ZTSN10__cxxabiv117__class_type_infoE@@Base>
    8a74:	aa0203e0 	mov	x0, x2
    8a78:	91160021 	add	x1, x1, #0x580
    8a7c:	f90037a2 	str	x2, [x29, #104]
    8a80:	97ffefe8 	bl	4a20 <strcmp@plt>
    8a84:	f94037a2 	ldr	x2, [x29, #104]
    8a88:	34001740 	cbz	w0, 8d70 <_ZN9__gnu_cxx27__verbose_terminate_handlerEv@@Base+0x23d0>
    8a8c:	90000081 	adrp	x1, 18000 <_ZTSN10__cxxabiv117__class_type_infoE@@Base>
    8a90:	aa0203e0 	mov	x0, x2
    8a94:	91162021 	add	x1, x1, #0x588
    8a98:	f90037a2 	str	x2, [x29, #104]
    8a9c:	97ffefe1 	bl	4a20 <strcmp@plt>
    8aa0:	340000e0 	cbz	w0, 8abc <_ZN9__gnu_cxx27__verbose_terminate_handlerEv@@Base+0x211c>
    8aa4:	f94037a2 	ldr	x2, [x29, #104]
    8aa8:	90000081 	adrp	x1, 18000 <_ZTSN10__cxxabiv117__class_type_infoE@@Base>
    8aac:	91164021 	add	x1, x1, #0x590
    8ab0:	aa0203e0 	mov	x0, x2
    8ab4:	97ffefdb 	bl	4a20 <strcmp@plt>
    8ab8:	35001960 	cbnz	w0, 8de4 <_ZN9__gnu_cxx27__verbose_terminate_handlerEv@@Base+0x2444>
    8abc:	aa1b03e0 	mov	x0, x27
    8ac0:	94000988 	bl	b0e0 <_ZN9__gnu_cxx27__verbose_terminate_handlerEv@@Base+0x4740>
    8ac4:	aa0003e3 	mov	x3, x0
    8ac8:	f9400f60 	ldr	x0, [x27, #24]
    8acc:	39400000 	ldrb	w0, [x0]
    8ad0:	7101241f 	cmp	w0, #0x49
    8ad4:	54001960 	b.eq	8e00 <_ZN9__gnu_cxx27__verbose_terminate_handlerEv@@Base+0x2460>  // b.none
    8ad8:	f9403ba2 	ldr	x2, [x29, #112]
    8adc:	52800701 	mov	w1, #0x38                  	// #56
    8ae0:	aa1b03e0 	mov	x0, x27
    8ae4:	97fff813 	bl	6b30 <_ZN9__gnu_cxx27__verbose_terminate_handlerEv@@Base+0x190>
    8ae8:	aa0003e3 	mov	x3, x0
    8aec:	528006e1 	mov	w1, #0x37                  	// #55
    8af0:	aa1b03e0 	mov	x0, x27
    8af4:	aa1c03e2 	mov	x2, x28
    8af8:	97fff80e 	bl	6b30 <_ZN9__gnu_cxx27__verbose_terminate_handlerEv@@Base+0x190>
    8afc:	aa0003e3 	mov	x3, x0
    8b00:	17fffd9c 	b	8170 <_ZN9__gnu_cxx27__verbose_terminate_handlerEv@@Base+0x17d0>
    8b04:	d2800002 	mov	x2, #0x0                   	// #0
    8b08:	aa0203e0 	mov	x0, x2
    8b0c:	aa1603e1 	mov	x1, x22
    8b10:	f9003ba2 	str	x2, [x29, #112]
    8b14:	97ffefc3 	bl	4a20 <strcmp@plt>
    8b18:	f9403ba2 	ldr	x2, [x29, #112]
    8b1c:	34001520 	cbz	w0, 8dc0 <_ZN9__gnu_cxx27__verbose_terminate_handlerEv@@Base+0x2420>
    8b20:	39400040 	ldrb	w0, [x2]
    8b24:	7101b81f 	cmp	w0, #0x6e
    8b28:	54ffe3e1 	b.ne	87a4 <_ZN9__gnu_cxx27__verbose_terminate_handlerEv@@Base+0x1e04>  // b.any
    8b2c:	39400440 	ldrb	w0, [x2, #1]
    8b30:	7101841f 	cmp	w0, #0x61
    8b34:	54000060 	b.eq	8b40 <_ZN9__gnu_cxx27__verbose_terminate_handlerEv@@Base+0x21a0>  // b.none
    8b38:	7101dc1f 	cmp	w0, #0x77
    8b3c:	54ffe341 	b.ne	87a4 <_ZN9__gnu_cxx27__verbose_terminate_handlerEv@@Base+0x1e04>  // b.any
    8b40:	52800be1 	mov	w1, #0x5f                  	// #95
    8b44:	aa1b03e0 	mov	x0, x27
    8b48:	94000126 	bl	8fe0 <_ZN9__gnu_cxx27__verbose_terminate_handlerEv@@Base+0x2640>
    8b4c:	f9003ba0 	str	x0, [x29, #112]
    8b50:	aa1b03e0 	mov	x0, x27
    8b54:	940002f8 	bl	9734 <_ZN9__gnu_cxx27__verbose_terminate_handlerEv@@Base+0x2d94>
    8b58:	f90037a0 	str	x0, [x29, #104]
    8b5c:	f9400f60 	ldr	x0, [x27, #24]
    8b60:	39400001 	ldrb	w1, [x0]
    8b64:	7101143f 	cmp	w1, #0x45
    8b68:	54001780 	b.eq	8e58 <_ZN9__gnu_cxx27__verbose_terminate_handlerEv@@Base+0x24b8>  // b.none
    8b6c:	7101c03f 	cmp	w1, #0x70
    8b70:	54001600 	b.eq	8e30 <_ZN9__gnu_cxx27__verbose_terminate_handlerEv@@Base+0x2490>  // b.none
    8b74:	7101a43f 	cmp	w1, #0x69
    8b78:	54ffe161 	b.ne	87a4 <_ZN9__gnu_cxx27__verbose_terminate_handlerEv@@Base+0x1e04>  // b.any
    8b7c:	39400400 	ldrb	w0, [x0, #1]
    8b80:	d2800003 	mov	x3, #0x0                   	// #0
    8b84:	7101b01f 	cmp	w0, #0x6c
    8b88:	54ffaf41 	b.ne	8170 <_ZN9__gnu_cxx27__verbose_terminate_handlerEv@@Base+0x17d0>  // b.any
    8b8c:	aa1b03e0 	mov	x0, x27
    8b90:	94000e2f 	bl	c44c <_ZN9__gnu_cxx27__verbose_terminate_handlerEv@@Base+0x5aac>
    8b94:	f94037a2 	ldr	x2, [x29, #104]
    8b98:	aa0003e3 	mov	x3, x0
    8b9c:	52800761 	mov	w1, #0x3b                  	// #59
    8ba0:	aa1b03e0 	mov	x0, x27
    8ba4:	97fff7e3 	bl	6b30 <_ZN9__gnu_cxx27__verbose_terminate_handlerEv@@Base+0x190>
    8ba8:	aa0003e3 	mov	x3, x0
    8bac:	f9403ba2 	ldr	x2, [x29, #112]
    8bb0:	52800741 	mov	w1, #0x3a                  	// #58
    8bb4:	aa1b03e0 	mov	x0, x27
    8bb8:	97fff7de 	bl	6b30 <_ZN9__gnu_cxx27__verbose_terminate_handlerEv@@Base+0x190>
    8bbc:	aa0003e3 	mov	x3, x0
    8bc0:	52800721 	mov	w1, #0x39                  	// #57
    8bc4:	aa1b03e0 	mov	x0, x27
    8bc8:	aa1c03e2 	mov	x2, x28
    8bcc:	97fff7d9 	bl	6b30 <_ZN9__gnu_cxx27__verbose_terminate_handlerEv@@Base+0x190>
    8bd0:	aa0003e3 	mov	x3, x0
    8bd4:	17fffd67 	b	8170 <_ZN9__gnu_cxx27__verbose_terminate_handlerEv@@Base+0x17d0>
    8bd8:	39400040 	ldrb	w0, [x2]
    8bdc:	7101b41f 	cmp	w0, #0x6d
    8be0:	54000060 	b.eq	8bec <_ZN9__gnu_cxx27__verbose_terminate_handlerEv@@Base+0x224c>  // b.none
    8be4:	7101c01f 	cmp	w0, #0x70
    8be8:	54ffbcc1 	b.ne	8380 <_ZN9__gnu_cxx27__verbose_terminate_handlerEv@@Base+0x19e0>  // b.any
    8bec:	39400441 	ldrb	w1, [x2, #1]
    8bf0:	6b00003f 	cmp	w1, w0
    8bf4:	54ffbc61 	b.ne	8380 <_ZN9__gnu_cxx27__verbose_terminate_handlerEv@@Base+0x19e0>  // b.any
    8bf8:	f9400f60 	ldr	x0, [x27, #24]
    8bfc:	39400001 	ldrb	w1, [x0]
    8c00:	71017c3f 	cmp	w1, #0x5f
    8c04:	540014a0 	b.eq	8e98 <_ZN9__gnu_cxx27__verbose_terminate_handlerEv@@Base+0x24f8>  // b.none
    8c08:	aa1b03e0 	mov	x0, x27
    8c0c:	94000e10 	bl	c44c <_ZN9__gnu_cxx27__verbose_terminate_handlerEv@@Base+0x5aac>
    8c10:	aa0003e2 	mov	x2, x0
    8c14:	52800701 	mov	w1, #0x38                  	// #56
    8c18:	aa1b03e0 	mov	x0, x27
    8c1c:	aa0203e3 	mov	x3, x2
    8c20:	97fff7c4 	bl	6b30 <_ZN9__gnu_cxx27__verbose_terminate_handlerEv@@Base+0x190>
    8c24:	aa0003e3 	mov	x3, x0
    8c28:	17fffdd9 	b	838c <_ZN9__gnu_cxx27__verbose_terminate_handlerEv@@Base+0x19ec>
    8c2c:	91000821 	add	x1, x1, #0x2
    8c30:	aa1b03e0 	mov	x0, x27
    8c34:	f9000f61 	str	x1, [x27, #24]
    8c38:	940002bf 	bl	9734 <_ZN9__gnu_cxx27__verbose_terminate_handlerEv@@Base+0x2d94>
    8c3c:	aa0003fa 	mov	x26, x0
    8c40:	aa1b03e0 	mov	x0, x27
    8c44:	94000927 	bl	b0e0 <_ZN9__gnu_cxx27__verbose_terminate_handlerEv@@Base+0x4740>
    8c48:	aa0003fc 	mov	x28, x0
    8c4c:	f9400f60 	ldr	x0, [x27, #24]
    8c50:	39400000 	ldrb	w0, [x0]
    8c54:	7101241f 	cmp	w0, #0x49
    8c58:	aa1b03e0 	mov	x0, x27
    8c5c:	54000580 	b.eq	8d0c <_ZN9__gnu_cxx27__verbose_terminate_handlerEv@@Base+0x236c>  // b.none
    8c60:	52800021 	mov	w1, #0x1                   	// #1
    8c64:	aa1a03e2 	mov	x2, x26
    8c68:	aa1c03e3 	mov	x3, x28
    8c6c:	97fff7b1 	bl	6b30 <_ZN9__gnu_cxx27__verbose_terminate_handlerEv@@Base+0x190>
    8c70:	aa0003fa 	mov	x26, x0
    8c74:	f9400f61 	ldr	x1, [x27, #24]
    8c78:	39400020 	ldrb	w0, [x1]
    8c7c:	17fffd9c 	b	82ec <_ZN9__gnu_cxx27__verbose_terminate_handlerEv@@Base+0x194c>
    8c80:	d2800003 	mov	x3, #0x0                   	// #0
    8c84:	aa1b03e0 	mov	x0, x27
    8c88:	528006a1 	mov	w1, #0x35                  	// #53
    8c8c:	aa1c03e2 	mov	x2, x28
    8c90:	97fff7a8 	bl	6b30 <_ZN9__gnu_cxx27__verbose_terminate_handlerEv@@Base+0x190>
    8c94:	aa0003e3 	mov	x3, x0
    8c98:	17fffd36 	b	8170 <_ZN9__gnu_cxx27__verbose_terminate_handlerEv@@Base+0x17d0>
    8c9c:	91000821 	add	x1, x1, #0x2
    8ca0:	aa1b03e0 	mov	x0, x27
    8ca4:	f9000f61 	str	x1, [x27, #24]
    8ca8:	940002a3 	bl	9734 <_ZN9__gnu_cxx27__verbose_terminate_handlerEv@@Base+0x2d94>
    8cac:	aa0003fc 	mov	x28, x0
    8cb0:	aa1b03e0 	mov	x0, x27
    8cb4:	9400090b 	bl	b0e0 <_ZN9__gnu_cxx27__verbose_terminate_handlerEv@@Base+0x4740>
    8cb8:	aa0003e3 	mov	x3, x0
    8cbc:	f9400f60 	ldr	x0, [x27, #24]
    8cc0:	39400000 	ldrb	w0, [x0]
    8cc4:	7101241f 	cmp	w0, #0x49
    8cc8:	54000d00 	b.eq	8e68 <_ZN9__gnu_cxx27__verbose_terminate_handlerEv@@Base+0x24c8>  // b.none
    8ccc:	aa1b03e0 	mov	x0, x27
    8cd0:	52800021 	mov	w1, #0x1                   	// #1
    8cd4:	aa1c03e2 	mov	x2, x28
    8cd8:	97fff796 	bl	6b30 <_ZN9__gnu_cxx27__verbose_terminate_handlerEv@@Base+0x190>
    8cdc:	aa0003e3 	mov	x3, x0
    8ce0:	17fffd24 	b	8170 <_ZN9__gnu_cxx27__verbose_terminate_handlerEv@@Base+0x17d0>
    8ce4:	aa1b03e0 	mov	x0, x27
    8ce8:	528006a1 	mov	w1, #0x35                  	// #53
    8cec:	aa1a03e2 	mov	x2, x26
    8cf0:	17fffe4f 	b	862c <_ZN9__gnu_cxx27__verbose_terminate_handlerEv@@Base+0x1c8c>
    8cf4:	aa1b03e0 	mov	x0, x27
    8cf8:	97fffabd 	bl	77ec <_ZN9__gnu_cxx27__verbose_terminate_handlerEv@@Base+0xe4c>
    8cfc:	31000400 	adds	w0, w0, #0x1
    8d00:	54ffd520 	b.eq	87a4 <_ZN9__gnu_cxx27__verbose_terminate_handlerEv@@Base+0x1e04>  // b.none
    8d04:	93407c1c 	sxtw	x28, w0
    8d08:	17fffe0a 	b	8530 <_ZN9__gnu_cxx27__verbose_terminate_handlerEv@@Base+0x1b90>
    8d0c:	97fffb7a 	bl	7af4 <_ZN9__gnu_cxx27__verbose_terminate_handlerEv@@Base+0x1154>
    8d10:	aa0003e3 	mov	x3, x0
    8d14:	52800081 	mov	w1, #0x4                   	// #4
    8d18:	aa1b03e0 	mov	x0, x27
    8d1c:	aa1c03e2 	mov	x2, x28
    8d20:	97fff784 	bl	6b30 <_ZN9__gnu_cxx27__verbose_terminate_handlerEv@@Base+0x190>
    8d24:	aa0003e3 	mov	x3, x0
    8d28:	52800021 	mov	w1, #0x1                   	// #1
    8d2c:	aa1b03e0 	mov	x0, x27
    8d30:	17fffd6a 	b	82d8 <_ZN9__gnu_cxx27__verbose_terminate_handlerEv@@Base+0x1938>
    8d34:	aa1b03e0 	mov	x0, x27
    8d38:	94000dc5 	bl	c44c <_ZN9__gnu_cxx27__verbose_terminate_handlerEv@@Base+0x5aac>
    8d3c:	f9003ba0 	str	x0, [x29, #112]
    8d40:	aa1b03e0 	mov	x0, x27
    8d44:	94000dc2 	bl	c44c <_ZN9__gnu_cxx27__verbose_terminate_handlerEv@@Base+0x5aac>
    8d48:	aa0003fc 	mov	x28, x0
    8d4c:	aa1b03e0 	mov	x0, x27
    8d50:	94000dbf 	bl	c44c <_ZN9__gnu_cxx27__verbose_terminate_handlerEv@@Base+0x5aac>
    8d54:	17ffff2e 	b	8a0c <_ZN9__gnu_cxx27__verbose_terminate_handlerEv@@Base+0x206c>
    8d58:	91000401 	add	x1, x0, #0x1
    8d5c:	aa1b03e0 	mov	x0, x27
    8d60:	f9000f61 	str	x1, [x27, #24]
    8d64:	528008a1 	mov	w1, #0x45                  	// #69
    8d68:	9400009e 	bl	8fe0 <_ZN9__gnu_cxx27__verbose_terminate_handlerEv@@Base+0x2640>
    8d6c:	17ffffae 	b	8c24 <_ZN9__gnu_cxx27__verbose_terminate_handlerEv@@Base+0x2284>
    8d70:	aa1b03e0 	mov	x0, x27
    8d74:	528008a1 	mov	w1, #0x45                  	// #69
    8d78:	9400009a 	bl	8fe0 <_ZN9__gnu_cxx27__verbose_terminate_handlerEv@@Base+0x2640>
    8d7c:	aa0003e3 	mov	x3, x0
    8d80:	17ffff56 	b	8ad8 <_ZN9__gnu_cxx27__verbose_terminate_handlerEv@@Base+0x2138>
    8d84:	39400000 	ldrb	w0, [x0]
    8d88:	5101c801 	sub	w1, w0, #0x72
    8d8c:	53001c21 	uxtb	w1, w1
    8d90:	7100043f 	cmp	w1, #0x1
    8d94:	540000a9 	b.ls	8da8 <_ZN9__gnu_cxx27__verbose_terminate_handlerEv@@Base+0x2408>  // b.plast
    8d98:	51018c00 	sub	w0, w0, #0x63
    8d9c:	53001c00 	uxtb	w0, w0
    8da0:	7100041f 	cmp	w0, #0x1
    8da4:	54ffe5c8 	b.hi	8a5c <_ZN9__gnu_cxx27__verbose_terminate_handlerEv@@Base+0x20bc>  // b.pmore
    8da8:	aa1b03e0 	mov	x0, x27
    8dac:	f90037a2 	str	x2, [x29, #104]
    8db0:	94000261 	bl	9734 <_ZN9__gnu_cxx27__verbose_terminate_handlerEv@@Base+0x2d94>
    8db4:	f9003ba0 	str	x0, [x29, #112]
    8db8:	f94037a2 	ldr	x2, [x29, #104]
    8dbc:	17ffff2d 	b	8a70 <_ZN9__gnu_cxx27__verbose_terminate_handlerEv@@Base+0x20d0>
    8dc0:	aa1b03e0 	mov	x0, x27
    8dc4:	94000da2 	bl	c44c <_ZN9__gnu_cxx27__verbose_terminate_handlerEv@@Base+0x5aac>
    8dc8:	f9003ba0 	str	x0, [x29, #112]
    8dcc:	aa1b03e0 	mov	x0, x27
    8dd0:	94000d9f 	bl	c44c <_ZN9__gnu_cxx27__verbose_terminate_handlerEv@@Base+0x5aac>
    8dd4:	f90037a0 	str	x0, [x29, #104]
    8dd8:	aa1b03e0 	mov	x0, x27
    8ddc:	94000d9c 	bl	c44c <_ZN9__gnu_cxx27__verbose_terminate_handlerEv@@Base+0x5aac>
    8de0:	17ffff6d 	b	8b94 <_ZN9__gnu_cxx27__verbose_terminate_handlerEv@@Base+0x21f4>
    8de4:	aa1b03e0 	mov	x0, x27
    8de8:	94000d99 	bl	c44c <_ZN9__gnu_cxx27__verbose_terminate_handlerEv@@Base+0x5aac>
    8dec:	aa0003e3 	mov	x3, x0
    8df0:	17ffff3a 	b	8ad8 <_ZN9__gnu_cxx27__verbose_terminate_handlerEv@@Base+0x2138>
    8df4:	aa1b03e0 	mov	x0, x27
    8df8:	9400024f 	bl	9734 <_ZN9__gnu_cxx27__verbose_terminate_handlerEv@@Base+0x2d94>
    8dfc:	17ffff8a 	b	8c24 <_ZN9__gnu_cxx27__verbose_terminate_handlerEv@@Base+0x2284>
    8e00:	aa1b03e0 	mov	x0, x27
    8e04:	f90037a3 	str	x3, [x29, #104]
    8e08:	97fffb3b 	bl	7af4 <_ZN9__gnu_cxx27__verbose_terminate_handlerEv@@Base+0x1154>
    8e0c:	aa0003e5 	mov	x5, x0
    8e10:	f94037a3 	ldr	x3, [x29, #104]
    8e14:	aa1b03e0 	mov	x0, x27
    8e18:	52800081 	mov	w1, #0x4                   	// #4
    8e1c:	aa0303e2 	mov	x2, x3
    8e20:	aa0503e3 	mov	x3, x5
    8e24:	97fff743 	bl	6b30 <_ZN9__gnu_cxx27__verbose_terminate_handlerEv@@Base+0x190>
    8e28:	aa0003e3 	mov	x3, x0
    8e2c:	17ffff2b 	b	8ad8 <_ZN9__gnu_cxx27__verbose_terminate_handlerEv@@Base+0x2138>
    8e30:	39400401 	ldrb	w1, [x0, #1]
    8e34:	d2800003 	mov	x3, #0x0                   	// #0
    8e38:	7101a43f 	cmp	w1, #0x69
    8e3c:	54ff99a1 	b.ne	8170 <_ZN9__gnu_cxx27__verbose_terminate_handlerEv@@Base+0x17d0>  // b.any
    8e40:	91000801 	add	x1, x0, #0x2
    8e44:	aa1b03e0 	mov	x0, x27
    8e48:	f9000f61 	str	x1, [x27, #24]
    8e4c:	528008a1 	mov	w1, #0x45                  	// #69
    8e50:	94000064 	bl	8fe0 <_ZN9__gnu_cxx27__verbose_terminate_handlerEv@@Base+0x2640>
    8e54:	17ffff50 	b	8b94 <_ZN9__gnu_cxx27__verbose_terminate_handlerEv@@Base+0x21f4>
    8e58:	91000401 	add	x1, x0, #0x1
    8e5c:	d2800000 	mov	x0, #0x0                   	// #0
    8e60:	f9000f61 	str	x1, [x27, #24]
    8e64:	17ffff4c 	b	8b94 <_ZN9__gnu_cxx27__verbose_terminate_handlerEv@@Base+0x21f4>
    8e68:	aa1b03e0 	mov	x0, x27
    8e6c:	f9003ba3 	str	x3, [x29, #112]
    8e70:	97fffb21 	bl	7af4 <_ZN9__gnu_cxx27__verbose_terminate_handlerEv@@Base+0x1154>
    8e74:	aa0003e5 	mov	x5, x0
    8e78:	f9403ba3 	ldr	x3, [x29, #112]
    8e7c:	aa1b03e0 	mov	x0, x27
    8e80:	52800081 	mov	w1, #0x4                   	// #4
    8e84:	aa0303e2 	mov	x2, x3
    8e88:	aa0503e3 	mov	x3, x5
    8e8c:	97fff729 	bl	6b30 <_ZN9__gnu_cxx27__verbose_terminate_handlerEv@@Base+0x190>
    8e90:	aa0003e3 	mov	x3, x0
    8e94:	17ffff8e 	b	8ccc <_ZN9__gnu_cxx27__verbose_terminate_handlerEv@@Base+0x232c>
    8e98:	91000400 	add	x0, x0, #0x1
    8e9c:	f9000f60 	str	x0, [x27, #24]
    8ea0:	17fffd38 	b	8380 <_ZN9__gnu_cxx27__verbose_terminate_handlerEv@@Base+0x19e0>
    8ea4:	91000401 	add	x1, x0, #0x1
    8ea8:	aa1b03e0 	mov	x0, x27
    8eac:	f9000f61 	str	x1, [x27, #24]
    8eb0:	528008a1 	mov	w1, #0x45                  	// #69
    8eb4:	9400004b 	bl	8fe0 <_ZN9__gnu_cxx27__verbose_terminate_handlerEv@@Base+0x2640>
    8eb8:	aa0003e3 	mov	x3, x0
    8ebc:	17fffd05 	b	82d0 <_ZN9__gnu_cxx27__verbose_terminate_handlerEv@@Base+0x1930>
    8ec0:	7101a41f 	cmp	w0, #0x69
    8ec4:	54ff6c00 	b.eq	7c44 <_ZN9__gnu_cxx27__verbose_terminate_handlerEv@@Base+0x12a4>  // b.none
    8ec8:	17fffb62 	b	7c50 <_ZN9__gnu_cxx27__verbose_terminate_handlerEv@@Base+0x12b0>
    8ecc:	d280001a 	mov	x26, #0x0                   	// #0
    8ed0:	17fffd15 	b	8324 <_ZN9__gnu_cxx27__verbose_terminate_handlerEv@@Base+0x1984>
    8ed4:	d280001a 	mov	x26, #0x0                   	// #0
    8ed8:	17fffd05 	b	82ec <_ZN9__gnu_cxx27__verbose_terminate_handlerEv@@Base+0x194c>
    8edc:	39400422 	ldrb	w2, [x1, #1]
    8ee0:	7101a45f 	cmp	w2, #0x69
    8ee4:	54ffff41 	b.ne	8ecc <_ZN9__gnu_cxx27__verbose_terminate_handlerEv@@Base+0x252c>  // b.any
    8ee8:	91000821 	add	x1, x1, #0x2
    8eec:	aa1b03e0 	mov	x0, x27
    8ef0:	f9000f61 	str	x1, [x27, #24]
    8ef4:	528008a1 	mov	w1, #0x45                  	// #69
    8ef8:	9400003a 	bl	8fe0 <_ZN9__gnu_cxx27__verbose_terminate_handlerEv@@Base+0x2640>
    8efc:	17fffec4 	b	8a0c <_ZN9__gnu_cxx27__verbose_terminate_handlerEv@@Base+0x206c>
    8f00:	91000421 	add	x1, x1, #0x1
    8f04:	d2800000 	mov	x0, #0x0                   	// #0
    8f08:	f9000f61 	str	x1, [x27, #24]
    8f0c:	17fffec0 	b	8a0c <_ZN9__gnu_cxx27__verbose_terminate_handlerEv@@Base+0x206c>
    8f10:	aa1b03e0 	mov	x0, x27
    8f14:	528008a1 	mov	w1, #0x45                  	// #69
    8f18:	94000032 	bl	8fe0 <_ZN9__gnu_cxx27__verbose_terminate_handlerEv@@Base+0x2640>
    8f1c:	aa0003e3 	mov	x3, x0
    8f20:	17fffe7b 	b	890c <_ZN9__gnu_cxx27__verbose_terminate_handlerEv@@Base+0x1f6c>
    8f24:	39400000 	ldrb	w0, [x0]
    8f28:	5101c801 	sub	w1, w0, #0x72
    8f2c:	53001c21 	uxtb	w1, w1
    8f30:	7100043f 	cmp	w1, #0x1
    8f34:	540000a9 	b.ls	8f48 <_ZN9__gnu_cxx27__verbose_terminate_handlerEv@@Base+0x25a8>  // b.plast
    8f38:	51018c00 	sub	w0, w0, #0x63
    8f3c:	53001c00 	uxtb	w0, w0
    8f40:	7100041f 	cmp	w0, #0x1
    8f44:	54ffcb28 	b.hi	88a8 <_ZN9__gnu_cxx27__verbose_terminate_handlerEv@@Base+0x1f08>  // b.pmore
    8f48:	aa1b03e0 	mov	x0, x27
    8f4c:	940001fa 	bl	9734 <_ZN9__gnu_cxx27__verbose_terminate_handlerEv@@Base+0x2d94>
    8f50:	f9003ba0 	str	x0, [x29, #112]
    8f54:	17fffe58 	b	88b4 <_ZN9__gnu_cxx27__verbose_terminate_handlerEv@@Base+0x1f14>
    8f58:	aa1b03e0 	mov	x0, x27
    8f5c:	94000d3c 	bl	c44c <_ZN9__gnu_cxx27__verbose_terminate_handlerEv@@Base+0x5aac>
    8f60:	aa0003e3 	mov	x3, x0
    8f64:	17fffe6a 	b	890c <_ZN9__gnu_cxx27__verbose_terminate_handlerEv@@Base+0x1f6c>
    8f68:	aa1b03e0 	mov	x0, x27
    8f6c:	f90037a3 	str	x3, [x29, #104]
    8f70:	97fffae1 	bl	7af4 <_ZN9__gnu_cxx27__verbose_terminate_handlerEv@@Base+0x1154>
    8f74:	aa0003e5 	mov	x5, x0
    8f78:	f94037a3 	ldr	x3, [x29, #104]
    8f7c:	aa1b03e0 	mov	x0, x27
    8f80:	52800081 	mov	w1, #0x4                   	// #4
    8f84:	aa0303e2 	mov	x2, x3
    8f88:	aa0503e3 	mov	x3, x5
    8f8c:	97fff6e9 	bl	6b30 <_ZN9__gnu_cxx27__verbose_terminate_handlerEv@@Base+0x190>
    8f90:	aa0003e3 	mov	x3, x0
    8f94:	17fffe5e 	b	890c <_ZN9__gnu_cxx27__verbose_terminate_handlerEv@@Base+0x1f6c>
    8f98:	aa1b03e0 	mov	x0, x27
    8f9c:	940001e6 	bl	9734 <_ZN9__gnu_cxx27__verbose_terminate_handlerEv@@Base+0x2d94>
    8fa0:	aa0003e2 	mov	x2, x0
    8fa4:	f9400f61 	ldr	x1, [x27, #24]
    8fa8:	17fffdad 	b	865c <_ZN9__gnu_cxx27__verbose_terminate_handlerEv@@Base+0x1cbc>
    8fac:	aa1b03e0 	mov	x0, x27
    8fb0:	940001e1 	bl	9734 <_ZN9__gnu_cxx27__verbose_terminate_handlerEv@@Base+0x2d94>
    8fb4:	aa0003e2 	mov	x2, x0
    8fb8:	17fffdc3 	b	86c4 <_ZN9__gnu_cxx27__verbose_terminate_handlerEv@@Base+0x1d24>
    8fbc:	aa1b03e0 	mov	x0, x27
    8fc0:	940001dd 	bl	9734 <_ZN9__gnu_cxx27__verbose_terminate_handlerEv@@Base+0x2d94>
    8fc4:	aa0003e3 	mov	x3, x0
    8fc8:	528006c1 	mov	w1, #0x36                  	// #54
    8fcc:	aa1b03e0 	mov	x0, x27
    8fd0:	17fffcc2 	b	82d8 <_ZN9__gnu_cxx27__verbose_terminate_handlerEv@@Base+0x1938>
    8fd4:	91000400 	add	x0, x0, #0x1
    8fd8:	f9000f60 	str	x0, [x27, #24]
    8fdc:	17fffcba 	b	82c4 <_ZN9__gnu_cxx27__verbose_terminate_handlerEv@@Base+0x1924>
    8fe0:	a9b87bfd 	stp	x29, x30, [sp, #-128]!
    8fe4:	910003fd 	mov	x29, sp
    8fe8:	a9025bf5 	stp	x21, x22, [sp, #32]
    8fec:	53001c36 	uxtb	w22, w1
    8ff0:	f9400c01 	ldr	x1, [x0, #24]
    8ff4:	a90153f3 	stp	x19, x20, [sp, #16]
    8ff8:	a90363f7 	stp	x23, x24, [sp, #48]
    8ffc:	a9046bf9 	stp	x25, x26, [sp, #64]
    9000:	a90573fb 	stp	x27, x28, [sp, #80]
    9004:	910203b4 	add	x20, x29, #0x80
    9008:	aa0003f3 	mov	x19, x0
    900c:	39400022 	ldrb	w2, [x1]
    9010:	f81f8e9f 	str	xzr, [x20, #-8]!
    9014:	6b16005f 	cmp	w2, w22
    9018:	540033c0 	b.eq	9690 <_ZN9__gnu_cxx27__verbose_terminate_handlerEv@@Base+0x2cf0>  // b.none
    901c:	f0000079 	adrp	x25, 18000 <_ZTSN10__cxxabiv117__class_type_infoE@@Base>
    9020:	f0000078 	adrp	x24, 18000 <_ZTSN10__cxxabiv117__class_type_infoE@@Base>
    9024:	f0000077 	adrp	x23, 18000 <_ZTSN10__cxxabiv117__class_type_infoE@@Base>
    9028:	9107c339 	add	x25, x25, #0x1f0
    902c:	91166318 	add	x24, x24, #0x598
    9030:	911602f7 	add	x23, x23, #0x580
    9034:	b9405675 	ldr	w21, [x19, #84]
    9038:	5280003a 	mov	w26, #0x1                   	// #1
    903c:	b900567a 	str	w26, [x19, #84]
    9040:	39400020 	ldrb	w0, [x1]
    9044:	7101301f 	cmp	w0, #0x4c
    9048:	540013e0 	b.eq	92c4 <_ZN9__gnu_cxx27__verbose_terminate_handlerEv@@Base+0x2924>  // b.none
    904c:	7101501f 	cmp	w0, #0x54
    9050:	54001420 	b.eq	92d4 <_ZN9__gnu_cxx27__verbose_terminate_handlerEv@@Base+0x2934>  // b.none
    9054:	7101cc1f 	cmp	w0, #0x73
    9058:	54000ba0 	b.eq	91cc <_ZN9__gnu_cxx27__verbose_terminate_handlerEv@@Base+0x282c>  // b.none
    905c:	7101981f 	cmp	w0, #0x66
    9060:	54000d60 	b.eq	920c <_ZN9__gnu_cxx27__verbose_terminate_handlerEv@@Base+0x286c>  // b.none
    9064:	5100c002 	sub	w2, w0, #0x30
    9068:	53001c42 	uxtb	w2, w2
    906c:	7100245f 	cmp	w2, #0x9
    9070:	540004c9 	b.ls	9108 <_ZN9__gnu_cxx27__verbose_terminate_handlerEv@@Base+0x2768>  // b.plast
    9074:	7101bc1f 	cmp	w0, #0x6f
    9078:	540003e0 	b.eq	90f4 <_ZN9__gnu_cxx27__verbose_terminate_handlerEv@@Base+0x2754>  // b.none
    907c:	7101d01f 	cmp	w0, #0x74
    9080:	1a9f17e3 	cset	w3, eq	// eq = none
    9084:	34003523 	cbz	w3, 9728 <_ZN9__gnu_cxx27__verbose_terminate_handlerEv@@Base+0x2d88>
    9088:	39400420 	ldrb	w0, [x1, #1]
    908c:	7101b01f 	cmp	w0, #0x6c
    9090:	540012a0 	b.eq	92e4 <_ZN9__gnu_cxx27__verbose_terminate_handlerEv@@Base+0x2944>  // b.none
    9094:	aa1303e0 	mov	x0, x19
    9098:	94000795 	bl	aeec <_ZN9__gnu_cxx27__verbose_terminate_handlerEv@@Base+0x454c>
    909c:	aa0003fa 	mov	x26, x0
    90a0:	b40010e0 	cbz	x0, 92bc <_ZN9__gnu_cxx27__verbose_terminate_handlerEv@@Base+0x291c>
    90a4:	b9400000 	ldr	w0, [x0]
    90a8:	7100c41f 	cmp	w0, #0x31
    90ac:	54000ea0 	b.eq	9280 <_ZN9__gnu_cxx27__verbose_terminate_handlerEv@@Base+0x28e0>  // b.none
    90b0:	7100c81f 	cmp	w0, #0x32
    90b4:	54001360 	b.eq	9320 <_ZN9__gnu_cxx27__verbose_terminate_handlerEv@@Base+0x2980>  // b.none
    90b8:	7100cc1f 	cmp	w0, #0x33
    90bc:	54001001 	b.ne	92bc <_ZN9__gnu_cxx27__verbose_terminate_handlerEv@@Base+0x291c>  // b.any
    90c0:	f9400e60 	ldr	x0, [x19, #24]
    90c4:	39400001 	ldrb	w1, [x0]
    90c8:	71017c3f 	cmp	w1, #0x5f
    90cc:	54002fa0 	b.eq	96c0 <_ZN9__gnu_cxx27__verbose_terminate_handlerEv@@Base+0x2d20>  // b.none
    90d0:	aa1303e0 	mov	x0, x19
    90d4:	94000cde 	bl	c44c <_ZN9__gnu_cxx27__verbose_terminate_handlerEv@@Base+0x5aac>
    90d8:	aa0003e3 	mov	x3, x0
    90dc:	aa1a03e2 	mov	x2, x26
    90e0:	aa1303e0 	mov	x0, x19
    90e4:	528006c1 	mov	w1, #0x36                  	// #54
    90e8:	97fff692 	bl	6b30 <_ZN9__gnu_cxx27__verbose_terminate_handlerEv@@Base+0x190>
    90ec:	aa0003e2 	mov	x2, x0
    90f0:	1400002d 	b	91a4 <_ZN9__gnu_cxx27__verbose_terminate_handlerEv@@Base+0x2804>
    90f4:	39400420 	ldrb	w0, [x1, #1]
    90f8:	7101b81f 	cmp	w0, #0x6e
    90fc:	54fffcc1 	b.ne	9094 <_ZN9__gnu_cxx27__verbose_terminate_handlerEv@@Base+0x26f4>  // b.any
    9100:	91000821 	add	x1, x1, #0x2
    9104:	f9000e61 	str	x1, [x19, #24]
    9108:	aa1303e0 	mov	x0, x19
    910c:	940007f5 	bl	b0e0 <_ZN9__gnu_cxx27__verbose_terminate_handlerEv@@Base+0x4740>
    9110:	b4000d60 	cbz	x0, 92bc <_ZN9__gnu_cxx27__verbose_terminate_handlerEv@@Base+0x291c>
    9114:	f9400e61 	ldr	x1, [x19, #24]
    9118:	aa0003e2 	mov	x2, x0
    911c:	39400020 	ldrb	w0, [x1]
    9120:	7101241f 	cmp	w0, #0x49
    9124:	540002e0 	b.eq	9180 <_ZN9__gnu_cxx27__verbose_terminate_handlerEv@@Base+0x27e0>  // b.none
    9128:	b9005675 	str	w21, [x19, #84]
    912c:	aa1303e0 	mov	x0, x19
    9130:	528005c1 	mov	w1, #0x2e                  	// #46
    9134:	d2800003 	mov	x3, #0x0                   	// #0
    9138:	97fff67e 	bl	6b30 <_ZN9__gnu_cxx27__verbose_terminate_handlerEv@@Base+0x190>
    913c:	f9000280 	str	x0, [x20]
    9140:	b4000360 	cbz	x0, 91ac <_ZN9__gnu_cxx27__verbose_terminate_handlerEv@@Base+0x280c>
    9144:	f9400e61 	ldr	x1, [x19, #24]
    9148:	91004014 	add	x20, x0, #0x10
    914c:	39400020 	ldrb	w0, [x1]
    9150:	6b16001f 	cmp	w0, w22
    9154:	54fff701 	b.ne	9034 <_ZN9__gnu_cxx27__verbose_terminate_handlerEv@@Base+0x2694>  // b.any
    9158:	91000421 	add	x1, x1, #0x1
    915c:	f9000e61 	str	x1, [x19, #24]
    9160:	f9403fa0 	ldr	x0, [x29, #120]
    9164:	a94153f3 	ldp	x19, x20, [sp, #16]
    9168:	a9425bf5 	ldp	x21, x22, [sp, #32]
    916c:	a94363f7 	ldp	x23, x24, [sp, #48]
    9170:	a9446bf9 	ldp	x25, x26, [sp, #64]
    9174:	a94573fb 	ldp	x27, x28, [sp, #80]
    9178:	a8c87bfd 	ldp	x29, x30, [sp], #128
    917c:	d65f03c0 	ret
    9180:	aa1303e0 	mov	x0, x19
    9184:	f90037a2 	str	x2, [x29, #104]
    9188:	97fffa5b 	bl	7af4 <_ZN9__gnu_cxx27__verbose_terminate_handlerEv@@Base+0x1154>
    918c:	aa0003e3 	mov	x3, x0
    9190:	f94037a2 	ldr	x2, [x29, #104]
    9194:	aa1303e0 	mov	x0, x19
    9198:	52800081 	mov	w1, #0x4                   	// #4
    919c:	97fff665 	bl	6b30 <_ZN9__gnu_cxx27__verbose_terminate_handlerEv@@Base+0x190>
    91a0:	aa0003e2 	mov	x2, x0
    91a4:	b9005675 	str	w21, [x19, #84]
    91a8:	b5fffc22 	cbnz	x2, 912c <_ZN9__gnu_cxx27__verbose_terminate_handlerEv@@Base+0x278c>
    91ac:	a94153f3 	ldp	x19, x20, [sp, #16]
    91b0:	a9425bf5 	ldp	x21, x22, [sp, #32]
    91b4:	a94363f7 	ldp	x23, x24, [sp, #48]
    91b8:	a9446bf9 	ldp	x25, x26, [sp, #64]
    91bc:	a94573fb 	ldp	x27, x28, [sp, #80]
    91c0:	d2800000 	mov	x0, #0x0                   	// #0
    91c4:	a8c87bfd 	ldp	x29, x30, [sp], #128
    91c8:	d65f03c0 	ret
    91cc:	39400420 	ldrb	w0, [x1, #1]
    91d0:	7101c81f 	cmp	w0, #0x72
    91d4:	54001ac0 	b.eq	952c <_ZN9__gnu_cxx27__verbose_terminate_handlerEv@@Base+0x2b8c>  // b.none
    91d8:	7101c01f 	cmp	w0, #0x70
    91dc:	54fff5c1 	b.ne	9094 <_ZN9__gnu_cxx27__verbose_terminate_handlerEv@@Base+0x26f4>  // b.any
    91e0:	91000821 	add	x1, x1, #0x2
    91e4:	aa1303e0 	mov	x0, x19
    91e8:	f9000e61 	str	x1, [x19, #24]
    91ec:	94000c98 	bl	c44c <_ZN9__gnu_cxx27__verbose_terminate_handlerEv@@Base+0x5aac>
    91f0:	aa0003e2 	mov	x2, x0
    91f4:	52800941 	mov	w1, #0x4a                  	// #74
    91f8:	aa1303e0 	mov	x0, x19
    91fc:	d2800003 	mov	x3, #0x0                   	// #0
    9200:	97fff64c 	bl	6b30 <_ZN9__gnu_cxx27__verbose_terminate_handlerEv@@Base+0x190>
    9204:	aa0003e2 	mov	x2, x0
    9208:	17ffffe7 	b	91a4 <_ZN9__gnu_cxx27__verbose_terminate_handlerEv@@Base+0x2804>
    920c:	39400420 	ldrb	w0, [x1, #1]
    9210:	7101c01f 	cmp	w0, #0x70
    9214:	54fff401 	b.ne	9094 <_ZN9__gnu_cxx27__verbose_terminate_handlerEv@@Base+0x26f4>  // b.any
    9218:	91000820 	add	x0, x1, #0x2
    921c:	f9000e60 	str	x0, [x19, #24]
    9220:	39400820 	ldrb	w0, [x1, #2]
    9224:	7101501f 	cmp	w0, #0x54
    9228:	540008a0 	b.eq	933c <_ZN9__gnu_cxx27__verbose_terminate_handlerEv@@Base+0x299c>  // b.none
    922c:	aa1303e0 	mov	x0, x19
    9230:	97fff96f 	bl	77ec <_ZN9__gnu_cxx27__verbose_terminate_handlerEv@@Base+0xe4c>
    9234:	31000400 	adds	w0, w0, #0x1
    9238:	54000420 	b.eq	92bc <_ZN9__gnu_cxx27__verbose_terminate_handlerEv@@Base+0x291c>  // b.none
    923c:	93407c00 	sxtw	x0, w0
    9240:	b9402a62 	ldr	w2, [x19, #40]
    9244:	b9402e61 	ldr	w1, [x19, #44]
    9248:	6b01005f 	cmp	w2, w1
    924c:	5400038a 	b.ge	92bc <_ZN9__gnu_cxx27__verbose_terminate_handlerEv@@Base+0x291c>  // b.tcont
    9250:	93407c41 	sxtw	x1, w2
    9254:	f9401263 	ldr	x3, [x19, #32]
    9258:	d37be824 	lsl	x4, x1, #5
    925c:	11000442 	add	w2, w2, #0x1
    9260:	cb010c81 	sub	x1, x4, x1, lsl #3
    9264:	b9002a62 	str	w2, [x19, #40]
    9268:	ab010062 	adds	x2, x3, x1
    926c:	54000280 	b.eq	92bc <_ZN9__gnu_cxx27__verbose_terminate_handlerEv@@Base+0x291c>  // b.none
    9270:	528000c4 	mov	w4, #0x6                   	// #6
    9274:	b8216864 	str	w4, [x3, x1]
    9278:	f9000440 	str	x0, [x2, #8]
    927c:	17ffffab 	b	9128 <_ZN9__gnu_cxx27__verbose_terminate_handlerEv@@Base+0x2788>
    9280:	f940075c 	ldr	x28, [x26, #8]
    9284:	f0000061 	adrp	x1, 18000 <_ZTSN10__cxxabiv117__class_type_infoE@@Base>
    9288:	b9405262 	ldr	w2, [x19, #80]
    928c:	912c0021 	add	x1, x1, #0xb00
    9290:	b9401380 	ldr	w0, [x28, #16]
    9294:	f940039b 	ldr	x27, [x28]
    9298:	51000800 	sub	w0, w0, #0x2
    929c:	0b000042 	add	w2, w2, w0
    92a0:	aa1b03e0 	mov	x0, x27
    92a4:	b9005262 	str	w2, [x19, #80]
    92a8:	97ffedde 	bl	4a20 <strcmp@plt>
    92ac:	340018e0 	cbz	w0, 95c8 <_ZN9__gnu_cxx27__verbose_terminate_handlerEv@@Base+0x2c28>
    92b0:	b9401780 	ldr	w0, [x28, #20]
    92b4:	71000c1f 	cmp	w0, #0x3
    92b8:	540004a9 	b.ls	934c <_ZN9__gnu_cxx27__verbose_terminate_handlerEv@@Base+0x29ac>  // b.plast
    92bc:	b9005675 	str	w21, [x19, #84]
    92c0:	17ffffbb 	b	91ac <_ZN9__gnu_cxx27__verbose_terminate_handlerEv@@Base+0x280c>
    92c4:	aa1303e0 	mov	x0, x19
    92c8:	94000c03 	bl	c2d4 <_ZN9__gnu_cxx27__verbose_terminate_handlerEv@@Base+0x5934>
    92cc:	aa0003e2 	mov	x2, x0
    92d0:	17ffffb5 	b	91a4 <_ZN9__gnu_cxx27__verbose_terminate_handlerEv@@Base+0x2804>
    92d4:	aa1303e0 	mov	x0, x19
    92d8:	97fff991 	bl	791c <_ZN9__gnu_cxx27__verbose_terminate_handlerEv@@Base+0xf7c>
    92dc:	aa0003e2 	mov	x2, x0
    92e0:	17ffffb1 	b	91a4 <_ZN9__gnu_cxx27__verbose_terminate_handlerEv@@Base+0x2804>
    92e4:	d2800002 	mov	x2, #0x0                   	// #0
    92e8:	35001783 	cbnz	w3, 95d8 <_ZN9__gnu_cxx27__verbose_terminate_handlerEv@@Base+0x2c38>
    92ec:	91000823 	add	x3, x1, #0x2
    92f0:	aa1303e0 	mov	x0, x19
    92f4:	528008a1 	mov	w1, #0x45                  	// #69
    92f8:	f9000e63 	str	x3, [x19, #24]
    92fc:	f90037a2 	str	x2, [x29, #104]
    9300:	97ffff38 	bl	8fe0 <_ZN9__gnu_cxx27__verbose_terminate_handlerEv@@Base+0x2640>
    9304:	aa0003e3 	mov	x3, x0
    9308:	f94037a2 	ldr	x2, [x29, #104]
    930c:	aa1303e0 	mov	x0, x19
    9310:	52800601 	mov	w1, #0x30                  	// #48
    9314:	97fff607 	bl	6b30 <_ZN9__gnu_cxx27__verbose_terminate_handlerEv@@Base+0x190>
    9318:	aa0003e2 	mov	x2, x0
    931c:	17ffffa2 	b	91a4 <_ZN9__gnu_cxx27__verbose_terminate_handlerEv@@Base+0x2804>
    9320:	b9400b40 	ldr	w0, [x26, #8]
    9324:	71000c1f 	cmp	w0, #0x3
    9328:	54fffca8 	b.hi	92bc <_ZN9__gnu_cxx27__verbose_terminate_handlerEv@@Base+0x291c>  // b.pmore
    932c:	78605b20 	ldrh	w0, [x25, w0, uxtw #1]
    9330:	10000061 	adr	x1, 933c <_ZN9__gnu_cxx27__verbose_terminate_handlerEv@@Base+0x299c>
    9334:	8b20a820 	add	x0, x1, w0, sxth #2
    9338:	d61f0000 	br	x0
    933c:	91000c21 	add	x1, x1, #0x3
    9340:	d2800000 	mov	x0, #0x0                   	// #0
    9344:	f9000e61 	str	x1, [x19, #24]
    9348:	17ffffbe 	b	9240 <_ZN9__gnu_cxx27__verbose_terminate_handlerEv@@Base+0x28a0>
    934c:	f0000061 	adrp	x1, 18000 <_ZTSN10__cxxabiv117__class_type_infoE@@Base>
    9350:	9107e021 	add	x1, x1, #0x1f8
    9354:	78605820 	ldrh	w0, [x1, w0, uxtw #1]
    9358:	10000061 	adr	x1, 9364 <_ZN9__gnu_cxx27__verbose_terminate_handlerEv@@Base+0x29c4>
    935c:	8b20a820 	add	x0, x1, w0, sxth #2
    9360:	d61f0000 	br	x0
    9364:	aa1a03e2 	mov	x2, x26
    9368:	aa1303e0 	mov	x0, x19
    936c:	528006a1 	mov	w1, #0x35                  	// #53
    9370:	d2800003 	mov	x3, #0x0                   	// #0
    9374:	97fff5ef 	bl	6b30 <_ZN9__gnu_cxx27__verbose_terminate_handlerEv@@Base+0x190>
    9378:	aa0003e2 	mov	x2, x0
    937c:	17ffff8a 	b	91a4 <_ZN9__gnu_cxx27__verbose_terminate_handlerEv@@Base+0x2804>
    9380:	d280001b 	mov	x27, #0x0                   	// #0
    9384:	aa1b03e0 	mov	x0, x27
    9388:	aa1803e1 	mov	x1, x24
    938c:	97ffeda5 	bl	4a20 <strcmp@plt>
    9390:	34001380 	cbz	w0, 9600 <_ZN9__gnu_cxx27__verbose_terminate_handlerEv@@Base+0x2c60>
    9394:	39400360 	ldrb	w0, [x27]
    9398:	7101b81f 	cmp	w0, #0x6e
    939c:	54fff901 	b.ne	92bc <_ZN9__gnu_cxx27__verbose_terminate_handlerEv@@Base+0x291c>  // b.any
    93a0:	39400760 	ldrb	w0, [x27, #1]
    93a4:	7101841f 	cmp	w0, #0x61
    93a8:	54000060 	b.eq	93b4 <_ZN9__gnu_cxx27__verbose_terminate_handlerEv@@Base+0x2a14>  // b.none
    93ac:	7101dc1f 	cmp	w0, #0x77
    93b0:	54fff861 	b.ne	92bc <_ZN9__gnu_cxx27__verbose_terminate_handlerEv@@Base+0x291c>  // b.any
    93b4:	52800be1 	mov	w1, #0x5f                  	// #95
    93b8:	aa1303e0 	mov	x0, x19
    93bc:	97ffff09 	bl	8fe0 <_ZN9__gnu_cxx27__verbose_terminate_handlerEv@@Base+0x2640>
    93c0:	aa0003fb 	mov	x27, x0
    93c4:	aa1303e0 	mov	x0, x19
    93c8:	940000db 	bl	9734 <_ZN9__gnu_cxx27__verbose_terminate_handlerEv@@Base+0x2d94>
    93cc:	aa0003e2 	mov	x2, x0
    93d0:	f9400e60 	ldr	x0, [x19, #24]
    93d4:	39400001 	ldrb	w1, [x0]
    93d8:	7101143f 	cmp	w1, #0x45
    93dc:	54001800 	b.eq	96dc <_ZN9__gnu_cxx27__verbose_terminate_handlerEv@@Base+0x2d3c>  // b.none
    93e0:	7101c03f 	cmp	w1, #0x70
    93e4:	54001840 	b.eq	96ec <_ZN9__gnu_cxx27__verbose_terminate_handlerEv@@Base+0x2d4c>  // b.none
    93e8:	f90037a2 	str	x2, [x29, #104]
    93ec:	7101a43f 	cmp	w1, #0x69
    93f0:	54fff661 	b.ne	92bc <_ZN9__gnu_cxx27__verbose_terminate_handlerEv@@Base+0x291c>  // b.any
    93f4:	39400400 	ldrb	w0, [x0, #1]
    93f8:	7101b01f 	cmp	w0, #0x6c
    93fc:	54fff601 	b.ne	92bc <_ZN9__gnu_cxx27__verbose_terminate_handlerEv@@Base+0x291c>  // b.any
    9400:	aa1303e0 	mov	x0, x19
    9404:	94000c12 	bl	c44c <_ZN9__gnu_cxx27__verbose_terminate_handlerEv@@Base+0x5aac>
    9408:	aa0003e3 	mov	x3, x0
    940c:	f94037a2 	ldr	x2, [x29, #104]
    9410:	52800761 	mov	w1, #0x3b                  	// #59
    9414:	aa1303e0 	mov	x0, x19
    9418:	97fff5c6 	bl	6b30 <_ZN9__gnu_cxx27__verbose_terminate_handlerEv@@Base+0x190>
    941c:	aa0003e3 	mov	x3, x0
    9420:	52800741 	mov	w1, #0x3a                  	// #58
    9424:	aa1b03e2 	mov	x2, x27
    9428:	aa1303e0 	mov	x0, x19
    942c:	97fff5c1 	bl	6b30 <_ZN9__gnu_cxx27__verbose_terminate_handlerEv@@Base+0x190>
    9430:	aa0003e3 	mov	x3, x0
    9434:	aa1a03e2 	mov	x2, x26
    9438:	aa1303e0 	mov	x0, x19
    943c:	52800721 	mov	w1, #0x39                  	// #57
    9440:	97fff5bc 	bl	6b30 <_ZN9__gnu_cxx27__verbose_terminate_handlerEv@@Base+0x190>
    9444:	aa0003e2 	mov	x2, x0
    9448:	17ffff57 	b	91a4 <_ZN9__gnu_cxx27__verbose_terminate_handlerEv@@Base+0x2804>
    944c:	d280001b 	mov	x27, #0x0                   	// #0
    9450:	f9400740 	ldr	x0, [x26, #8]
    9454:	f9400000 	ldr	x0, [x0]
    9458:	39400401 	ldrb	w1, [x0, #1]
    945c:	71018c3f 	cmp	w1, #0x63
    9460:	54000e60 	b.eq	962c <_ZN9__gnu_cxx27__verbose_terminate_handlerEv@@Base+0x2c8c>  // b.none
    9464:	aa1303e0 	mov	x0, x19
    9468:	94000bf9 	bl	c44c <_ZN9__gnu_cxx27__verbose_terminate_handlerEv@@Base+0x5aac>
    946c:	aa0003fc 	mov	x28, x0
    9470:	aa1b03e0 	mov	x0, x27
    9474:	aa1703e1 	mov	x1, x23
    9478:	97ffed6a 	bl	4a20 <strcmp@plt>
    947c:	34000b80 	cbz	w0, 95ec <_ZN9__gnu_cxx27__verbose_terminate_handlerEv@@Base+0x2c4c>
    9480:	f0000061 	adrp	x1, 18000 <_ZTSN10__cxxabiv117__class_type_infoE@@Base>
    9484:	aa1b03e0 	mov	x0, x27
    9488:	91162021 	add	x1, x1, #0x588
    948c:	97ffed65 	bl	4a20 <strcmp@plt>
    9490:	34000280 	cbz	w0, 94e0 <_ZN9__gnu_cxx27__verbose_terminate_handlerEv@@Base+0x2b40>
    9494:	f0000061 	adrp	x1, 18000 <_ZTSN10__cxxabiv117__class_type_infoE@@Base>
    9498:	aa1b03e0 	mov	x0, x27
    949c:	91164021 	add	x1, x1, #0x590
    94a0:	97ffed60 	bl	4a20 <strcmp@plt>
    94a4:	340001e0 	cbz	w0, 94e0 <_ZN9__gnu_cxx27__verbose_terminate_handlerEv@@Base+0x2b40>
    94a8:	aa1303e0 	mov	x0, x19
    94ac:	94000be8 	bl	c44c <_ZN9__gnu_cxx27__verbose_terminate_handlerEv@@Base+0x5aac>
    94b0:	aa0003e3 	mov	x3, x0
    94b4:	52800701 	mov	w1, #0x38                  	// #56
    94b8:	aa1c03e2 	mov	x2, x28
    94bc:	aa1303e0 	mov	x0, x19
    94c0:	97fff59c 	bl	6b30 <_ZN9__gnu_cxx27__verbose_terminate_handlerEv@@Base+0x190>
    94c4:	aa0003e3 	mov	x3, x0
    94c8:	aa1a03e2 	mov	x2, x26
    94cc:	aa1303e0 	mov	x0, x19
    94d0:	528006e1 	mov	w1, #0x37                  	// #55
    94d4:	97fff597 	bl	6b30 <_ZN9__gnu_cxx27__verbose_terminate_handlerEv@@Base+0x190>
    94d8:	aa0003e2 	mov	x2, x0
    94dc:	17ffff32 	b	91a4 <_ZN9__gnu_cxx27__verbose_terminate_handlerEv@@Base+0x2804>
    94e0:	aa1303e0 	mov	x0, x19
    94e4:	940006ff 	bl	b0e0 <_ZN9__gnu_cxx27__verbose_terminate_handlerEv@@Base+0x4740>
    94e8:	aa0003e3 	mov	x3, x0
    94ec:	f9400e60 	ldr	x0, [x19, #24]
    94f0:	39400000 	ldrb	w0, [x0]
    94f4:	7101241f 	cmp	w0, #0x49
    94f8:	54fffde1 	b.ne	94b4 <_ZN9__gnu_cxx27__verbose_terminate_handlerEv@@Base+0x2b14>  // b.any
    94fc:	aa1303e0 	mov	x0, x19
    9500:	f90037a3 	str	x3, [x29, #104]
    9504:	97fff97c 	bl	7af4 <_ZN9__gnu_cxx27__verbose_terminate_handlerEv@@Base+0x1154>
    9508:	aa0003e4 	mov	x4, x0
    950c:	f94037a3 	ldr	x3, [x29, #104]
    9510:	aa1303e0 	mov	x0, x19
    9514:	52800081 	mov	w1, #0x4                   	// #4
    9518:	aa0303e2 	mov	x2, x3
    951c:	aa0403e3 	mov	x3, x4
    9520:	97fff584 	bl	6b30 <_ZN9__gnu_cxx27__verbose_terminate_handlerEv@@Base+0x190>
    9524:	aa0003e3 	mov	x3, x0
    9528:	17ffffe3 	b	94b4 <_ZN9__gnu_cxx27__verbose_terminate_handlerEv@@Base+0x2b14>
    952c:	91000821 	add	x1, x1, #0x2
    9530:	aa1303e0 	mov	x0, x19
    9534:	f9000e61 	str	x1, [x19, #24]
    9538:	9400007f 	bl	9734 <_ZN9__gnu_cxx27__verbose_terminate_handlerEv@@Base+0x2d94>
    953c:	aa0003fb 	mov	x27, x0
    9540:	aa1303e0 	mov	x0, x19
    9544:	940006e7 	bl	b0e0 <_ZN9__gnu_cxx27__verbose_terminate_handlerEv@@Base+0x4740>
    9548:	aa0003e3 	mov	x3, x0
    954c:	f9400e60 	ldr	x0, [x19, #24]
    9550:	39400000 	ldrb	w0, [x0]
    9554:	7101241f 	cmp	w0, #0x49
    9558:	54000840 	b.eq	9660 <_ZN9__gnu_cxx27__verbose_terminate_handlerEv@@Base+0x2cc0>  // b.none
    955c:	aa1b03e2 	mov	x2, x27
    9560:	aa1303e0 	mov	x0, x19
    9564:	2a1a03e1 	mov	w1, w26
    9568:	97fff572 	bl	6b30 <_ZN9__gnu_cxx27__verbose_terminate_handlerEv@@Base+0x190>
    956c:	aa0003e2 	mov	x2, x0
    9570:	17ffff0d 	b	91a4 <_ZN9__gnu_cxx27__verbose_terminate_handlerEv@@Base+0x2804>
    9574:	39400360 	ldrb	w0, [x27]
    9578:	7101b41f 	cmp	w0, #0x6d
    957c:	54000060 	b.eq	9588 <_ZN9__gnu_cxx27__verbose_terminate_handlerEv@@Base+0x2be8>  // b.none
    9580:	7101c01f 	cmp	w0, #0x70
    9584:	54ffda61 	b.ne	90d0 <_ZN9__gnu_cxx27__verbose_terminate_handlerEv@@Base+0x2730>  // b.any
    9588:	39400761 	ldrb	w1, [x27, #1]
    958c:	6b00003f 	cmp	w1, w0
    9590:	54ffda01 	b.ne	90d0 <_ZN9__gnu_cxx27__verbose_terminate_handlerEv@@Base+0x2730>  // b.any
    9594:	f9400e60 	ldr	x0, [x19, #24]
    9598:	39400001 	ldrb	w1, [x0]
    959c:	71017c3f 	cmp	w1, #0x5f
    95a0:	54000be0 	b.eq	971c <_ZN9__gnu_cxx27__verbose_terminate_handlerEv@@Base+0x2d7c>  // b.none
    95a4:	aa1303e0 	mov	x0, x19
    95a8:	94000ba9 	bl	c44c <_ZN9__gnu_cxx27__verbose_terminate_handlerEv@@Base+0x5aac>
    95ac:	aa0003e2 	mov	x2, x0
    95b0:	aa0203e3 	mov	x3, x2
    95b4:	aa1303e0 	mov	x0, x19
    95b8:	52800701 	mov	w1, #0x38                  	// #56
    95bc:	97fff55d 	bl	6b30 <_ZN9__gnu_cxx27__verbose_terminate_handlerEv@@Base+0x190>
    95c0:	aa0003e3 	mov	x3, x0
    95c4:	17fffec6 	b	90dc <_ZN9__gnu_cxx27__verbose_terminate_handlerEv@@Base+0x273c>
    95c8:	aa1303e0 	mov	x0, x19
    95cc:	9400005a 	bl	9734 <_ZN9__gnu_cxx27__verbose_terminate_handlerEv@@Base+0x2d94>
    95d0:	aa0003e3 	mov	x3, x0
    95d4:	17fffec2 	b	90dc <_ZN9__gnu_cxx27__verbose_terminate_handlerEv@@Base+0x273c>
    95d8:	aa1303e0 	mov	x0, x19
    95dc:	94000056 	bl	9734 <_ZN9__gnu_cxx27__verbose_terminate_handlerEv@@Base+0x2d94>
    95e0:	aa0003e2 	mov	x2, x0
    95e4:	f9400e61 	ldr	x1, [x19, #24]
    95e8:	17ffff41 	b	92ec <_ZN9__gnu_cxx27__verbose_terminate_handlerEv@@Base+0x294c>
    95ec:	aa1303e0 	mov	x0, x19
    95f0:	528008a1 	mov	w1, #0x45                  	// #69
    95f4:	97fffe7b 	bl	8fe0 <_ZN9__gnu_cxx27__verbose_terminate_handlerEv@@Base+0x2640>
    95f8:	aa0003e3 	mov	x3, x0
    95fc:	17ffffae 	b	94b4 <_ZN9__gnu_cxx27__verbose_terminate_handlerEv@@Base+0x2b14>
    9600:	aa1303e0 	mov	x0, x19
    9604:	94000b92 	bl	c44c <_ZN9__gnu_cxx27__verbose_terminate_handlerEv@@Base+0x5aac>
    9608:	aa0003fb 	mov	x27, x0
    960c:	aa1303e0 	mov	x0, x19
    9610:	94000b8f 	bl	c44c <_ZN9__gnu_cxx27__verbose_terminate_handlerEv@@Base+0x5aac>
    9614:	f90037a0 	str	x0, [x29, #104]
    9618:	aa1303e0 	mov	x0, x19
    961c:	94000b8c 	bl	c44c <_ZN9__gnu_cxx27__verbose_terminate_handlerEv@@Base+0x5aac>
    9620:	aa0003e3 	mov	x3, x0
    9624:	f94037a2 	ldr	x2, [x29, #104]
    9628:	17ffff7a 	b	9410 <_ZN9__gnu_cxx27__verbose_terminate_handlerEv@@Base+0x2a70>
    962c:	39400000 	ldrb	w0, [x0]
    9630:	5101c801 	sub	w1, w0, #0x72
    9634:	53001c21 	uxtb	w1, w1
    9638:	7100043f 	cmp	w1, #0x1
    963c:	540000a9 	b.ls	9650 <_ZN9__gnu_cxx27__verbose_terminate_handlerEv@@Base+0x2cb0>  // b.plast
    9640:	51018c00 	sub	w0, w0, #0x63
    9644:	53001c00 	uxtb	w0, w0
    9648:	7100041f 	cmp	w0, #0x1
    964c:	54fff0c8 	b.hi	9464 <_ZN9__gnu_cxx27__verbose_terminate_handlerEv@@Base+0x2ac4>  // b.pmore
    9650:	aa1303e0 	mov	x0, x19
    9654:	94000038 	bl	9734 <_ZN9__gnu_cxx27__verbose_terminate_handlerEv@@Base+0x2d94>
    9658:	aa0003fc 	mov	x28, x0
    965c:	17ffff85 	b	9470 <_ZN9__gnu_cxx27__verbose_terminate_handlerEv@@Base+0x2ad0>
    9660:	aa1303e0 	mov	x0, x19
    9664:	f90037a3 	str	x3, [x29, #104]
    9668:	97fff923 	bl	7af4 <_ZN9__gnu_cxx27__verbose_terminate_handlerEv@@Base+0x1154>
    966c:	aa0003e4 	mov	x4, x0
    9670:	f94037a3 	ldr	x3, [x29, #104]
    9674:	aa1303e0 	mov	x0, x19
    9678:	52800081 	mov	w1, #0x4                   	// #4
    967c:	aa0303e2 	mov	x2, x3
    9680:	aa0403e3 	mov	x3, x4
    9684:	97fff52b 	bl	6b30 <_ZN9__gnu_cxx27__verbose_terminate_handlerEv@@Base+0x190>
    9688:	aa0003e3 	mov	x3, x0
    968c:	17ffffb4 	b	955c <_ZN9__gnu_cxx27__verbose_terminate_handlerEv@@Base+0x2bbc>
    9690:	91000422 	add	x2, x1, #0x1
    9694:	f9000c02 	str	x2, [x0, #24]
    9698:	a94153f3 	ldp	x19, x20, [sp, #16]
    969c:	a9425bf5 	ldp	x21, x22, [sp, #32]
    96a0:	a94363f7 	ldp	x23, x24, [sp, #48]
    96a4:	a9446bf9 	ldp	x25, x26, [sp, #64]
    96a8:	a94573fb 	ldp	x27, x28, [sp, #80]
    96ac:	a8c87bfd 	ldp	x29, x30, [sp], #128
    96b0:	528005c1 	mov	w1, #0x2e                  	// #46
    96b4:	d2800002 	mov	x2, #0x0                   	// #0
    96b8:	d2800003 	mov	x3, #0x0                   	// #0
    96bc:	17fff51d 	b	6b30 <_ZN9__gnu_cxx27__verbose_terminate_handlerEv@@Base+0x190>
    96c0:	91000401 	add	x1, x0, #0x1
    96c4:	aa1303e0 	mov	x0, x19
    96c8:	f9000e61 	str	x1, [x19, #24]
    96cc:	528008a1 	mov	w1, #0x45                  	// #69
    96d0:	97fffe44 	bl	8fe0 <_ZN9__gnu_cxx27__verbose_terminate_handlerEv@@Base+0x2640>
    96d4:	aa0003e3 	mov	x3, x0
    96d8:	17fffe81 	b	90dc <_ZN9__gnu_cxx27__verbose_terminate_handlerEv@@Base+0x273c>
    96dc:	91000401 	add	x1, x0, #0x1
    96e0:	d2800003 	mov	x3, #0x0                   	// #0
    96e4:	f9000e61 	str	x1, [x19, #24]
    96e8:	17ffff4a 	b	9410 <_ZN9__gnu_cxx27__verbose_terminate_handlerEv@@Base+0x2a70>
    96ec:	39400401 	ldrb	w1, [x0, #1]
    96f0:	7101a43f 	cmp	w1, #0x69
    96f4:	54ffde41 	b.ne	92bc <_ZN9__gnu_cxx27__verbose_terminate_handlerEv@@Base+0x291c>  // b.any
    96f8:	91000801 	add	x1, x0, #0x2
    96fc:	aa1303e0 	mov	x0, x19
    9700:	f9000e61 	str	x1, [x19, #24]
    9704:	528008a1 	mov	w1, #0x45                  	// #69
    9708:	f90037a2 	str	x2, [x29, #104]
    970c:	97fffe35 	bl	8fe0 <_ZN9__gnu_cxx27__verbose_terminate_handlerEv@@Base+0x2640>
    9710:	aa0003e3 	mov	x3, x0
    9714:	f94037a2 	ldr	x2, [x29, #104]
    9718:	17ffff3e 	b	9410 <_ZN9__gnu_cxx27__verbose_terminate_handlerEv@@Base+0x2a70>
    971c:	91000400 	add	x0, x0, #0x1
    9720:	f9000e60 	str	x0, [x19, #24]
    9724:	17fffe6b 	b	90d0 <_ZN9__gnu_cxx27__verbose_terminate_handlerEv@@Base+0x2730>
    9728:	7101a41f 	cmp	w0, #0x69
    972c:	54ffcae0 	b.eq	9088 <_ZN9__gnu_cxx27__verbose_terminate_handlerEv@@Base+0x26e8>  // b.none
    9730:	17fffe59 	b	9094 <_ZN9__gnu_cxx27__verbose_terminate_handlerEv@@Base+0x26f4>
    9734:	a9ba7bfd 	stp	x29, x30, [sp, #-96]!
    9738:	910003fd 	mov	x29, sp
    973c:	f9400c03 	ldr	x3, [x0, #24]
    9740:	a90153f3 	stp	x19, x20, [sp, #16]
    9744:	a9025bf5 	stp	x21, x22, [sp, #32]
    9748:	a90363f7 	stp	x23, x24, [sp, #48]
    974c:	aa0003f3 	mov	x19, x0
    9750:	39400060 	ldrb	w0, [x3]
    9754:	7101581f 	cmp	w0, #0x56
    9758:	1a9f17e2 	cset	w2, eq	// eq = none
    975c:	7101c81f 	cmp	w0, #0x72
    9760:	1a9f17e1 	cset	w1, eq	// eq = none
    9764:	2a010041 	orr	w1, w2, w1
    9768:	35000261 	cbnz	w1, 97b4 <_ZN9__gnu_cxx27__verbose_terminate_handlerEv@@Base+0x2e14>
    976c:	71012c1f 	cmp	w0, #0x4b
    9770:	54000220 	b.eq	97b4 <_ZN9__gnu_cxx27__verbose_terminate_handlerEv@@Base+0x2e14>  // b.none
    9774:	5100c001 	sub	w1, w0, #0x30
    9778:	7101283f 	cmp	w1, #0x4a
    977c:	54000109 	b.ls	979c <_ZN9__gnu_cxx27__verbose_terminate_handlerEv@@Base+0x2dfc>  // b.plast
    9780:	d2800002 	mov	x2, #0x0                   	// #0
    9784:	a94153f3 	ldp	x19, x20, [sp, #16]
    9788:	a9425bf5 	ldp	x21, x22, [sp, #32]
    978c:	a94363f7 	ldp	x23, x24, [sp, #48]
    9790:	aa0203e0 	mov	x0, x2
    9794:	a8c67bfd 	ldp	x29, x30, [sp], #96
    9798:	d65f03c0 	ret
    979c:	f0000062 	adrp	x2, 18000 <_ZTSN10__cxxabiv117__class_type_infoE@@Base>
    97a0:	91080042 	add	x2, x2, #0x200
    97a4:	78615841 	ldrh	w1, [x2, w1, uxtw #1]
    97a8:	10000062 	adr	x2, 97b4 <_ZN9__gnu_cxx27__verbose_terminate_handlerEv@@Base+0x2e14>
    97ac:	8b21a841 	add	x1, x2, w1, sxth #2
    97b0:	d61f0020 	br	x1
    97b4:	aa1303e0 	mov	x0, x19
    97b8:	910163a1 	add	x1, x29, #0x58
    97bc:	52800002 	mov	w2, #0x0                   	// #0
    97c0:	97fff51c 	bl	6c30 <_ZN9__gnu_cxx27__verbose_terminate_handlerEv@@Base+0x290>
    97c4:	aa0003f4 	mov	x20, x0
    97c8:	b4fffdc0 	cbz	x0, 9780 <_ZN9__gnu_cxx27__verbose_terminate_handlerEv@@Base+0x2de0>
    97cc:	f9400e60 	ldr	x0, [x19, #24]
    97d0:	39400000 	ldrb	w0, [x0]
    97d4:	7101181f 	cmp	w0, #0x46
    97d8:	aa1303e0 	mov	x0, x19
    97dc:	54000320 	b.eq	9840 <_ZN9__gnu_cxx27__verbose_terminate_handlerEv@@Base+0x2ea0>  // b.none
    97e0:	97ffffd5 	bl	9734 <_ZN9__gnu_cxx27__verbose_terminate_handlerEv@@Base+0x2d94>
    97e4:	f9000280 	str	x0, [x20]
    97e8:	b4fffcc0 	cbz	x0, 9780 <_ZN9__gnu_cxx27__verbose_terminate_handlerEv@@Base+0x2de0>
    97ec:	b9400001 	ldr	w1, [x0]
    97f0:	51007c21 	sub	w1, w1, #0x1f
    97f4:	7100043f 	cmp	w1, #0x1
    97f8:	540002a9 	b.ls	984c <_ZN9__gnu_cxx27__verbose_terminate_handlerEv@@Base+0x2eac>  // b.plast
    97fc:	f9402fa1 	ldr	x1, [x29, #88]
    9800:	b4fffc01 	cbz	x1, 9780 <_ZN9__gnu_cxx27__verbose_terminate_handlerEv@@Base+0x2de0>
    9804:	b9403a60 	ldr	w0, [x19, #56]
    9808:	b9403e62 	ldr	w2, [x19, #60]
    980c:	6b02001f 	cmp	w0, w2
    9810:	54fffb8a 	b.ge	9780 <_ZN9__gnu_cxx27__verbose_terminate_handlerEv@@Base+0x2de0>  // b.tcont
    9814:	f9401a63 	ldr	x3, [x19, #48]
    9818:	11000402 	add	w2, w0, #0x1
    981c:	a9425bf5 	ldp	x21, x22, [sp, #32]
    9820:	a94363f7 	ldp	x23, x24, [sp, #48]
    9824:	f820d861 	str	x1, [x3, w0, sxtw #3]
    9828:	b9003a62 	str	w2, [x19, #56]
    982c:	f9402fa2 	ldr	x2, [x29, #88]
    9830:	a94153f3 	ldp	x19, x20, [sp, #16]
    9834:	aa0203e0 	mov	x0, x2
    9838:	a8c67bfd 	ldp	x29, x30, [sp], #96
    983c:	d65f03c0 	ret
    9840:	94000c9d 	bl	cab4 <_ZN9__gnu_cxx27__verbose_terminate_handlerEv@@Base+0x6114>
    9844:	f9000280 	str	x0, [x20]
    9848:	17ffffe8 	b	97e8 <_ZN9__gnu_cxx27__verbose_terminate_handlerEv@@Base+0x2e48>
    984c:	f9402fa2 	ldr	x2, [x29, #88]
    9850:	f9400401 	ldr	x1, [x0, #8]
    9854:	f9000402 	str	x2, [x0, #8]
    9858:	f9400280 	ldr	x0, [x20]
    985c:	f9002fa0 	str	x0, [x29, #88]
    9860:	f9000281 	str	x1, [x20]
    9864:	17ffffe6 	b	97fc <_ZN9__gnu_cxx27__verbose_terminate_handlerEv@@Base+0x2e5c>
    9868:	91000463 	add	x3, x3, #0x1
    986c:	aa1303e0 	mov	x0, x19
    9870:	f9000e63 	str	x3, [x19, #24]
    9874:	97fff7b4 	bl	7744 <_ZN9__gnu_cxx27__verbose_terminate_handlerEv@@Base+0xda4>
    9878:	aa0003e2 	mov	x2, x0
    987c:	52800501 	mov	w1, #0x28                  	// #40
    9880:	aa1303e0 	mov	x0, x19
    9884:	d2800003 	mov	x3, #0x0                   	// #0
    9888:	97fff4aa 	bl	6b30 <_ZN9__gnu_cxx27__verbose_terminate_handlerEv@@Base+0x190>
    988c:	aa0003e2 	mov	x2, x0
    9890:	f9002fa0 	str	x0, [x29, #88]
    9894:	b4fff762 	cbz	x2, 9780 <_ZN9__gnu_cxx27__verbose_terminate_handlerEv@@Base+0x2de0>
    9898:	b9403a60 	ldr	w0, [x19, #56]
    989c:	b9403e61 	ldr	w1, [x19, #60]
    98a0:	6b01001f 	cmp	w0, w1
    98a4:	54fff6ea 	b.ge	9780 <_ZN9__gnu_cxx27__verbose_terminate_handlerEv@@Base+0x2de0>  // b.tcont
    98a8:	f9401a63 	ldr	x3, [x19, #48]
    98ac:	11000401 	add	w1, w0, #0x1
    98b0:	a9425bf5 	ldp	x21, x22, [sp, #32]
    98b4:	a94363f7 	ldp	x23, x24, [sp, #48]
    98b8:	f820d862 	str	x2, [x3, w0, sxtw #3]
    98bc:	b9003a61 	str	w1, [x19, #56]
    98c0:	f9402fa2 	ldr	x2, [x29, #88]
    98c4:	a94153f3 	ldp	x19, x20, [sp, #16]
    98c8:	aa0203e0 	mov	x0, x2
    98cc:	a8c67bfd 	ldp	x29, x30, [sp], #96
    98d0:	d65f03c0 	ret
    98d4:	aa1303e0 	mov	x0, x19
    98d8:	94000763 	bl	b664 <_ZN9__gnu_cxx27__verbose_terminate_handlerEv@@Base+0x4cc4>
    98dc:	aa0003e2 	mov	x2, x0
    98e0:	f9002fa0 	str	x0, [x29, #88]
    98e4:	17ffffec 	b	9894 <_ZN9__gnu_cxx27__verbose_terminate_handlerEv@@Base+0x2ef4>
    98e8:	91000461 	add	x1, x3, #0x1
    98ec:	f9000e61 	str	x1, [x19, #24]
    98f0:	39400460 	ldrb	w0, [x3, #1]
    98f4:	71017c1f 	cmp	w0, #0x5f
    98f8:	54003f80 	b.eq	a0e8 <_ZN9__gnu_cxx27__verbose_terminate_handlerEv@@Base+0x3748>  // b.none
    98fc:	5100c000 	sub	w0, w0, #0x30
    9900:	53001c00 	uxtb	w0, w0
    9904:	7100241f 	cmp	w0, #0x9
    9908:	540041e8 	b.hi	a144 <_ZN9__gnu_cxx27__verbose_terminate_handlerEv@@Base+0x37a4>  // b.pmore
    990c:	91000863 	add	x3, x3, #0x2
    9910:	aa0303e2 	mov	x2, x3
    9914:	f9000e63 	str	x3, [x19, #24]
    9918:	91000463 	add	x3, x3, #0x1
    991c:	39400040 	ldrb	w0, [x2]
    9920:	5100c000 	sub	w0, w0, #0x30
    9924:	53001c00 	uxtb	w0, w0
    9928:	7100241f 	cmp	w0, #0x9
    992c:	54ffff29 	b.ls	9910 <_ZN9__gnu_cxx27__verbose_terminate_handlerEv@@Base+0x2f70>  // b.plast
    9930:	4b010042 	sub	w2, w2, w1
    9934:	aa1303e0 	mov	x0, x19
    9938:	97fff4a6 	bl	6bd0 <_ZN9__gnu_cxx27__verbose_terminate_handlerEv@@Base+0x230>
    993c:	aa0003e2 	mov	x2, x0
    9940:	b40000a0 	cbz	x0, 9954 <_ZN9__gnu_cxx27__verbose_terminate_handlerEv@@Base+0x2fb4>
    9944:	f9400e61 	ldr	x1, [x19, #24]
    9948:	39400020 	ldrb	w0, [x1]
    994c:	71017c1f 	cmp	w0, #0x5f
    9950:	54003ce0 	b.eq	a0ec <_ZN9__gnu_cxx27__verbose_terminate_handlerEv@@Base+0x374c>  // b.none
    9954:	d2800002 	mov	x2, #0x0                   	// #0
    9958:	f9002fa2 	str	x2, [x29, #88]
    995c:	17ffffce 	b	9894 <_ZN9__gnu_cxx27__verbose_terminate_handlerEv@@Base+0x2ef4>
    9960:	91000463 	add	x3, x3, #0x1
    9964:	aa1303e0 	mov	x0, x19
    9968:	f9000e63 	str	x3, [x19, #24]
    996c:	97ffff72 	bl	9734 <_ZN9__gnu_cxx27__verbose_terminate_handlerEv@@Base+0x2d94>
    9970:	aa0003e2 	mov	x2, x0
    9974:	528004a1 	mov	w1, #0x25                  	// #37
    9978:	aa1303e0 	mov	x0, x19
    997c:	d2800003 	mov	x3, #0x0                   	// #0
    9980:	97fff46c 	bl	6b30 <_ZN9__gnu_cxx27__verbose_terminate_handlerEv@@Base+0x190>
    9984:	aa0003e2 	mov	x2, x0
    9988:	f9002fa0 	str	x0, [x29, #88]
    998c:	17ffffc2 	b	9894 <_ZN9__gnu_cxx27__verbose_terminate_handlerEv@@Base+0x2ef4>
    9990:	aa1303e0 	mov	x0, x19
    9994:	94000c48 	bl	cab4 <_ZN9__gnu_cxx27__verbose_terminate_handlerEv@@Base+0x6114>
    9998:	aa0003e2 	mov	x2, x0
    999c:	f9002fa0 	str	x0, [x29, #88]
    99a0:	17ffffbd 	b	9894 <_ZN9__gnu_cxx27__verbose_terminate_handlerEv@@Base+0x2ef4>
    99a4:	91000463 	add	x3, x3, #0x1
    99a8:	aa1303e0 	mov	x0, x19
    99ac:	f9000e63 	str	x3, [x19, #24]
    99b0:	97ffff61 	bl	9734 <_ZN9__gnu_cxx27__verbose_terminate_handlerEv@@Base+0x2d94>
    99b4:	aa0003e2 	mov	x2, x0
    99b8:	528004c1 	mov	w1, #0x26                  	// #38
    99bc:	aa1303e0 	mov	x0, x19
    99c0:	d2800003 	mov	x3, #0x0                   	// #0
    99c4:	97fff45b 	bl	6b30 <_ZN9__gnu_cxx27__verbose_terminate_handlerEv@@Base+0x190>
    99c8:	aa0003e2 	mov	x2, x0
    99cc:	f9002fa0 	str	x0, [x29, #88]
    99d0:	17ffffb1 	b	9894 <_ZN9__gnu_cxx27__verbose_terminate_handlerEv@@Base+0x2ef4>
    99d4:	91000460 	add	x0, x3, #0x1
    99d8:	f9000e60 	str	x0, [x19, #24]
    99dc:	39400460 	ldrb	w0, [x3, #1]
    99e0:	34ffed00 	cbz	w0, 9780 <_ZN9__gnu_cxx27__verbose_terminate_handlerEv@@Base+0x2de0>
    99e4:	91000860 	add	x0, x3, #0x2
    99e8:	f9000e60 	str	x0, [x19, #24]
    99ec:	39400460 	ldrb	w0, [x3, #1]
    99f0:	51011800 	sub	w0, w0, #0x46
    99f4:	7100c01f 	cmp	w0, #0x30
    99f8:	54ffec48 	b.hi	9780 <_ZN9__gnu_cxx27__verbose_terminate_handlerEv@@Base+0x2de0>  // b.pmore
    99fc:	f0000061 	adrp	x1, 18000 <_ZTSN10__cxxabiv117__class_type_infoE@@Base>
    9a00:	910a6021 	add	x1, x1, #0x298
    9a04:	78605820 	ldrh	w0, [x1, w0, uxtw #1]
    9a08:	10000061 	adr	x1, 9a14 <_ZN9__gnu_cxx27__verbose_terminate_handlerEv@@Base+0x3074>
    9a0c:	8b20a820 	add	x0, x1, w0, sxth #2
    9a10:	d61f0000 	br	x0
    9a14:	91000463 	add	x3, x3, #0x1
    9a18:	aa1303e0 	mov	x0, x19
    9a1c:	f9000e63 	str	x3, [x19, #24]
    9a20:	97ffff45 	bl	9734 <_ZN9__gnu_cxx27__verbose_terminate_handlerEv@@Base+0x2d94>
    9a24:	b4fff980 	cbz	x0, 9954 <_ZN9__gnu_cxx27__verbose_terminate_handlerEv@@Base+0x2fb4>
    9a28:	f90027a0 	str	x0, [x29, #72]
    9a2c:	aa1303e0 	mov	x0, x19
    9a30:	97ffff41 	bl	9734 <_ZN9__gnu_cxx27__verbose_terminate_handlerEv@@Base+0x2d94>
    9a34:	aa0003e3 	mov	x3, x0
    9a38:	b4fff8e0 	cbz	x0, 9954 <_ZN9__gnu_cxx27__verbose_terminate_handlerEv@@Base+0x2fb4>
    9a3c:	f94027a2 	ldr	x2, [x29, #72]
    9a40:	aa1303e0 	mov	x0, x19
    9a44:	52800561 	mov	w1, #0x2b                  	// #43
    9a48:	97fff43a 	bl	6b30 <_ZN9__gnu_cxx27__verbose_terminate_handlerEv@@Base+0x190>
    9a4c:	aa0003e2 	mov	x2, x0
    9a50:	f9002fa2 	str	x2, [x29, #88]
    9a54:	17ffff90 	b	9894 <_ZN9__gnu_cxx27__verbose_terminate_handlerEv@@Base+0x2ef4>
    9a58:	91000463 	add	x3, x3, #0x1
    9a5c:	aa1303e0 	mov	x0, x19
    9a60:	f9000e63 	str	x3, [x19, #24]
    9a64:	97ffff34 	bl	9734 <_ZN9__gnu_cxx27__verbose_terminate_handlerEv@@Base+0x2d94>
    9a68:	aa0003e2 	mov	x2, x0
    9a6c:	52800481 	mov	w1, #0x24                  	// #36
    9a70:	aa1303e0 	mov	x0, x19
    9a74:	d2800003 	mov	x3, #0x0                   	// #0
    9a78:	97fff42e 	bl	6b30 <_ZN9__gnu_cxx27__verbose_terminate_handlerEv@@Base+0x190>
    9a7c:	aa0003e2 	mov	x2, x0
    9a80:	f9002fa0 	str	x0, [x29, #88]
    9a84:	17ffff84 	b	9894 <_ZN9__gnu_cxx27__verbose_terminate_handlerEv@@Base+0x2ef4>
    9a88:	91000463 	add	x3, x3, #0x1
    9a8c:	aa1303e0 	mov	x0, x19
    9a90:	f9000e63 	str	x3, [x19, #24]
    9a94:	97ffff28 	bl	9734 <_ZN9__gnu_cxx27__verbose_terminate_handlerEv@@Base+0x2d94>
    9a98:	aa0003e2 	mov	x2, x0
    9a9c:	52800441 	mov	w1, #0x22                  	// #34
    9aa0:	aa1303e0 	mov	x0, x19
    9aa4:	d2800003 	mov	x3, #0x0                   	// #0
    9aa8:	97fff422 	bl	6b30 <_ZN9__gnu_cxx27__verbose_terminate_handlerEv@@Base+0x190>
    9aac:	aa0003e2 	mov	x2, x0
    9ab0:	f9002fa0 	str	x0, [x29, #88]
    9ab4:	17ffff78 	b	9894 <_ZN9__gnu_cxx27__verbose_terminate_handlerEv@@Base+0x2ef4>
    9ab8:	91000463 	add	x3, x3, #0x1
    9abc:	aa1303e0 	mov	x0, x19
    9ac0:	f9000e63 	str	x3, [x19, #24]
    9ac4:	97ffff1c 	bl	9734 <_ZN9__gnu_cxx27__verbose_terminate_handlerEv@@Base+0x2d94>
    9ac8:	aa0003e2 	mov	x2, x0
    9acc:	52800461 	mov	w1, #0x23                  	// #35
    9ad0:	aa1303e0 	mov	x0, x19
    9ad4:	d2800003 	mov	x3, #0x0                   	// #0
    9ad8:	97fff416 	bl	6b30 <_ZN9__gnu_cxx27__verbose_terminate_handlerEv@@Base+0x190>
    9adc:	aa0003e2 	mov	x2, x0
    9ae0:	f9002fa0 	str	x0, [x29, #88]
    9ae4:	17ffff6c 	b	9894 <_ZN9__gnu_cxx27__verbose_terminate_handlerEv@@Base+0x2ef4>
    9ae8:	39400460 	ldrb	w0, [x3, #1]
    9aec:	5100c001 	sub	w1, w0, #0x30
    9af0:	53001c21 	uxtb	w1, w1
    9af4:	7100243f 	cmp	w1, #0x9
    9af8:	540000e9 	b.ls	9b14 <_ZN9__gnu_cxx27__verbose_terminate_handlerEv@@Base+0x3174>  // b.plast
    9afc:	71017c1f 	cmp	w0, #0x5f
    9b00:	540000a0 	b.eq	9b14 <_ZN9__gnu_cxx27__verbose_terminate_handlerEv@@Base+0x3174>  // b.none
    9b04:	51010400 	sub	w0, w0, #0x41
    9b08:	53001c00 	uxtb	w0, w0
    9b0c:	7100641f 	cmp	w0, #0x19
    9b10:	54003088 	b.hi	a120 <_ZN9__gnu_cxx27__verbose_terminate_handlerEv@@Base+0x3780>  // b.pmore
    9b14:	aa1303e0 	mov	x0, x19
    9b18:	52800001 	mov	w1, #0x0                   	// #0
    9b1c:	97fff4b1 	bl	6de0 <_ZN9__gnu_cxx27__verbose_terminate_handlerEv@@Base+0x440>
    9b20:	aa0003e2 	mov	x2, x0
    9b24:	f9400e60 	ldr	x0, [x19, #24]
    9b28:	f9002fa2 	str	x2, [x29, #88]
    9b2c:	39400000 	ldrb	w0, [x0]
    9b30:	7101241f 	cmp	w0, #0x49
    9b34:	54ffe281 	b.ne	9784 <_ZN9__gnu_cxx27__verbose_terminate_handlerEv@@Base+0x2de4>  // b.any
    9b38:	f90027a2 	str	x2, [x29, #72]
    9b3c:	aa1303e0 	mov	x0, x19
    9b40:	97fff7ed 	bl	7af4 <_ZN9__gnu_cxx27__verbose_terminate_handlerEv@@Base+0x1154>
    9b44:	aa0003e3 	mov	x3, x0
    9b48:	f94027a2 	ldr	x2, [x29, #72]
    9b4c:	aa1303e0 	mov	x0, x19
    9b50:	52800081 	mov	w1, #0x4                   	// #4
    9b54:	97fff3f7 	bl	6b30 <_ZN9__gnu_cxx27__verbose_terminate_handlerEv@@Base+0x190>
    9b58:	aa0003e2 	mov	x2, x0
    9b5c:	f9002fa0 	str	x0, [x29, #88]
    9b60:	17ffff4d 	b	9894 <_ZN9__gnu_cxx27__verbose_terminate_handlerEv@@Base+0x2ef4>
    9b64:	91000463 	add	x3, x3, #0x1
    9b68:	aa1303e0 	mov	x0, x19
    9b6c:	f9000e63 	str	x3, [x19, #24]
    9b70:	97fff6f5 	bl	7744 <_ZN9__gnu_cxx27__verbose_terminate_handlerEv@@Base+0xda4>
    9b74:	f9002fa0 	str	x0, [x29, #88]
    9b78:	aa1303e0 	mov	x0, x19
    9b7c:	97fffeee 	bl	9734 <_ZN9__gnu_cxx27__verbose_terminate_handlerEv@@Base+0x2d94>
    9b80:	aa0003e2 	mov	x2, x0
    9b84:	f9402fa3 	ldr	x3, [x29, #88]
    9b88:	aa1303e0 	mov	x0, x19
    9b8c:	52800421 	mov	w1, #0x21                  	// #33
    9b90:	97fff3e8 	bl	6b30 <_ZN9__gnu_cxx27__verbose_terminate_handlerEv@@Base+0x190>
    9b94:	aa0003e2 	mov	x2, x0
    9b98:	f9002fa0 	str	x0, [x29, #88]
    9b9c:	17ffff3e 	b	9894 <_ZN9__gnu_cxx27__verbose_terminate_handlerEv@@Base+0x2ef4>
    9ba0:	b9402e61 	ldr	w1, [x19, #44]
    9ba4:	51018400 	sub	w0, w0, #0x61
    9ba8:	b9402a62 	ldr	w2, [x19, #40]
    9bac:	937b7c00 	sbfiz	x0, x0, #5, #32
    9bb0:	6b01005f 	cmp	w2, w1
    9bb4:	f0000101 	adrp	x1, 2c000 <_ZTSN10__cxxabiv117__class_type_infoE@@Base+0x14000>
    9bb8:	91354021 	add	x1, x1, #0xd50
    9bbc:	8b000020 	add	x0, x1, x0
    9bc0:	540028ca 	b.ge	a0d8 <_ZN9__gnu_cxx27__verbose_terminate_handlerEv@@Base+0x3738>  // b.tcont
    9bc4:	93407c41 	sxtw	x1, w2
    9bc8:	f9401264 	ldr	x4, [x19, #32]
    9bcc:	d37be825 	lsl	x5, x1, #5
    9bd0:	11000442 	add	w2, w2, #0x1
    9bd4:	cb010ca1 	sub	x1, x5, x1, lsl #3
    9bd8:	b9002a62 	str	w2, [x19, #40]
    9bdc:	ab010082 	adds	x2, x4, x1
    9be0:	540027c0 	b.eq	a0d8 <_ZN9__gnu_cxx27__verbose_terminate_handlerEv@@Base+0x3738>  // b.none
    9be4:	528004e5 	mov	w5, #0x27                  	// #39
    9be8:	b8216885 	str	w5, [x4, x1]
    9bec:	f9000440 	str	x0, [x2, #8]
    9bf0:	91000463 	add	x3, x3, #0x1
    9bf4:	b9400801 	ldr	w1, [x0, #8]
    9bf8:	b9405260 	ldr	w0, [x19, #80]
    9bfc:	f9000e63 	str	x3, [x19, #24]
    9c00:	0b010000 	add	w0, w0, w1
    9c04:	b9005260 	str	w0, [x19, #80]
    9c08:	17fffedf 	b	9784 <_ZN9__gnu_cxx27__verbose_terminate_handlerEv@@Base+0x2de4>
    9c0c:	aa1303e0 	mov	x0, x19
    9c10:	97fff743 	bl	791c <_ZN9__gnu_cxx27__verbose_terminate_handlerEv@@Base+0xf7c>
    9c14:	f9400e74 	ldr	x20, [x19, #24]
    9c18:	f9002fa0 	str	x0, [x29, #88]
    9c1c:	aa0003e2 	mov	x2, x0
    9c20:	39400280 	ldrb	w0, [x20]
    9c24:	7101241f 	cmp	w0, #0x49
    9c28:	54ffe361 	b.ne	9894 <_ZN9__gnu_cxx27__verbose_terminate_handlerEv@@Base+0x2ef4>  // b.any
    9c2c:	b9405a60 	ldr	w0, [x19, #88]
    9c30:	35002f40 	cbnz	w0, a218 <_ZN9__gnu_cxx27__verbose_terminate_handlerEv@@Base+0x3878>
    9c34:	b4ffda62 	cbz	x2, 9780 <_ZN9__gnu_cxx27__verbose_terminate_handlerEv@@Base+0x2de0>
    9c38:	b9403a61 	ldr	w1, [x19, #56]
    9c3c:	b9403e60 	ldr	w0, [x19, #60]
    9c40:	6b00003f 	cmp	w1, w0
    9c44:	54ffd9ea 	b.ge	9780 <_ZN9__gnu_cxx27__verbose_terminate_handlerEv@@Base+0x2de0>  // b.tcont
    9c48:	f9401a64 	ldr	x4, [x19, #48]
    9c4c:	11000423 	add	w3, w1, #0x1
    9c50:	aa1303e0 	mov	x0, x19
    9c54:	f821d882 	str	x2, [x4, w1, sxtw #3]
    9c58:	b9003a63 	str	w3, [x19, #56]
    9c5c:	f9402fa2 	ldr	x2, [x29, #88]
    9c60:	f90027a2 	str	x2, [x29, #72]
    9c64:	17ffffb7 	b	9b40 <_ZN9__gnu_cxx27__verbose_terminate_handlerEv@@Base+0x31a0>
    9c68:	b9402a60 	ldr	w0, [x19, #40]
    9c6c:	b9402e61 	ldr	w1, [x19, #44]
    9c70:	6b01001f 	cmp	w0, w1
    9c74:	5400232a 	b.ge	a0d8 <_ZN9__gnu_cxx27__verbose_terminate_handlerEv@@Base+0x3738>  // b.tcont
    9c78:	93407c03 	sxtw	x3, w0
    9c7c:	f9401261 	ldr	x1, [x19, #32]
    9c80:	d37be862 	lsl	x2, x3, #5
    9c84:	11000400 	add	w0, w0, #0x1
    9c88:	cb030c43 	sub	x3, x2, x3, lsl #3
    9c8c:	b9002a60 	str	w0, [x19, #40]
    9c90:	ab030022 	adds	x2, x1, x3
    9c94:	54002220 	b.eq	a0d8 <_ZN9__gnu_cxx27__verbose_terminate_handlerEv@@Base+0x3738>  // b.none
    9c98:	528004e0 	mov	w0, #0x27                  	// #39
    9c9c:	b8236820 	str	w0, [x1, x3]
    9ca0:	f0000100 	adrp	x0, 2c000 <_ZTSN10__cxxabiv117__class_type_infoE@@Base+0x14000>
    9ca4:	91354000 	add	x0, x0, #0xd50
    9ca8:	910f8000 	add	x0, x0, #0x3e0
    9cac:	f9000440 	str	x0, [x2, #8]
    9cb0:	b9405260 	ldr	w0, [x19, #80]
    9cb4:	11002000 	add	w0, w0, #0x8
    9cb8:	b9005260 	str	w0, [x19, #80]
    9cbc:	17fffeb2 	b	9784 <_ZN9__gnu_cxx27__verbose_terminate_handlerEv@@Base+0x2de4>
    9cc0:	b9402a60 	ldr	w0, [x19, #40]
    9cc4:	b9402e61 	ldr	w1, [x19, #44]
    9cc8:	6b01001f 	cmp	w0, w1
    9ccc:	5400206a 	b.ge	a0d8 <_ZN9__gnu_cxx27__verbose_terminate_handlerEv@@Base+0x3738>  // b.tcont
    9cd0:	93407c03 	sxtw	x3, w0
    9cd4:	f9401261 	ldr	x1, [x19, #32]
    9cd8:	d37be862 	lsl	x2, x3, #5
    9cdc:	11000400 	add	w0, w0, #0x1
    9ce0:	cb030c43 	sub	x3, x2, x3, lsl #3
    9ce4:	b9002a60 	str	w0, [x19, #40]
    9ce8:	ab030022 	adds	x2, x1, x3
    9cec:	54001f60 	b.eq	a0d8 <_ZN9__gnu_cxx27__verbose_terminate_handlerEv@@Base+0x3738>  // b.none
    9cf0:	528004e0 	mov	w0, #0x27                  	// #39
    9cf4:	b8236820 	str	w0, [x1, x3]
    9cf8:	f0000100 	adrp	x0, 2c000 <_ZTSN10__cxxabiv117__class_type_infoE@@Base+0x14000>
    9cfc:	91354000 	add	x0, x0, #0xd50
    9d00:	910e8000 	add	x0, x0, #0x3a0
    9d04:	f9000440 	str	x0, [x2, #8]
    9d08:	b9405260 	ldr	w0, [x19, #80]
    9d0c:	11001000 	add	w0, w0, #0x4
    9d10:	b9005260 	str	w0, [x19, #80]
    9d14:	17fffe9c 	b	9784 <_ZN9__gnu_cxx27__verbose_terminate_handlerEv@@Base+0x2de4>
    9d18:	b9402a60 	ldr	w0, [x19, #40]
    9d1c:	b9402e61 	ldr	w1, [x19, #44]
    9d20:	6b01001f 	cmp	w0, w1
    9d24:	54001daa 	b.ge	a0d8 <_ZN9__gnu_cxx27__verbose_terminate_handlerEv@@Base+0x3738>  // b.tcont
    9d28:	93407c03 	sxtw	x3, w0
    9d2c:	f9401261 	ldr	x1, [x19, #32]
    9d30:	d37be862 	lsl	x2, x3, #5
    9d34:	11000400 	add	w0, w0, #0x1
    9d38:	cb030c43 	sub	x3, x2, x3, lsl #3
    9d3c:	b9002a60 	str	w0, [x19, #40]
    9d40:	ab030022 	adds	x2, x1, x3
    9d44:	54001ca0 	b.eq	a0d8 <_ZN9__gnu_cxx27__verbose_terminate_handlerEv@@Base+0x3738>  // b.none
    9d48:	528004e0 	mov	w0, #0x27                  	// #39
    9d4c:	b8236820 	str	w0, [x1, x3]
    9d50:	f0000100 	adrp	x0, 2c000 <_ZTSN10__cxxabiv117__class_type_infoE@@Base+0x14000>
    9d54:	91354000 	add	x0, x0, #0xd50
    9d58:	910d0000 	add	x0, x0, #0x340
    9d5c:	f9000440 	str	x0, [x2, #8]
    9d60:	b9405260 	ldr	w0, [x19, #80]
    9d64:	11002400 	add	w0, w0, #0x9
    9d68:	b9005260 	str	w0, [x19, #80]
    9d6c:	17fffe86 	b	9784 <_ZN9__gnu_cxx27__verbose_terminate_handlerEv@@Base+0x2de4>
    9d70:	b9402a60 	ldr	w0, [x19, #40]
    9d74:	b9402e61 	ldr	w1, [x19, #44]
    9d78:	6b01001f 	cmp	w0, w1
    9d7c:	54001aea 	b.ge	a0d8 <_ZN9__gnu_cxx27__verbose_terminate_handlerEv@@Base+0x3738>  // b.tcont
    9d80:	93407c03 	sxtw	x3, w0
    9d84:	f9401261 	ldr	x1, [x19, #32]
    9d88:	d37be862 	lsl	x2, x3, #5
    9d8c:	11000400 	add	w0, w0, #0x1
    9d90:	cb030c43 	sub	x3, x2, x3, lsl #3
    9d94:	b9002a60 	str	w0, [x19, #40]
    9d98:	ab030022 	adds	x2, x1, x3
    9d9c:	540019e0 	b.eq	a0d8 <_ZN9__gnu_cxx27__verbose_terminate_handlerEv@@Base+0x3738>  // b.none
    9da0:	528004e0 	mov	w0, #0x27                  	// #39
    9da4:	b8236820 	str	w0, [x1, x3]
    9da8:	f0000100 	adrp	x0, 2c000 <_ZTSN10__cxxabiv117__class_type_infoE@@Base+0x14000>
    9dac:	91354000 	add	x0, x0, #0xd50
    9db0:	910e0000 	add	x0, x0, #0x380
    9db4:	f9000440 	str	x0, [x2, #8]
    9db8:	b9405260 	ldr	w0, [x19, #80]
    9dbc:	11002800 	add	w0, w0, #0xa
    9dc0:	b9005260 	str	w0, [x19, #80]
    9dc4:	17fffe70 	b	9784 <_ZN9__gnu_cxx27__verbose_terminate_handlerEv@@Base+0x2de4>
    9dc8:	aa1303e0 	mov	x0, x19
    9dcc:	94000b86 	bl	cbe4 <_ZN9__gnu_cxx27__verbose_terminate_handlerEv@@Base+0x6244>
    9dd0:	aa0003e2 	mov	x2, x0
    9dd4:	f9002fa0 	str	x0, [x29, #88]
    9dd8:	17fffeaf 	b	9894 <_ZN9__gnu_cxx27__verbose_terminate_handlerEv@@Base+0x2ef4>
    9ddc:	b9402a60 	ldr	w0, [x19, #40]
    9de0:	b9402e61 	ldr	w1, [x19, #44]
    9de4:	6b01001f 	cmp	w0, w1
    9de8:	5400178a 	b.ge	a0d8 <_ZN9__gnu_cxx27__verbose_terminate_handlerEv@@Base+0x3738>  // b.tcont
    9dec:	93407c03 	sxtw	x3, w0
    9df0:	f9401261 	ldr	x1, [x19, #32]
    9df4:	d37be862 	lsl	x2, x3, #5
    9df8:	11000400 	add	w0, w0, #0x1
    9dfc:	cb030c43 	sub	x3, x2, x3, lsl #3
    9e00:	b9002a60 	str	w0, [x19, #40]
    9e04:	ab030022 	adds	x2, x1, x3
    9e08:	54001680 	b.eq	a0d8 <_ZN9__gnu_cxx27__verbose_terminate_handlerEv@@Base+0x3738>  // b.none
    9e0c:	528004e0 	mov	w0, #0x27                  	// #39
    9e10:	b8236820 	str	w0, [x1, x3]
    9e14:	f0000100 	adrp	x0, 2c000 <_ZTSN10__cxxabiv117__class_type_infoE@@Base+0x14000>
    9e18:	91354000 	add	x0, x0, #0xd50
    9e1c:	910f0000 	add	x0, x0, #0x3c0
    9e20:	f9000440 	str	x0, [x2, #8]
    9e24:	b9405260 	ldr	w0, [x19, #80]
    9e28:	11002000 	add	w0, w0, #0x8
    9e2c:	b9005260 	str	w0, [x19, #80]
    9e30:	17fffe55 	b	9784 <_ZN9__gnu_cxx27__verbose_terminate_handlerEv@@Base+0x2de4>
    9e34:	aa1303e0 	mov	x0, x19
    9e38:	97fffe3f 	bl	9734 <_ZN9__gnu_cxx27__verbose_terminate_handlerEv@@Base+0x2d94>
    9e3c:	aa0003e2 	mov	x2, x0
    9e40:	52800941 	mov	w1, #0x4a                  	// #74
    9e44:	aa1303e0 	mov	x0, x19
    9e48:	d2800003 	mov	x3, #0x0                   	// #0
    9e4c:	97fff339 	bl	6b30 <_ZN9__gnu_cxx27__verbose_terminate_handlerEv@@Base+0x190>
    9e50:	aa0003e2 	mov	x2, x0
    9e54:	f9002fa0 	str	x0, [x29, #88]
    9e58:	17fffe8f 	b	9894 <_ZN9__gnu_cxx27__verbose_terminate_handlerEv@@Base+0x2ef4>
    9e5c:	b9402a60 	ldr	w0, [x19, #40]
    9e60:	b9402e61 	ldr	w1, [x19, #44]
    9e64:	6b01001f 	cmp	w0, w1
    9e68:	5400138a 	b.ge	a0d8 <_ZN9__gnu_cxx27__verbose_terminate_handlerEv@@Base+0x3738>  // b.tcont
    9e6c:	93407c03 	sxtw	x3, w0
    9e70:	f9401261 	ldr	x1, [x19, #32]
    9e74:	d37be862 	lsl	x2, x3, #5
    9e78:	11000400 	add	w0, w0, #0x1
    9e7c:	cb030c43 	sub	x3, x2, x3, lsl #3
    9e80:	b9002a60 	str	w0, [x19, #40]
    9e84:	ab030022 	adds	x2, x1, x3
    9e88:	54001280 	b.eq	a0d8 <_ZN9__gnu_cxx27__verbose_terminate_handlerEv@@Base+0x3738>  // b.none
    9e8c:	528004e0 	mov	w0, #0x27                  	// #39
    9e90:	b8236820 	str	w0, [x1, x3]
    9e94:	f0000100 	adrp	x0, 2c000 <_ZTSN10__cxxabiv117__class_type_infoE@@Base+0x14000>
    9e98:	91354000 	add	x0, x0, #0xd50
    9e9c:	91100000 	add	x0, x0, #0x400
    9ea0:	f9000440 	str	x0, [x2, #8]
    9ea4:	b9405260 	ldr	w0, [x19, #80]
    9ea8:	11004400 	add	w0, w0, #0x11
    9eac:	b9005260 	str	w0, [x19, #80]
    9eb0:	17fffe35 	b	9784 <_ZN9__gnu_cxx27__verbose_terminate_handlerEv@@Base+0x2de4>
    9eb4:	b9402a60 	ldr	w0, [x19, #40]
    9eb8:	b9402e61 	ldr	w1, [x19, #44]
    9ebc:	6b01001f 	cmp	w0, w1
    9ec0:	540010ca 	b.ge	a0d8 <_ZN9__gnu_cxx27__verbose_terminate_handlerEv@@Base+0x3738>  // b.tcont
    9ec4:	93407c03 	sxtw	x3, w0
    9ec8:	f9401261 	ldr	x1, [x19, #32]
    9ecc:	d37be862 	lsl	x2, x3, #5
    9ed0:	11000400 	add	w0, w0, #0x1
    9ed4:	cb030c43 	sub	x3, x2, x3, lsl #3
    9ed8:	b9002a60 	str	w0, [x19, #40]
    9edc:	ab030022 	adds	x2, x1, x3
    9ee0:	54000fc0 	b.eq	a0d8 <_ZN9__gnu_cxx27__verbose_terminate_handlerEv@@Base+0x3738>  // b.none
    9ee4:	528004e0 	mov	w0, #0x27                  	// #39
    9ee8:	b8236820 	str	w0, [x1, x3]
    9eec:	f0000100 	adrp	x0, 2c000 <_ZTSN10__cxxabiv117__class_type_infoE@@Base+0x14000>
    9ef0:	91354000 	add	x0, x0, #0xd50
    9ef4:	910d8000 	add	x0, x0, #0x360
    9ef8:	f9000440 	str	x0, [x2, #8]
    9efc:	b9405260 	ldr	w0, [x19, #80]
    9f00:	11002400 	add	w0, w0, #0x9
    9f04:	b9005260 	str	w0, [x19, #80]
    9f08:	17fffe1f 	b	9784 <_ZN9__gnu_cxx27__verbose_terminate_handlerEv@@Base+0x2de4>
    9f0c:	f0000061 	adrp	x1, 18000 <_ZTSN10__cxxabiv117__class_type_infoE@@Base>
    9f10:	52800082 	mov	w2, #0x4                   	// #4
    9f14:	aa1303e0 	mov	x0, x19
    9f18:	91168021 	add	x1, x1, #0x5a0
    9f1c:	97fff32d 	bl	6bd0 <_ZN9__gnu_cxx27__verbose_terminate_handlerEv@@Base+0x230>
    9f20:	aa0003e2 	mov	x2, x0
    9f24:	17fffe18 	b	9784 <_ZN9__gnu_cxx27__verbose_terminate_handlerEv@@Base+0x2de4>
    9f28:	b9405676 	ldr	w22, [x19, #84]
    9f2c:	52800034 	mov	w20, #0x1                   	// #1
    9f30:	b9005674 	str	w20, [x19, #84]
    9f34:	39400860 	ldrb	w0, [x3, #2]
    9f38:	7101301f 	cmp	w0, #0x4c
    9f3c:	54004240 	b.eq	a784 <_ZN9__gnu_cxx27__verbose_terminate_handlerEv@@Base+0x3de4>  // b.none
    9f40:	7101501f 	cmp	w0, #0x54
    9f44:	54004180 	b.eq	a774 <_ZN9__gnu_cxx27__verbose_terminate_handlerEv@@Base+0x3dd4>  // b.none
    9f48:	7101cc1f 	cmp	w0, #0x73
    9f4c:	540027c0 	b.eq	a444 <_ZN9__gnu_cxx27__verbose_terminate_handlerEv@@Base+0x3aa4>  // b.none
    9f50:	7101981f 	cmp	w0, #0x66
    9f54:	54002a60 	b.eq	a4a0 <_ZN9__gnu_cxx27__verbose_terminate_handlerEv@@Base+0x3b00>  // b.none
    9f58:	5100c001 	sub	w1, w0, #0x30
    9f5c:	53001c21 	uxtb	w1, w1
    9f60:	7100243f 	cmp	w1, #0x9
    9f64:	540021a9 	b.ls	a398 <_ZN9__gnu_cxx27__verbose_terminate_handlerEv@@Base+0x39f8>  // b.plast
    9f68:	7101bc1f 	cmp	w0, #0x6f
    9f6c:	540020c0 	b.eq	a384 <_ZN9__gnu_cxx27__verbose_terminate_handlerEv@@Base+0x39e4>  // b.none
    9f70:	7101d01f 	cmp	w0, #0x74
    9f74:	1a9f17e1 	cset	w1, eq	// eq = none
    9f78:	35000061 	cbnz	w1, 9f84 <_ZN9__gnu_cxx27__verbose_terminate_handlerEv@@Base+0x35e4>
    9f7c:	7101a41f 	cmp	w0, #0x69
    9f80:	54000081 	b.ne	9f90 <_ZN9__gnu_cxx27__verbose_terminate_handlerEv@@Base+0x35f0>  // b.any
    9f84:	39400c60 	ldrb	w0, [x3, #3]
    9f88:	7101b01f 	cmp	w0, #0x6c
    9f8c:	540043e0 	b.eq	a808 <_ZN9__gnu_cxx27__verbose_terminate_handlerEv@@Base+0x3e68>  // b.none
    9f90:	aa1303e0 	mov	x0, x19
    9f94:	940003d6 	bl	aeec <_ZN9__gnu_cxx27__verbose_terminate_handlerEv@@Base+0x454c>
    9f98:	aa0003f4 	mov	x20, x0
    9f9c:	b4004320 	cbz	x0, a800 <_ZN9__gnu_cxx27__verbose_terminate_handlerEv@@Base+0x3e60>
    9fa0:	b9400000 	ldr	w0, [x0]
    9fa4:	7100c41f 	cmp	w0, #0x31
    9fa8:	54003f60 	b.eq	a794 <_ZN9__gnu_cxx27__verbose_terminate_handlerEv@@Base+0x3df4>  // b.none
    9fac:	7100c81f 	cmp	w0, #0x32
    9fb0:	54005180 	b.eq	a9e0 <_ZN9__gnu_cxx27__verbose_terminate_handlerEv@@Base+0x4040>  // b.none
    9fb4:	7100cc1f 	cmp	w0, #0x33
    9fb8:	54004241 	b.ne	a800 <_ZN9__gnu_cxx27__verbose_terminate_handlerEv@@Base+0x3e60>  // b.any
    9fbc:	f9400e60 	ldr	x0, [x19, #24]
    9fc0:	39400001 	ldrb	w1, [x0]
    9fc4:	71017c3f 	cmp	w1, #0x5f
    9fc8:	54006d00 	b.eq	ad68 <_ZN9__gnu_cxx27__verbose_terminate_handlerEv@@Base+0x43c8>  // b.none
    9fcc:	aa1303e0 	mov	x0, x19
    9fd0:	9400091f 	bl	c44c <_ZN9__gnu_cxx27__verbose_terminate_handlerEv@@Base+0x5aac>
    9fd4:	aa0003e3 	mov	x3, x0
    9fd8:	aa1403e2 	mov	x2, x20
    9fdc:	aa1303e0 	mov	x0, x19
    9fe0:	528006c1 	mov	w1, #0x36                  	// #54
    9fe4:	97fff2d3 	bl	6b30 <_ZN9__gnu_cxx27__verbose_terminate_handlerEv@@Base+0x190>
    9fe8:	aa0003e2 	mov	x2, x0
    9fec:	b9005676 	str	w22, [x19, #84]
    9ff0:	aa1303e0 	mov	x0, x19
    9ff4:	52800841 	mov	w1, #0x42                  	// #66
    9ff8:	d2800003 	mov	x3, #0x0                   	// #0
    9ffc:	97fff2cd 	bl	6b30 <_ZN9__gnu_cxx27__verbose_terminate_handlerEv@@Base+0x190>
    a000:	f9002fa0 	str	x0, [x29, #88]
    a004:	aa0003e2 	mov	x2, x0
    a008:	b4ffbbc0 	cbz	x0, 9780 <_ZN9__gnu_cxx27__verbose_terminate_handlerEv@@Base+0x2de0>
    a00c:	f9400e60 	ldr	x0, [x19, #24]
    a010:	39400001 	ldrb	w1, [x0]
    a014:	34ffbb61 	cbz	w1, 9780 <_ZN9__gnu_cxx27__verbose_terminate_handlerEv@@Base+0x2de0>
    a018:	91000401 	add	x1, x0, #0x1
    a01c:	f9000e61 	str	x1, [x19, #24]
    a020:	39400000 	ldrb	w0, [x0]
    a024:	7101141f 	cmp	w0, #0x45
    a028:	54ffbac1 	b.ne	9780 <_ZN9__gnu_cxx27__verbose_terminate_handlerEv@@Base+0x2de0>  // b.any
    a02c:	17fffe1b 	b	9898 <_ZN9__gnu_cxx27__verbose_terminate_handlerEv@@Base+0x2ef8>
    a030:	b9402a61 	ldr	w1, [x19, #40]
    a034:	b9402e60 	ldr	w0, [x19, #44]
    a038:	6b00003f 	cmp	w1, w0
    a03c:	5400112a 	b.ge	a260 <_ZN9__gnu_cxx27__verbose_terminate_handlerEv@@Base+0x38c0>  // b.tcont
    a040:	93407c20 	sxtw	x0, w1
    a044:	f9401262 	ldr	x2, [x19, #32]
    a048:	d37be804 	lsl	x4, x0, #5
    a04c:	11000421 	add	w1, w1, #0x1
    a050:	cb000c80 	sub	x0, x4, x0, lsl #3
    a054:	b9002a61 	str	w1, [x19, #40]
    a058:	8b000041 	add	x1, x2, x0
    a05c:	f9002fa1 	str	x1, [x29, #88]
    a060:	52800584 	mov	w4, #0x2c                  	// #44
    a064:	aa0103f4 	mov	x20, x1
    a068:	b8206844 	str	w4, [x2, x0]
    a06c:	39400860 	ldrb	w0, [x3, #2]
    a070:	5100c000 	sub	w0, w0, #0x30
    a074:	53001c00 	uxtb	w0, w0
    a078:	7100241f 	cmp	w0, #0x9
    a07c:	1a9f87e0 	cset	w0, ls	// ls = plast
    a080:	79002020 	strh	w0, [x1, #16]
    a084:	35001ae0 	cbnz	w0, a3e0 <_ZN9__gnu_cxx27__verbose_terminate_handlerEv@@Base+0x3a40>
    a088:	aa1303e0 	mov	x0, x19
    a08c:	97fffdaa 	bl	9734 <_ZN9__gnu_cxx27__verbose_terminate_handlerEv@@Base+0x2d94>
    a090:	f9000680 	str	x0, [x20, #8]
    a094:	f9402fa0 	ldr	x0, [x29, #88]
    a098:	f9400400 	ldr	x0, [x0, #8]
    a09c:	b4ffb720 	cbz	x0, 9780 <_ZN9__gnu_cxx27__verbose_terminate_handlerEv@@Base+0x2de0>
    a0a0:	91006260 	add	x0, x19, #0x18
    a0a4:	97fff450 	bl	71e4 <_ZN9__gnu_cxx27__verbose_terminate_handlerEv@@Base+0x844>
    a0a8:	f9400e60 	ldr	x0, [x19, #24]
    a0ac:	52800001 	mov	w1, #0x0                   	// #0
    a0b0:	39400002 	ldrb	w2, [x0]
    a0b4:	340000c2 	cbz	w2, a0cc <_ZN9__gnu_cxx27__verbose_terminate_handlerEv@@Base+0x372c>
    a0b8:	91000401 	add	x1, x0, #0x1
    a0bc:	f9000e61 	str	x1, [x19, #24]
    a0c0:	39400000 	ldrb	w0, [x0]
    a0c4:	7101cc1f 	cmp	w0, #0x73
    a0c8:	1a9f17e1 	cset	w1, eq	// eq = none
    a0cc:	f9402fa2 	ldr	x2, [x29, #88]
    a0d0:	79002441 	strh	w1, [x2, #18]
    a0d4:	17fffdac 	b	9784 <_ZN9__gnu_cxx27__verbose_terminate_handlerEv@@Base+0x2de4>
    a0d8:	d2800000 	mov	x0, #0x0                   	// #0
    a0dc:	f9002fbf 	str	xzr, [x29, #88]
    a0e0:	f9400400 	ldr	x0, [x0, #8]
    a0e4:	d4207d00 	brk	#0x3e8
    a0e8:	d2800002 	mov	x2, #0x0                   	// #0
    a0ec:	91000421 	add	x1, x1, #0x1
    a0f0:	aa1303e0 	mov	x0, x19
    a0f4:	f9000e61 	str	x1, [x19, #24]
    a0f8:	f90027a2 	str	x2, [x29, #72]
    a0fc:	97fffd8e 	bl	9734 <_ZN9__gnu_cxx27__verbose_terminate_handlerEv@@Base+0x2d94>
    a100:	aa0003e3 	mov	x3, x0
    a104:	f94027a2 	ldr	x2, [x29, #72]
    a108:	aa1303e0 	mov	x0, x19
    a10c:	52800541 	mov	w1, #0x2a                  	// #42
    a110:	97fff288 	bl	6b30 <_ZN9__gnu_cxx27__verbose_terminate_handlerEv@@Base+0x190>
    a114:	aa0003e2 	mov	x2, x0
    a118:	f9002fa2 	str	x2, [x29, #88]
    a11c:	17fffdde 	b	9894 <_ZN9__gnu_cxx27__verbose_terminate_handlerEv@@Base+0x2ef4>
    a120:	aa1303e0 	mov	x0, x19
    a124:	94000550 	bl	b664 <_ZN9__gnu_cxx27__verbose_terminate_handlerEv@@Base+0x4cc4>
    a128:	f9002fa0 	str	x0, [x29, #88]
    a12c:	aa0003e2 	mov	x2, x0
    a130:	b4ffb280 	cbz	x0, 9780 <_ZN9__gnu_cxx27__verbose_terminate_handlerEv@@Base+0x2de0>
    a134:	b9400000 	ldr	w0, [x0]
    a138:	7100601f 	cmp	w0, #0x18
    a13c:	54ffbae1 	b.ne	9898 <_ZN9__gnu_cxx27__verbose_terminate_handlerEv@@Base+0x2ef8>  // b.any
    a140:	17fffd91 	b	9784 <_ZN9__gnu_cxx27__verbose_terminate_handlerEv@@Base+0x2de4>
    a144:	b9405675 	ldr	w21, [x19, #84]
    a148:	52800034 	mov	w20, #0x1                   	// #1
    a14c:	b9005674 	str	w20, [x19, #84]
    a150:	39400460 	ldrb	w0, [x3, #1]
    a154:	7101301f 	cmp	w0, #0x4c
    a158:	540016e0 	b.eq	a434 <_ZN9__gnu_cxx27__verbose_terminate_handlerEv@@Base+0x3a94>  // b.none
    a15c:	7101501f 	cmp	w0, #0x54
    a160:	54001da0 	b.eq	a514 <_ZN9__gnu_cxx27__verbose_terminate_handlerEv@@Base+0x3b74>  // b.none
    a164:	7101cc1f 	cmp	w0, #0x73
    a168:	54000b40 	b.eq	a2d0 <_ZN9__gnu_cxx27__verbose_terminate_handlerEv@@Base+0x3930>  // b.none
    a16c:	7101981f 	cmp	w0, #0x66
    a170:	54000d00 	b.eq	a310 <_ZN9__gnu_cxx27__verbose_terminate_handlerEv@@Base+0x3970>  // b.none
    a174:	5100c001 	sub	w1, w0, #0x30
    a178:	53001c21 	uxtb	w1, w1
    a17c:	7100243f 	cmp	w1, #0x9
    a180:	54000809 	b.ls	a280 <_ZN9__gnu_cxx27__verbose_terminate_handlerEv@@Base+0x38e0>  // b.plast
    a184:	7101bc1f 	cmp	w0, #0x6f
    a188:	54000720 	b.eq	a26c <_ZN9__gnu_cxx27__verbose_terminate_handlerEv@@Base+0x38cc>  // b.none
    a18c:	7101d01f 	cmp	w0, #0x74
    a190:	1a9f17e1 	cset	w1, eq	// eq = none
    a194:	35000061 	cbnz	w1, a1a0 <_ZN9__gnu_cxx27__verbose_terminate_handlerEv@@Base+0x3800>
    a198:	7101a41f 	cmp	w0, #0x69
    a19c:	54000081 	b.ne	a1ac <_ZN9__gnu_cxx27__verbose_terminate_handlerEv@@Base+0x380c>  // b.any
    a1a0:	39400860 	ldrb	w0, [x3, #2]
    a1a4:	7101b01f 	cmp	w0, #0x6c
    a1a8:	540029a0 	b.eq	a6dc <_ZN9__gnu_cxx27__verbose_terminate_handlerEv@@Base+0x3d3c>  // b.none
    a1ac:	aa1303e0 	mov	x0, x19
    a1b0:	9400034f 	bl	aeec <_ZN9__gnu_cxx27__verbose_terminate_handlerEv@@Base+0x454c>
    a1b4:	aa0003f4 	mov	x20, x0
    a1b8:	b40016e0 	cbz	x0, a494 <_ZN9__gnu_cxx27__verbose_terminate_handlerEv@@Base+0x3af4>
    a1bc:	b9400000 	ldr	w0, [x0]
    a1c0:	7100c41f 	cmp	w0, #0x31
    a1c4:	54002ac0 	b.eq	a71c <_ZN9__gnu_cxx27__verbose_terminate_handlerEv@@Base+0x3d7c>  // b.none
    a1c8:	7100c81f 	cmp	w0, #0x32
    a1cc:	54001ac0 	b.eq	a524 <_ZN9__gnu_cxx27__verbose_terminate_handlerEv@@Base+0x3b84>  // b.none
    a1d0:	7100cc1f 	cmp	w0, #0x33
    a1d4:	54001601 	b.ne	a494 <_ZN9__gnu_cxx27__verbose_terminate_handlerEv@@Base+0x3af4>  // b.any
    a1d8:	f9400e60 	ldr	x0, [x19, #24]
    a1dc:	39400001 	ldrb	w1, [x0]
    a1e0:	71017c3f 	cmp	w1, #0x5f
    a1e4:	540059a0 	b.eq	ad18 <_ZN9__gnu_cxx27__verbose_terminate_handlerEv@@Base+0x4378>  // b.none
    a1e8:	aa1303e0 	mov	x0, x19
    a1ec:	94000898 	bl	c44c <_ZN9__gnu_cxx27__verbose_terminate_handlerEv@@Base+0x5aac>
    a1f0:	aa0003e3 	mov	x3, x0
    a1f4:	aa1403e2 	mov	x2, x20
    a1f8:	aa1303e0 	mov	x0, x19
    a1fc:	528006c1 	mov	w1, #0x36                  	// #54
    a200:	97fff24c 	bl	6b30 <_ZN9__gnu_cxx27__verbose_terminate_handlerEv@@Base+0x190>
    a204:	aa0003e2 	mov	x2, x0
    a208:	b9005675 	str	w21, [x19, #84]
    a20c:	b5ffb9c2 	cbnz	x2, 9944 <_ZN9__gnu_cxx27__verbose_terminate_handlerEv@@Base+0x2fa4>
    a210:	d2800002 	mov	x2, #0x0                   	// #0
    a214:	17fffdd1 	b	9958 <_ZN9__gnu_cxx27__verbose_terminate_handlerEv@@Base+0x2fb8>
    a218:	aa1303e0 	mov	x0, x19
    a21c:	b9402a78 	ldr	w24, [x19, #40]
    a220:	b9403a77 	ldr	w23, [x19, #56]
    a224:	b9404276 	ldr	w22, [x19, #64]
    a228:	b9405275 	ldr	w21, [x19, #80]
    a22c:	97fff632 	bl	7af4 <_ZN9__gnu_cxx27__verbose_terminate_handlerEv@@Base+0x1154>
    a230:	aa0003e3 	mov	x3, x0
    a234:	f9400e60 	ldr	x0, [x19, #24]
    a238:	39400000 	ldrb	w0, [x0]
    a23c:	7101241f 	cmp	w0, #0x49
    a240:	54000d80 	b.eq	a3f0 <_ZN9__gnu_cxx27__verbose_terminate_handlerEv@@Base+0x3a50>  // b.none
    a244:	f9000e74 	str	x20, [x19, #24]
    a248:	b9002a78 	str	w24, [x19, #40]
    a24c:	b9003a77 	str	w23, [x19, #56]
    a250:	b9004276 	str	w22, [x19, #64]
    a254:	b9005275 	str	w21, [x19, #80]
    a258:	f9402fa2 	ldr	x2, [x29, #88]
    a25c:	17fffd8e 	b	9894 <_ZN9__gnu_cxx27__verbose_terminate_handlerEv@@Base+0x2ef4>
    a260:	d2800000 	mov	x0, #0x0                   	// #0
    a264:	b900001f 	str	wzr, [x0]
    a268:	d4207d00 	brk	#0x3e8
    a26c:	39400860 	ldrb	w0, [x3, #2]
    a270:	7101b81f 	cmp	w0, #0x6e
    a274:	54fff9c1 	b.ne	a1ac <_ZN9__gnu_cxx27__verbose_terminate_handlerEv@@Base+0x380c>  // b.any
    a278:	91000c63 	add	x3, x3, #0x3
    a27c:	f9000e63 	str	x3, [x19, #24]
    a280:	aa1303e0 	mov	x0, x19
    a284:	94000397 	bl	b0e0 <_ZN9__gnu_cxx27__verbose_terminate_handlerEv@@Base+0x4740>
    a288:	aa0003e2 	mov	x2, x0
    a28c:	b4001040 	cbz	x0, a494 <_ZN9__gnu_cxx27__verbose_terminate_handlerEv@@Base+0x3af4>
    a290:	f9400e61 	ldr	x1, [x19, #24]
    a294:	39400020 	ldrb	w0, [x1]
    a298:	7101241f 	cmp	w0, #0x49
    a29c:	54000060 	b.eq	a2a8 <_ZN9__gnu_cxx27__verbose_terminate_handlerEv@@Base+0x3908>  // b.none
    a2a0:	b9005675 	str	w21, [x19, #84]
    a2a4:	17fffda9 	b	9948 <_ZN9__gnu_cxx27__verbose_terminate_handlerEv@@Base+0x2fa8>
    a2a8:	aa1303e0 	mov	x0, x19
    a2ac:	f90027a2 	str	x2, [x29, #72]
    a2b0:	97fff611 	bl	7af4 <_ZN9__gnu_cxx27__verbose_terminate_handlerEv@@Base+0x1154>
    a2b4:	aa0003e3 	mov	x3, x0
    a2b8:	f94027a2 	ldr	x2, [x29, #72]
    a2bc:	aa1303e0 	mov	x0, x19
    a2c0:	52800081 	mov	w1, #0x4                   	// #4
    a2c4:	97fff21b 	bl	6b30 <_ZN9__gnu_cxx27__verbose_terminate_handlerEv@@Base+0x190>
    a2c8:	aa0003e2 	mov	x2, x0
    a2cc:	17ffffcf 	b	a208 <_ZN9__gnu_cxx27__verbose_terminate_handlerEv@@Base+0x3868>
    a2d0:	39400860 	ldrb	w0, [x3, #2]
    a2d4:	7101c81f 	cmp	w0, #0x72
    a2d8:	54002b80 	b.eq	a848 <_ZN9__gnu_cxx27__verbose_terminate_handlerEv@@Base+0x3ea8>  // b.none
    a2dc:	7101c01f 	cmp	w0, #0x70
    a2e0:	54fff661 	b.ne	a1ac <_ZN9__gnu_cxx27__verbose_terminate_handlerEv@@Base+0x380c>  // b.any
    a2e4:	91000c63 	add	x3, x3, #0x3
    a2e8:	aa1303e0 	mov	x0, x19
    a2ec:	f9000e63 	str	x3, [x19, #24]
    a2f0:	94000857 	bl	c44c <_ZN9__gnu_cxx27__verbose_terminate_handlerEv@@Base+0x5aac>
    a2f4:	aa0003e2 	mov	x2, x0
    a2f8:	52800941 	mov	w1, #0x4a                  	// #74
    a2fc:	aa1303e0 	mov	x0, x19
    a300:	d2800003 	mov	x3, #0x0                   	// #0
    a304:	97fff20b 	bl	6b30 <_ZN9__gnu_cxx27__verbose_terminate_handlerEv@@Base+0x190>
    a308:	aa0003e2 	mov	x2, x0
    a30c:	17ffffbf 	b	a208 <_ZN9__gnu_cxx27__verbose_terminate_handlerEv@@Base+0x3868>
    a310:	39400860 	ldrb	w0, [x3, #2]
    a314:	7101c01f 	cmp	w0, #0x70
    a318:	54fff4a1 	b.ne	a1ac <_ZN9__gnu_cxx27__verbose_terminate_handlerEv@@Base+0x380c>  // b.any
    a31c:	91000c60 	add	x0, x3, #0x3
    a320:	f9000e60 	str	x0, [x19, #24]
    a324:	39400c60 	ldrb	w0, [x3, #3]
    a328:	7101501f 	cmp	w0, #0x54
    a32c:	54000ac1 	b.ne	a484 <_ZN9__gnu_cxx27__verbose_terminate_handlerEv@@Base+0x3ae4>  // b.any
    a330:	91001063 	add	x3, x3, #0x4
    a334:	52800000 	mov	w0, #0x0                   	// #0
    a338:	f9000e63 	str	x3, [x19, #24]
    a33c:	b9402a61 	ldr	w1, [x19, #40]
    a340:	93407c00 	sxtw	x0, w0
    a344:	b9402e62 	ldr	w2, [x19, #44]
    a348:	6b02003f 	cmp	w1, w2
    a34c:	54000a4a 	b.ge	a494 <_ZN9__gnu_cxx27__verbose_terminate_handlerEv@@Base+0x3af4>  // b.tcont
    a350:	52800304 	mov	w4, #0x18                  	// #24
    a354:	11000422 	add	w2, w1, #0x1
    a358:	f9401263 	ldr	x3, [x19, #32]
    a35c:	9b247c21 	smull	x1, w1, w4
    a360:	b9002a62 	str	w2, [x19, #40]
    a364:	ab010062 	adds	x2, x3, x1
    a368:	54000960 	b.eq	a494 <_ZN9__gnu_cxx27__verbose_terminate_handlerEv@@Base+0x3af4>  // b.none
    a36c:	528000c4 	mov	w4, #0x6                   	// #6
    a370:	b8216864 	str	w4, [x3, x1]
    a374:	f9000440 	str	x0, [x2, #8]
    a378:	b9005675 	str	w21, [x19, #84]
    a37c:	f9400e61 	ldr	x1, [x19, #24]
    a380:	17fffd72 	b	9948 <_ZN9__gnu_cxx27__verbose_terminate_handlerEv@@Base+0x2fa8>
    a384:	39400c60 	ldrb	w0, [x3, #3]
    a388:	7101b81f 	cmp	w0, #0x6e
    a38c:	54ffe021 	b.ne	9f90 <_ZN9__gnu_cxx27__verbose_terminate_handlerEv@@Base+0x35f0>  // b.any
    a390:	91001063 	add	x3, x3, #0x4
    a394:	f9000e63 	str	x3, [x19, #24]
    a398:	aa1303e0 	mov	x0, x19
    a39c:	94000351 	bl	b0e0 <_ZN9__gnu_cxx27__verbose_terminate_handlerEv@@Base+0x4740>
    a3a0:	b4002300 	cbz	x0, a800 <_ZN9__gnu_cxx27__verbose_terminate_handlerEv@@Base+0x3e60>
    a3a4:	f9400e61 	ldr	x1, [x19, #24]
    a3a8:	aa0003e2 	mov	x2, x0
    a3ac:	39400020 	ldrb	w0, [x1]
    a3b0:	7101241f 	cmp	w0, #0x49
    a3b4:	54ffe1c1 	b.ne	9fec <_ZN9__gnu_cxx27__verbose_terminate_handlerEv@@Base+0x364c>  // b.any
    a3b8:	aa1303e0 	mov	x0, x19
    a3bc:	f90027a2 	str	x2, [x29, #72]
    a3c0:	97fff5cd 	bl	7af4 <_ZN9__gnu_cxx27__verbose_terminate_handlerEv@@Base+0x1154>
    a3c4:	aa0003e3 	mov	x3, x0
    a3c8:	f94027a2 	ldr	x2, [x29, #72]
    a3cc:	aa1303e0 	mov	x0, x19
    a3d0:	52800081 	mov	w1, #0x4                   	// #4
    a3d4:	97fff1d7 	bl	6b30 <_ZN9__gnu_cxx27__verbose_terminate_handlerEv@@Base+0x190>
    a3d8:	aa0003e2 	mov	x2, x0
    a3dc:	17ffff04 	b	9fec <_ZN9__gnu_cxx27__verbose_terminate_handlerEv@@Base+0x364c>
    a3e0:	91006260 	add	x0, x19, #0x18
    a3e4:	97fff380 	bl	71e4 <_ZN9__gnu_cxx27__verbose_terminate_handlerEv@@Base+0x844>
    a3e8:	f9402fb4 	ldr	x20, [x29, #88]
    a3ec:	17ffff27 	b	a088 <_ZN9__gnu_cxx27__verbose_terminate_handlerEv@@Base+0x36e8>
    a3f0:	f9402fa4 	ldr	x4, [x29, #88]
    a3f4:	b4ff9c64 	cbz	x4, 9780 <_ZN9__gnu_cxx27__verbose_terminate_handlerEv@@Base+0x2de0>
    a3f8:	b9403a62 	ldr	w2, [x19, #56]
    a3fc:	b9403e60 	ldr	w0, [x19, #60]
    a400:	6b00005f 	cmp	w2, w0
    a404:	54ff9bea 	b.ge	9780 <_ZN9__gnu_cxx27__verbose_terminate_handlerEv@@Base+0x2de0>  // b.tcont
    a408:	f9401a66 	ldr	x6, [x19, #48]
    a40c:	11000445 	add	w5, w2, #0x1
    a410:	aa1303e0 	mov	x0, x19
    a414:	52800081 	mov	w1, #0x4                   	// #4
    a418:	f822d8c4 	str	x4, [x6, w2, sxtw #3]
    a41c:	b9003a65 	str	w5, [x19, #56]
    a420:	f9402fa2 	ldr	x2, [x29, #88]
    a424:	97fff1c3 	bl	6b30 <_ZN9__gnu_cxx27__verbose_terminate_handlerEv@@Base+0x190>
    a428:	aa0003e2 	mov	x2, x0
    a42c:	f9002fa0 	str	x0, [x29, #88]
    a430:	17fffd19 	b	9894 <_ZN9__gnu_cxx27__verbose_terminate_handlerEv@@Base+0x2ef4>
    a434:	aa1303e0 	mov	x0, x19
    a438:	940007a7 	bl	c2d4 <_ZN9__gnu_cxx27__verbose_terminate_handlerEv@@Base+0x5934>
    a43c:	aa0003e2 	mov	x2, x0
    a440:	17ffff72 	b	a208 <_ZN9__gnu_cxx27__verbose_terminate_handlerEv@@Base+0x3868>
    a444:	39400c60 	ldrb	w0, [x3, #3]
    a448:	7101c81f 	cmp	w0, #0x72
    a44c:	540029c0 	b.eq	a984 <_ZN9__gnu_cxx27__verbose_terminate_handlerEv@@Base+0x3fe4>  // b.none
    a450:	7101c01f 	cmp	w0, #0x70
    a454:	54ffd9e1 	b.ne	9f90 <_ZN9__gnu_cxx27__verbose_terminate_handlerEv@@Base+0x35f0>  // b.any
    a458:	91001063 	add	x3, x3, #0x4
    a45c:	aa1303e0 	mov	x0, x19
    a460:	f9000e63 	str	x3, [x19, #24]
    a464:	940007fa 	bl	c44c <_ZN9__gnu_cxx27__verbose_terminate_handlerEv@@Base+0x5aac>
    a468:	aa0003e2 	mov	x2, x0
    a46c:	52800941 	mov	w1, #0x4a                  	// #74
    a470:	aa1303e0 	mov	x0, x19
    a474:	d2800003 	mov	x3, #0x0                   	// #0
    a478:	97fff1ae 	bl	6b30 <_ZN9__gnu_cxx27__verbose_terminate_handlerEv@@Base+0x190>
    a47c:	aa0003e2 	mov	x2, x0
    a480:	17fffedb 	b	9fec <_ZN9__gnu_cxx27__verbose_terminate_handlerEv@@Base+0x364c>
    a484:	aa1303e0 	mov	x0, x19
    a488:	97fff4d9 	bl	77ec <_ZN9__gnu_cxx27__verbose_terminate_handlerEv@@Base+0xe4c>
    a48c:	31000400 	adds	w0, w0, #0x1
    a490:	54fff561 	b.ne	a33c <_ZN9__gnu_cxx27__verbose_terminate_handlerEv@@Base+0x399c>  // b.any
    a494:	b9005675 	str	w21, [x19, #84]
    a498:	d2800002 	mov	x2, #0x0                   	// #0
    a49c:	17fffd2f 	b	9958 <_ZN9__gnu_cxx27__verbose_terminate_handlerEv@@Base+0x2fb8>
    a4a0:	39400c60 	ldrb	w0, [x3, #3]
    a4a4:	7101c01f 	cmp	w0, #0x70
    a4a8:	54ffd741 	b.ne	9f90 <_ZN9__gnu_cxx27__verbose_terminate_handlerEv@@Base+0x35f0>  // b.any
    a4ac:	91001060 	add	x0, x3, #0x4
    a4b0:	f9000e60 	str	x0, [x19, #24]
    a4b4:	39401060 	ldrb	w0, [x3, #4]
    a4b8:	7101501f 	cmp	w0, #0x54
    a4bc:	540019a1 	b.ne	a7f0 <_ZN9__gnu_cxx27__verbose_terminate_handlerEv@@Base+0x3e50>  // b.any
    a4c0:	91001463 	add	x3, x3, #0x5
    a4c4:	52800000 	mov	w0, #0x0                   	// #0
    a4c8:	f9000e63 	str	x3, [x19, #24]
    a4cc:	b9402a61 	ldr	w1, [x19, #40]
    a4d0:	93407c00 	sxtw	x0, w0
    a4d4:	b9402e62 	ldr	w2, [x19, #44]
    a4d8:	6b02003f 	cmp	w1, w2
    a4dc:	5400192a 	b.ge	a800 <_ZN9__gnu_cxx27__verbose_terminate_handlerEv@@Base+0x3e60>  // b.tcont
    a4e0:	52800304 	mov	w4, #0x18                  	// #24
    a4e4:	11000422 	add	w2, w1, #0x1
    a4e8:	f9401263 	ldr	x3, [x19, #32]
    a4ec:	9b247c21 	smull	x1, w1, w4
    a4f0:	b9002a62 	str	w2, [x19, #40]
    a4f4:	d2800002 	mov	x2, #0x0                   	// #0
    a4f8:	ab010064 	adds	x4, x3, x1
    a4fc:	54ffd780 	b.eq	9fec <_ZN9__gnu_cxx27__verbose_terminate_handlerEv@@Base+0x364c>  // b.none
    a500:	528000c2 	mov	w2, #0x6                   	// #6
    a504:	b8216862 	str	w2, [x3, x1]
    a508:	f9000480 	str	x0, [x4, #8]
    a50c:	aa0403e2 	mov	x2, x4
    a510:	17fffeb7 	b	9fec <_ZN9__gnu_cxx27__verbose_terminate_handlerEv@@Base+0x364c>
    a514:	aa1303e0 	mov	x0, x19
    a518:	97fff501 	bl	791c <_ZN9__gnu_cxx27__verbose_terminate_handlerEv@@Base+0xf7c>
    a51c:	aa0003e2 	mov	x2, x0
    a520:	17ffff3a 	b	a208 <_ZN9__gnu_cxx27__verbose_terminate_handlerEv@@Base+0x3868>
    a524:	b9400a81 	ldr	w1, [x20, #8]
    a528:	71000c3f 	cmp	w1, #0x3
    a52c:	54fffb48 	b.hi	a494 <_ZN9__gnu_cxx27__verbose_terminate_handlerEv@@Base+0x3af4>  // b.pmore
    a530:	d0000060 	adrp	x0, 18000 <_ZTSN10__cxxabiv117__class_type_infoE@@Base>
    a534:	910bf000 	add	x0, x0, #0x2fc
    a538:	78615800 	ldrh	w0, [x0, w1, uxtw #1]
    a53c:	10000061 	adr	x1, a548 <_ZN9__gnu_cxx27__verbose_terminate_handlerEv@@Base+0x3ba8>
    a540:	8b20a820 	add	x0, x1, w0, sxth #2
    a544:	d61f0000 	br	x0
    a548:	aa1403e2 	mov	x2, x20
    a54c:	aa1303e0 	mov	x0, x19
    a550:	528006a1 	mov	w1, #0x35                  	// #53
    a554:	d2800003 	mov	x3, #0x0                   	// #0
    a558:	97fff176 	bl	6b30 <_ZN9__gnu_cxx27__verbose_terminate_handlerEv@@Base+0x190>
    a55c:	aa0003e2 	mov	x2, x0
    a560:	17ffff2a 	b	a208 <_ZN9__gnu_cxx27__verbose_terminate_handlerEv@@Base+0x3868>
    a564:	d2800016 	mov	x22, #0x0                   	// #0
    a568:	d0000061 	adrp	x1, 18000 <_ZTSN10__cxxabiv117__class_type_infoE@@Base>
    a56c:	aa1603e0 	mov	x0, x22
    a570:	91166021 	add	x1, x1, #0x598
    a574:	97ffe92b 	bl	4a20 <strcmp@plt>
    a578:	34001f40 	cbz	w0, a960 <_ZN9__gnu_cxx27__verbose_terminate_handlerEv@@Base+0x3fc0>
    a57c:	394002c0 	ldrb	w0, [x22]
    a580:	7101b81f 	cmp	w0, #0x6e
    a584:	54fff881 	b.ne	a494 <_ZN9__gnu_cxx27__verbose_terminate_handlerEv@@Base+0x3af4>  // b.any
    a588:	394006c0 	ldrb	w0, [x22, #1]
    a58c:	7101841f 	cmp	w0, #0x61
    a590:	54000060 	b.eq	a59c <_ZN9__gnu_cxx27__verbose_terminate_handlerEv@@Base+0x3bfc>  // b.none
    a594:	7101dc1f 	cmp	w0, #0x77
    a598:	54fff7e1 	b.ne	a494 <_ZN9__gnu_cxx27__verbose_terminate_handlerEv@@Base+0x3af4>  // b.any
    a59c:	52800be1 	mov	w1, #0x5f                  	// #95
    a5a0:	aa1303e0 	mov	x0, x19
    a5a4:	97fffa8f 	bl	8fe0 <_ZN9__gnu_cxx27__verbose_terminate_handlerEv@@Base+0x2640>
    a5a8:	aa0003f6 	mov	x22, x0
    a5ac:	aa1303e0 	mov	x0, x19
    a5b0:	97fffc61 	bl	9734 <_ZN9__gnu_cxx27__verbose_terminate_handlerEv@@Base+0x2d94>
    a5b4:	aa0003f7 	mov	x23, x0
    a5b8:	f9400e60 	ldr	x0, [x19, #24]
    a5bc:	39400001 	ldrb	w1, [x0]
    a5c0:	7101143f 	cmp	w1, #0x45
    a5c4:	54003a20 	b.eq	ad08 <_ZN9__gnu_cxx27__verbose_terminate_handlerEv@@Base+0x4368>  // b.none
    a5c8:	7101c03f 	cmp	w1, #0x70
    a5cc:	540038c0 	b.eq	ace4 <_ZN9__gnu_cxx27__verbose_terminate_handlerEv@@Base+0x4344>  // b.none
    a5d0:	7101a43f 	cmp	w1, #0x69
    a5d4:	54fff601 	b.ne	a494 <_ZN9__gnu_cxx27__verbose_terminate_handlerEv@@Base+0x3af4>  // b.any
    a5d8:	39400400 	ldrb	w0, [x0, #1]
    a5dc:	7101b01f 	cmp	w0, #0x6c
    a5e0:	54fff5a1 	b.ne	a494 <_ZN9__gnu_cxx27__verbose_terminate_handlerEv@@Base+0x3af4>  // b.any
    a5e4:	aa1303e0 	mov	x0, x19
    a5e8:	94000799 	bl	c44c <_ZN9__gnu_cxx27__verbose_terminate_handlerEv@@Base+0x5aac>
    a5ec:	aa0003e3 	mov	x3, x0
    a5f0:	52800761 	mov	w1, #0x3b                  	// #59
    a5f4:	aa1703e2 	mov	x2, x23
    a5f8:	aa1303e0 	mov	x0, x19
    a5fc:	97fff14d 	bl	6b30 <_ZN9__gnu_cxx27__verbose_terminate_handlerEv@@Base+0x190>
    a600:	aa0003e3 	mov	x3, x0
    a604:	52800741 	mov	w1, #0x3a                  	// #58
    a608:	aa1603e2 	mov	x2, x22
    a60c:	aa1303e0 	mov	x0, x19
    a610:	97fff148 	bl	6b30 <_ZN9__gnu_cxx27__verbose_terminate_handlerEv@@Base+0x190>
    a614:	aa0003e3 	mov	x3, x0
    a618:	aa1403e2 	mov	x2, x20
    a61c:	aa1303e0 	mov	x0, x19
    a620:	52800721 	mov	w1, #0x39                  	// #57
    a624:	97fff143 	bl	6b30 <_ZN9__gnu_cxx27__verbose_terminate_handlerEv@@Base+0x190>
    a628:	aa0003e2 	mov	x2, x0
    a62c:	17fffef7 	b	a208 <_ZN9__gnu_cxx27__verbose_terminate_handlerEv@@Base+0x3868>
    a630:	d2800016 	mov	x22, #0x0                   	// #0
    a634:	f9400680 	ldr	x0, [x20, #8]
    a638:	f9400000 	ldr	x0, [x0]
    a63c:	39400401 	ldrb	w1, [x0, #1]
    a640:	71018c3f 	cmp	w1, #0x63
    a644:	54001740 	b.eq	a92c <_ZN9__gnu_cxx27__verbose_terminate_handlerEv@@Base+0x3f8c>  // b.none
    a648:	aa1303e0 	mov	x0, x19
    a64c:	94000780 	bl	c44c <_ZN9__gnu_cxx27__verbose_terminate_handlerEv@@Base+0x5aac>
    a650:	aa0003f7 	mov	x23, x0
    a654:	d0000061 	adrp	x1, 18000 <_ZTSN10__cxxabiv117__class_type_infoE@@Base>
    a658:	aa1603e0 	mov	x0, x22
    a65c:	91160021 	add	x1, x1, #0x580
    a660:	97ffe8f0 	bl	4a20 <strcmp@plt>
    a664:	34001d20 	cbz	w0, aa08 <_ZN9__gnu_cxx27__verbose_terminate_handlerEv@@Base+0x4068>
    a668:	d0000061 	adrp	x1, 18000 <_ZTSN10__cxxabiv117__class_type_infoE@@Base>
    a66c:	aa1603e0 	mov	x0, x22
    a670:	91162021 	add	x1, x1, #0x588
    a674:	97ffe8eb 	bl	4a20 <strcmp@plt>
    a678:	340000c0 	cbz	w0, a690 <_ZN9__gnu_cxx27__verbose_terminate_handlerEv@@Base+0x3cf0>
    a67c:	d0000061 	adrp	x1, 18000 <_ZTSN10__cxxabiv117__class_type_infoE@@Base>
    a680:	aa1603e0 	mov	x0, x22
    a684:	91164021 	add	x1, x1, #0x590
    a688:	97ffe8e6 	bl	4a20 <strcmp@plt>
    a68c:	35003240 	cbnz	w0, acd4 <_ZN9__gnu_cxx27__verbose_terminate_handlerEv@@Base+0x4334>
    a690:	aa1303e0 	mov	x0, x19
    a694:	94000293 	bl	b0e0 <_ZN9__gnu_cxx27__verbose_terminate_handlerEv@@Base+0x4740>
    a698:	aa0003f6 	mov	x22, x0
    a69c:	f9400e60 	ldr	x0, [x19, #24]
    a6a0:	39400000 	ldrb	w0, [x0]
    a6a4:	7101241f 	cmp	w0, #0x49
    a6a8:	54002fc0 	b.eq	aca0 <_ZN9__gnu_cxx27__verbose_terminate_handlerEv@@Base+0x4300>  // b.none
    a6ac:	52800701 	mov	w1, #0x38                  	// #56
    a6b0:	aa1703e2 	mov	x2, x23
    a6b4:	aa1603e3 	mov	x3, x22
    a6b8:	aa1303e0 	mov	x0, x19
    a6bc:	97fff11d 	bl	6b30 <_ZN9__gnu_cxx27__verbose_terminate_handlerEv@@Base+0x190>
    a6c0:	aa0003e3 	mov	x3, x0
    a6c4:	aa1403e2 	mov	x2, x20
    a6c8:	aa1303e0 	mov	x0, x19
    a6cc:	528006e1 	mov	w1, #0x37                  	// #55
    a6d0:	97fff118 	bl	6b30 <_ZN9__gnu_cxx27__verbose_terminate_handlerEv@@Base+0x190>
    a6d4:	aa0003e2 	mov	x2, x0
    a6d8:	17fffecc 	b	a208 <_ZN9__gnu_cxx27__verbose_terminate_handlerEv@@Base+0x3868>
    a6dc:	d2800002 	mov	x2, #0x0                   	// #0
    a6e0:	35001781 	cbnz	w1, a9d0 <_ZN9__gnu_cxx27__verbose_terminate_handlerEv@@Base+0x4030>
    a6e4:	f9400e63 	ldr	x3, [x19, #24]
    a6e8:	528008a1 	mov	w1, #0x45                  	// #69
    a6ec:	aa1303e0 	mov	x0, x19
    a6f0:	f90027a2 	str	x2, [x29, #72]
    a6f4:	91000863 	add	x3, x3, #0x2
    a6f8:	f9000e63 	str	x3, [x19, #24]
    a6fc:	97fffa39 	bl	8fe0 <_ZN9__gnu_cxx27__verbose_terminate_handlerEv@@Base+0x2640>
    a700:	aa0003e3 	mov	x3, x0
    a704:	f94027a2 	ldr	x2, [x29, #72]
    a708:	aa1303e0 	mov	x0, x19
    a70c:	52800601 	mov	w1, #0x30                  	// #48
    a710:	97fff108 	bl	6b30 <_ZN9__gnu_cxx27__verbose_terminate_handlerEv@@Base+0x190>
    a714:	aa0003e2 	mov	x2, x0
    a718:	17fffebc 	b	a208 <_ZN9__gnu_cxx27__verbose_terminate_handlerEv@@Base+0x3868>
    a71c:	f9400683 	ldr	x3, [x20, #8]
    a720:	d0000061 	adrp	x1, 18000 <_ZTSN10__cxxabiv117__class_type_infoE@@Base>
    a724:	b9405262 	ldr	w2, [x19, #80]
    a728:	912c0021 	add	x1, x1, #0xb00
    a72c:	b9401060 	ldr	w0, [x3, #16]
    a730:	f9400076 	ldr	x22, [x3]
    a734:	51000800 	sub	w0, w0, #0x2
    a738:	0b000042 	add	w2, w2, w0
    a73c:	aa1603e0 	mov	x0, x22
    a740:	b9005262 	str	w2, [x19, #80]
    a744:	97ffe8b7 	bl	4a20 <strcmp@plt>
    a748:	34000d00 	cbz	w0, a8e8 <_ZN9__gnu_cxx27__verbose_terminate_handlerEv@@Base+0x3f48>
    a74c:	f9400680 	ldr	x0, [x20, #8]
    a750:	b9401401 	ldr	w1, [x0, #20]
    a754:	71000c3f 	cmp	w1, #0x3
    a758:	54ffe9e8 	b.hi	a494 <_ZN9__gnu_cxx27__verbose_terminate_handlerEv@@Base+0x3af4>  // b.pmore
    a75c:	d0000060 	adrp	x0, 18000 <_ZTSN10__cxxabiv117__class_type_infoE@@Base>
    a760:	910c1000 	add	x0, x0, #0x304
    a764:	78615800 	ldrh	w0, [x0, w1, uxtw #1]
    a768:	10000061 	adr	x1, a774 <_ZN9__gnu_cxx27__verbose_terminate_handlerEv@@Base+0x3dd4>
    a76c:	8b20a820 	add	x0, x1, w0, sxth #2
    a770:	d61f0000 	br	x0
    a774:	aa1303e0 	mov	x0, x19
    a778:	97fff469 	bl	791c <_ZN9__gnu_cxx27__verbose_terminate_handlerEv@@Base+0xf7c>
    a77c:	aa0003e2 	mov	x2, x0
    a780:	17fffe1b 	b	9fec <_ZN9__gnu_cxx27__verbose_terminate_handlerEv@@Base+0x364c>
    a784:	aa1303e0 	mov	x0, x19
    a788:	940006d3 	bl	c2d4 <_ZN9__gnu_cxx27__verbose_terminate_handlerEv@@Base+0x5934>
    a78c:	aa0003e2 	mov	x2, x0
    a790:	17fffe17 	b	9fec <_ZN9__gnu_cxx27__verbose_terminate_handlerEv@@Base+0x364c>
    a794:	f9400683 	ldr	x3, [x20, #8]
    a798:	d0000061 	adrp	x1, 18000 <_ZTSN10__cxxabiv117__class_type_infoE@@Base>
    a79c:	b9405262 	ldr	w2, [x19, #80]
    a7a0:	912c0021 	add	x1, x1, #0xb00
    a7a4:	b9401060 	ldr	w0, [x3, #16]
    a7a8:	f9400075 	ldr	x21, [x3]
    a7ac:	51000800 	sub	w0, w0, #0x2
    a7b0:	0b000042 	add	w2, w2, w0
    a7b4:	aa1503e0 	mov	x0, x21
    a7b8:	b9005262 	str	w2, [x19, #80]
    a7bc:	97ffe899 	bl	4a20 <strcmp@plt>
    a7c0:	34002e80 	cbz	w0, ad90 <_ZN9__gnu_cxx27__verbose_terminate_handlerEv@@Base+0x43f0>
    a7c4:	f9400680 	ldr	x0, [x20, #8]
    a7c8:	d2800002 	mov	x2, #0x0                   	// #0
    a7cc:	b9401401 	ldr	w1, [x0, #20]
    a7d0:	71000c3f 	cmp	w1, #0x3
    a7d4:	54ffc0c8 	b.hi	9fec <_ZN9__gnu_cxx27__verbose_terminate_handlerEv@@Base+0x364c>  // b.pmore
    a7d8:	d0000060 	adrp	x0, 18000 <_ZTSN10__cxxabiv117__class_type_infoE@@Base>
    a7dc:	910c3000 	add	x0, x0, #0x30c
    a7e0:	78615800 	ldrh	w0, [x0, w1, uxtw #1]
    a7e4:	10000061 	adr	x1, a7f0 <_ZN9__gnu_cxx27__verbose_terminate_handlerEv@@Base+0x3e50>
    a7e8:	8b20a820 	add	x0, x1, w0, sxth #2
    a7ec:	d61f0000 	br	x0
    a7f0:	aa1303e0 	mov	x0, x19
    a7f4:	97fff3fe 	bl	77ec <_ZN9__gnu_cxx27__verbose_terminate_handlerEv@@Base+0xe4c>
    a7f8:	31000400 	adds	w0, w0, #0x1
    a7fc:	54ffe681 	b.ne	a4cc <_ZN9__gnu_cxx27__verbose_terminate_handlerEv@@Base+0x3b2c>  // b.any
    a800:	d2800002 	mov	x2, #0x0                   	// #0
    a804:	17fffdfa 	b	9fec <_ZN9__gnu_cxx27__verbose_terminate_handlerEv@@Base+0x364c>
    a808:	d2800002 	mov	x2, #0x0                   	// #0
    a80c:	350025c1 	cbnz	w1, acc4 <_ZN9__gnu_cxx27__verbose_terminate_handlerEv@@Base+0x4324>
    a810:	f9400e63 	ldr	x3, [x19, #24]
    a814:	528008a1 	mov	w1, #0x45                  	// #69
    a818:	aa1303e0 	mov	x0, x19
    a81c:	f90027a2 	str	x2, [x29, #72]
    a820:	91000863 	add	x3, x3, #0x2
    a824:	f9000e63 	str	x3, [x19, #24]
    a828:	97fff9ee 	bl	8fe0 <_ZN9__gnu_cxx27__verbose_terminate_handlerEv@@Base+0x2640>
    a82c:	aa0003e3 	mov	x3, x0
    a830:	f94027a2 	ldr	x2, [x29, #72]
    a834:	aa1303e0 	mov	x0, x19
    a838:	52800601 	mov	w1, #0x30                  	// #48
    a83c:	97fff0bd 	bl	6b30 <_ZN9__gnu_cxx27__verbose_terminate_handlerEv@@Base+0x190>
    a840:	aa0003e2 	mov	x2, x0
    a844:	17fffdea 	b	9fec <_ZN9__gnu_cxx27__verbose_terminate_handlerEv@@Base+0x364c>
    a848:	91000c63 	add	x3, x3, #0x3
    a84c:	aa1303e0 	mov	x0, x19
    a850:	f9000e63 	str	x3, [x19, #24]
    a854:	97fffbb8 	bl	9734 <_ZN9__gnu_cxx27__verbose_terminate_handlerEv@@Base+0x2d94>
    a858:	aa0003f6 	mov	x22, x0
    a85c:	aa1303e0 	mov	x0, x19
    a860:	94000220 	bl	b0e0 <_ZN9__gnu_cxx27__verbose_terminate_handlerEv@@Base+0x4740>
    a864:	aa0003f7 	mov	x23, x0
    a868:	f9400e60 	ldr	x0, [x19, #24]
    a86c:	39400000 	ldrb	w0, [x0]
    a870:	7101241f 	cmp	w0, #0x49
    a874:	aa1303e0 	mov	x0, x19
    a878:	54000400 	b.eq	a8f8 <_ZN9__gnu_cxx27__verbose_terminate_handlerEv@@Base+0x3f58>  // b.none
    a87c:	aa1603e2 	mov	x2, x22
    a880:	2a1403e1 	mov	w1, w20
    a884:	aa1703e3 	mov	x3, x23
    a888:	97fff0aa 	bl	6b30 <_ZN9__gnu_cxx27__verbose_terminate_handlerEv@@Base+0x190>
    a88c:	aa0003e2 	mov	x2, x0
    a890:	17fffe5e 	b	a208 <_ZN9__gnu_cxx27__verbose_terminate_handlerEv@@Base+0x3868>
    a894:	394002c0 	ldrb	w0, [x22]
    a898:	7101b41f 	cmp	w0, #0x6d
    a89c:	54000060 	b.eq	a8a8 <_ZN9__gnu_cxx27__verbose_terminate_handlerEv@@Base+0x3f08>  // b.none
    a8a0:	7101c01f 	cmp	w0, #0x70
    a8a4:	54ffca21 	b.ne	a1e8 <_ZN9__gnu_cxx27__verbose_terminate_handlerEv@@Base+0x3848>  // b.any
    a8a8:	394006c1 	ldrb	w1, [x22, #1]
    a8ac:	6b00003f 	cmp	w1, w0
    a8b0:	54ffc9c1 	b.ne	a1e8 <_ZN9__gnu_cxx27__verbose_terminate_handlerEv@@Base+0x3848>  // b.any
    a8b4:	f9400e60 	ldr	x0, [x19, #24]
    a8b8:	39400001 	ldrb	w1, [x0]
    a8bc:	71017c3f 	cmp	w1, #0x5f
    a8c0:	54001ea0 	b.eq	ac94 <_ZN9__gnu_cxx27__verbose_terminate_handlerEv@@Base+0x42f4>  // b.none
    a8c4:	aa1303e0 	mov	x0, x19
    a8c8:	940006e1 	bl	c44c <_ZN9__gnu_cxx27__verbose_terminate_handlerEv@@Base+0x5aac>
    a8cc:	aa0003e2 	mov	x2, x0
    a8d0:	aa0203e3 	mov	x3, x2
    a8d4:	aa1303e0 	mov	x0, x19
    a8d8:	52800701 	mov	w1, #0x38                  	// #56
    a8dc:	97fff095 	bl	6b30 <_ZN9__gnu_cxx27__verbose_terminate_handlerEv@@Base+0x190>
    a8e0:	aa0003e3 	mov	x3, x0
    a8e4:	17fffe44 	b	a1f4 <_ZN9__gnu_cxx27__verbose_terminate_handlerEv@@Base+0x3854>
    a8e8:	aa1303e0 	mov	x0, x19
    a8ec:	97fffb92 	bl	9734 <_ZN9__gnu_cxx27__verbose_terminate_handlerEv@@Base+0x2d94>
    a8f0:	aa0003e3 	mov	x3, x0
    a8f4:	17fffe40 	b	a1f4 <_ZN9__gnu_cxx27__verbose_terminate_handlerEv@@Base+0x3854>
    a8f8:	97fff47f 	bl	7af4 <_ZN9__gnu_cxx27__verbose_terminate_handlerEv@@Base+0x1154>
    a8fc:	aa0003e3 	mov	x3, x0
    a900:	52800081 	mov	w1, #0x4                   	// #4
    a904:	aa1703e2 	mov	x2, x23
    a908:	aa1303e0 	mov	x0, x19
    a90c:	97fff089 	bl	6b30 <_ZN9__gnu_cxx27__verbose_terminate_handlerEv@@Base+0x190>
    a910:	aa0003e3 	mov	x3, x0
    a914:	aa1603e2 	mov	x2, x22
    a918:	aa1303e0 	mov	x0, x19
    a91c:	2a1403e1 	mov	w1, w20
    a920:	97fff084 	bl	6b30 <_ZN9__gnu_cxx27__verbose_terminate_handlerEv@@Base+0x190>
    a924:	aa0003e2 	mov	x2, x0
    a928:	17fffe38 	b	a208 <_ZN9__gnu_cxx27__verbose_terminate_handlerEv@@Base+0x3868>
    a92c:	39400000 	ldrb	w0, [x0]
    a930:	5101c801 	sub	w1, w0, #0x72
    a934:	53001c21 	uxtb	w1, w1
    a938:	7100043f 	cmp	w1, #0x1
    a93c:	540000a9 	b.ls	a950 <_ZN9__gnu_cxx27__verbose_terminate_handlerEv@@Base+0x3fb0>  // b.plast
    a940:	51018c00 	sub	w0, w0, #0x63
    a944:	53001c00 	uxtb	w0, w0
    a948:	7100041f 	cmp	w0, #0x1
    a94c:	54ffe7e8 	b.hi	a648 <_ZN9__gnu_cxx27__verbose_terminate_handlerEv@@Base+0x3ca8>  // b.pmore
    a950:	aa1303e0 	mov	x0, x19
    a954:	97fffb78 	bl	9734 <_ZN9__gnu_cxx27__verbose_terminate_handlerEv@@Base+0x2d94>
    a958:	aa0003f7 	mov	x23, x0
    a95c:	17ffff3e 	b	a654 <_ZN9__gnu_cxx27__verbose_terminate_handlerEv@@Base+0x3cb4>
    a960:	aa1303e0 	mov	x0, x19
    a964:	940006ba 	bl	c44c <_ZN9__gnu_cxx27__verbose_terminate_handlerEv@@Base+0x5aac>
    a968:	aa0003f6 	mov	x22, x0
    a96c:	aa1303e0 	mov	x0, x19
    a970:	940006b7 	bl	c44c <_ZN9__gnu_cxx27__verbose_terminate_handlerEv@@Base+0x5aac>
    a974:	aa0003f7 	mov	x23, x0
    a978:	aa1303e0 	mov	x0, x19
    a97c:	940006b4 	bl	c44c <_ZN9__gnu_cxx27__verbose_terminate_handlerEv@@Base+0x5aac>
    a980:	17ffff1b 	b	a5ec <_ZN9__gnu_cxx27__verbose_terminate_handlerEv@@Base+0x3c4c>
    a984:	91001063 	add	x3, x3, #0x4
    a988:	aa1303e0 	mov	x0, x19
    a98c:	f9000e63 	str	x3, [x19, #24]
    a990:	97fffb69 	bl	9734 <_ZN9__gnu_cxx27__verbose_terminate_handlerEv@@Base+0x2d94>
    a994:	aa0003f5 	mov	x21, x0
    a998:	aa1303e0 	mov	x0, x19
    a99c:	940001d1 	bl	b0e0 <_ZN9__gnu_cxx27__verbose_terminate_handlerEv@@Base+0x4740>
    a9a0:	aa0003f7 	mov	x23, x0
    a9a4:	f9400e60 	ldr	x0, [x19, #24]
    a9a8:	39400000 	ldrb	w0, [x0]
    a9ac:	7101241f 	cmp	w0, #0x49
    a9b0:	aa1303e0 	mov	x0, x19
    a9b4:	54001c00 	b.eq	ad34 <_ZN9__gnu_cxx27__verbose_terminate_handlerEv@@Base+0x4394>  // b.none
    a9b8:	aa1503e2 	mov	x2, x21
    a9bc:	2a1403e1 	mov	w1, w20
    a9c0:	aa1703e3 	mov	x3, x23
    a9c4:	97fff05b 	bl	6b30 <_ZN9__gnu_cxx27__verbose_terminate_handlerEv@@Base+0x190>
    a9c8:	aa0003e2 	mov	x2, x0
    a9cc:	17fffd88 	b	9fec <_ZN9__gnu_cxx27__verbose_terminate_handlerEv@@Base+0x364c>
    a9d0:	aa1303e0 	mov	x0, x19
    a9d4:	97fffb58 	bl	9734 <_ZN9__gnu_cxx27__verbose_terminate_handlerEv@@Base+0x2d94>
    a9d8:	aa0003e2 	mov	x2, x0
    a9dc:	17ffff42 	b	a6e4 <_ZN9__gnu_cxx27__verbose_terminate_handlerEv@@Base+0x3d44>
    a9e0:	b9400a81 	ldr	w1, [x20, #8]
    a9e4:	d2800002 	mov	x2, #0x0                   	// #0
    a9e8:	71000c3f 	cmp	w1, #0x3
    a9ec:	54ffb008 	b.hi	9fec <_ZN9__gnu_cxx27__verbose_terminate_handlerEv@@Base+0x364c>  // b.pmore
    a9f0:	d0000060 	adrp	x0, 18000 <_ZTSN10__cxxabiv117__class_type_infoE@@Base>
    a9f4:	910c5000 	add	x0, x0, #0x314
    a9f8:	78615800 	ldrh	w0, [x0, w1, uxtw #1]
    a9fc:	10000061 	adr	x1, aa08 <_ZN9__gnu_cxx27__verbose_terminate_handlerEv@@Base+0x4068>
    aa00:	8b20a820 	add	x0, x1, w0, sxth #2
    aa04:	d61f0000 	br	x0
    aa08:	aa1303e0 	mov	x0, x19
    aa0c:	528008a1 	mov	w1, #0x45                  	// #69
    aa10:	97fff974 	bl	8fe0 <_ZN9__gnu_cxx27__verbose_terminate_handlerEv@@Base+0x2640>
    aa14:	aa0003f6 	mov	x22, x0
    aa18:	17ffff25 	b	a6ac <_ZN9__gnu_cxx27__verbose_terminate_handlerEv@@Base+0x3d0c>
    aa1c:	d2800015 	mov	x21, #0x0                   	// #0
    aa20:	f9400680 	ldr	x0, [x20, #8]
    aa24:	f9400000 	ldr	x0, [x0]
    aa28:	39400401 	ldrb	w1, [x0, #1]
    aa2c:	71018c3f 	cmp	w1, #0x63
    aa30:	54000f40 	b.eq	ac18 <_ZN9__gnu_cxx27__verbose_terminate_handlerEv@@Base+0x4278>  // b.none
    aa34:	aa1303e0 	mov	x0, x19
    aa38:	94000685 	bl	c44c <_ZN9__gnu_cxx27__verbose_terminate_handlerEv@@Base+0x5aac>
    aa3c:	aa0003f7 	mov	x23, x0
    aa40:	d0000061 	adrp	x1, 18000 <_ZTSN10__cxxabiv117__class_type_infoE@@Base>
    aa44:	aa1503e0 	mov	x0, x21
    aa48:	91160021 	add	x1, x1, #0x580
    aa4c:	97ffe7f5 	bl	4a20 <strcmp@plt>
    aa50:	34000da0 	cbz	w0, ac04 <_ZN9__gnu_cxx27__verbose_terminate_handlerEv@@Base+0x4264>
    aa54:	d0000061 	adrp	x1, 18000 <_ZTSN10__cxxabiv117__class_type_infoE@@Base>
    aa58:	aa1503e0 	mov	x0, x21
    aa5c:	91162021 	add	x1, x1, #0x588
    aa60:	97ffe7f0 	bl	4a20 <strcmp@plt>
    aa64:	340000c0 	cbz	w0, aa7c <_ZN9__gnu_cxx27__verbose_terminate_handlerEv@@Base+0x40dc>
    aa68:	d0000061 	adrp	x1, 18000 <_ZTSN10__cxxabiv117__class_type_infoE@@Base>
    aa6c:	aa1503e0 	mov	x0, x21
    aa70:	91164021 	add	x1, x1, #0x590
    aa74:	97ffe7eb 	bl	4a20 <strcmp@plt>
    aa78:	35001840 	cbnz	w0, ad80 <_ZN9__gnu_cxx27__verbose_terminate_handlerEv@@Base+0x43e0>
    aa7c:	aa1303e0 	mov	x0, x19
    aa80:	94000198 	bl	b0e0 <_ZN9__gnu_cxx27__verbose_terminate_handlerEv@@Base+0x4740>
    aa84:	aa0003f5 	mov	x21, x0
    aa88:	f9400e60 	ldr	x0, [x19, #24]
    aa8c:	39400000 	ldrb	w0, [x0]
    aa90:	7101241f 	cmp	w0, #0x49
    aa94:	54000ee0 	b.eq	ac70 <_ZN9__gnu_cxx27__verbose_terminate_handlerEv@@Base+0x42d0>  // b.none
    aa98:	52800701 	mov	w1, #0x38                  	// #56
    aa9c:	aa1703e2 	mov	x2, x23
    aaa0:	aa1503e3 	mov	x3, x21
    aaa4:	aa1303e0 	mov	x0, x19
    aaa8:	97fff022 	bl	6b30 <_ZN9__gnu_cxx27__verbose_terminate_handlerEv@@Base+0x190>
    aaac:	aa0003e3 	mov	x3, x0
    aab0:	aa1403e2 	mov	x2, x20
    aab4:	aa1303e0 	mov	x0, x19
    aab8:	528006e1 	mov	w1, #0x37                  	// #55
    aabc:	97fff01d 	bl	6b30 <_ZN9__gnu_cxx27__verbose_terminate_handlerEv@@Base+0x190>
    aac0:	aa0003e2 	mov	x2, x0
    aac4:	17fffd4a 	b	9fec <_ZN9__gnu_cxx27__verbose_terminate_handlerEv@@Base+0x364c>
    aac8:	394002a0 	ldrb	w0, [x21]
    aacc:	7101b41f 	cmp	w0, #0x6d
    aad0:	54000060 	b.eq	aadc <_ZN9__gnu_cxx27__verbose_terminate_handlerEv@@Base+0x413c>  // b.none
    aad4:	7101c01f 	cmp	w0, #0x70
    aad8:	54ffa7a1 	b.ne	9fcc <_ZN9__gnu_cxx27__verbose_terminate_handlerEv@@Base+0x362c>  // b.any
    aadc:	394006a1 	ldrb	w1, [x21, #1]
    aae0:	6b00003f 	cmp	w1, w0
    aae4:	54ffa741 	b.ne	9fcc <_ZN9__gnu_cxx27__verbose_terminate_handlerEv@@Base+0x362c>  // b.any
    aae8:	f9400e60 	ldr	x0, [x19, #24]
    aaec:	39400001 	ldrb	w1, [x0]
    aaf0:	71017c3f 	cmp	w1, #0x5f
    aaf4:	54001540 	b.eq	ad9c <_ZN9__gnu_cxx27__verbose_terminate_handlerEv@@Base+0x43fc>  // b.none
    aaf8:	aa1303e0 	mov	x0, x19
    aafc:	94000654 	bl	c44c <_ZN9__gnu_cxx27__verbose_terminate_handlerEv@@Base+0x5aac>
    ab00:	aa0003e2 	mov	x2, x0
    ab04:	52800701 	mov	w1, #0x38                  	// #56
    ab08:	aa1303e0 	mov	x0, x19
    ab0c:	aa0203e3 	mov	x3, x2
    ab10:	97fff008 	bl	6b30 <_ZN9__gnu_cxx27__verbose_terminate_handlerEv@@Base+0x190>
    ab14:	aa0003e3 	mov	x3, x0
    ab18:	17fffd30 	b	9fd8 <_ZN9__gnu_cxx27__verbose_terminate_handlerEv@@Base+0x3638>
    ab1c:	d2800015 	mov	x21, #0x0                   	// #0
    ab20:	d0000061 	adrp	x1, 18000 <_ZTSN10__cxxabiv117__class_type_infoE@@Base>
    ab24:	aa1503e0 	mov	x0, x21
    ab28:	91166021 	add	x1, x1, #0x598
    ab2c:	97ffe7bd 	bl	4a20 <strcmp@plt>
    ab30:	340008e0 	cbz	w0, ac4c <_ZN9__gnu_cxx27__verbose_terminate_handlerEv@@Base+0x42ac>
    ab34:	394002a0 	ldrb	w0, [x21]
    ab38:	7101b81f 	cmp	w0, #0x6e
    ab3c:	54ffe621 	b.ne	a800 <_ZN9__gnu_cxx27__verbose_terminate_handlerEv@@Base+0x3e60>  // b.any
    ab40:	394006a0 	ldrb	w0, [x21, #1]
    ab44:	7101841f 	cmp	w0, #0x61
    ab48:	54000060 	b.eq	ab54 <_ZN9__gnu_cxx27__verbose_terminate_handlerEv@@Base+0x41b4>  // b.none
    ab4c:	7101dc1f 	cmp	w0, #0x77
    ab50:	54ffe581 	b.ne	a800 <_ZN9__gnu_cxx27__verbose_terminate_handlerEv@@Base+0x3e60>  // b.any
    ab54:	52800be1 	mov	w1, #0x5f                  	// #95
    ab58:	aa1303e0 	mov	x0, x19
    ab5c:	97fff921 	bl	8fe0 <_ZN9__gnu_cxx27__verbose_terminate_handlerEv@@Base+0x2640>
    ab60:	aa0003f5 	mov	x21, x0
    ab64:	aa1303e0 	mov	x0, x19
    ab68:	97fffaf3 	bl	9734 <_ZN9__gnu_cxx27__verbose_terminate_handlerEv@@Base+0x2d94>
    ab6c:	aa0003f7 	mov	x23, x0
    ab70:	f9400e60 	ldr	x0, [x19, #24]
    ab74:	39400001 	ldrb	w1, [x0]
    ab78:	7101143f 	cmp	w1, #0x45
    ab7c:	54001280 	b.eq	adcc <_ZN9__gnu_cxx27__verbose_terminate_handlerEv@@Base+0x442c>  // b.none
    ab80:	7101c03f 	cmp	w1, #0x70
    ab84:	54001120 	b.eq	ada8 <_ZN9__gnu_cxx27__verbose_terminate_handlerEv@@Base+0x4408>  // b.none
    ab88:	7101a43f 	cmp	w1, #0x69
    ab8c:	54ffe3a1 	b.ne	a800 <_ZN9__gnu_cxx27__verbose_terminate_handlerEv@@Base+0x3e60>  // b.any
    ab90:	39400400 	ldrb	w0, [x0, #1]
    ab94:	7101b01f 	cmp	w0, #0x6c
    ab98:	54ffe341 	b.ne	a800 <_ZN9__gnu_cxx27__verbose_terminate_handlerEv@@Base+0x3e60>  // b.any
    ab9c:	aa1303e0 	mov	x0, x19
    aba0:	9400062b 	bl	c44c <_ZN9__gnu_cxx27__verbose_terminate_handlerEv@@Base+0x5aac>
    aba4:	aa0003e3 	mov	x3, x0
    aba8:	52800761 	mov	w1, #0x3b                  	// #59
    abac:	aa1703e2 	mov	x2, x23
    abb0:	aa1303e0 	mov	x0, x19
    abb4:	97ffefdf 	bl	6b30 <_ZN9__gnu_cxx27__verbose_terminate_handlerEv@@Base+0x190>
    abb8:	aa0003e3 	mov	x3, x0
    abbc:	52800741 	mov	w1, #0x3a                  	// #58
    abc0:	aa1503e2 	mov	x2, x21
    abc4:	aa1303e0 	mov	x0, x19
    abc8:	97ffefda 	bl	6b30 <_ZN9__gnu_cxx27__verbose_terminate_handlerEv@@Base+0x190>
    abcc:	aa0003e3 	mov	x3, x0
    abd0:	aa1403e2 	mov	x2, x20
    abd4:	aa1303e0 	mov	x0, x19
    abd8:	52800721 	mov	w1, #0x39                  	// #57
    abdc:	97ffefd5 	bl	6b30 <_ZN9__gnu_cxx27__verbose_terminate_handlerEv@@Base+0x190>
    abe0:	aa0003e2 	mov	x2, x0
    abe4:	17fffd02 	b	9fec <_ZN9__gnu_cxx27__verbose_terminate_handlerEv@@Base+0x364c>
    abe8:	aa1403e2 	mov	x2, x20
    abec:	aa1303e0 	mov	x0, x19
    abf0:	528006a1 	mov	w1, #0x35                  	// #53
    abf4:	d2800003 	mov	x3, #0x0                   	// #0
    abf8:	97ffefce 	bl	6b30 <_ZN9__gnu_cxx27__verbose_terminate_handlerEv@@Base+0x190>
    abfc:	aa0003e2 	mov	x2, x0
    ac00:	17fffcfb 	b	9fec <_ZN9__gnu_cxx27__verbose_terminate_handlerEv@@Base+0x364c>
    ac04:	aa1303e0 	mov	x0, x19
    ac08:	528008a1 	mov	w1, #0x45                  	// #69
    ac0c:	97fff8f5 	bl	8fe0 <_ZN9__gnu_cxx27__verbose_terminate_handlerEv@@Base+0x2640>
    ac10:	aa0003f5 	mov	x21, x0
    ac14:	17ffffa1 	b	aa98 <_ZN9__gnu_cxx27__verbose_terminate_handlerEv@@Base+0x40f8>
    ac18:	39400000 	ldrb	w0, [x0]
    ac1c:	5101c801 	sub	w1, w0, #0x72
    ac20:	53001c21 	uxtb	w1, w1
    ac24:	7100043f 	cmp	w1, #0x1
    ac28:	540000a9 	b.ls	ac3c <_ZN9__gnu_cxx27__verbose_terminate_handlerEv@@Base+0x429c>  // b.plast
    ac2c:	51018c00 	sub	w0, w0, #0x63
    ac30:	53001c00 	uxtb	w0, w0
    ac34:	7100041f 	cmp	w0, #0x1
    ac38:	54ffefe8 	b.hi	aa34 <_ZN9__gnu_cxx27__verbose_terminate_handlerEv@@Base+0x4094>  // b.pmore
    ac3c:	aa1303e0 	mov	x0, x19
    ac40:	97fffabd 	bl	9734 <_ZN9__gnu_cxx27__verbose_terminate_handlerEv@@Base+0x2d94>
    ac44:	aa0003f7 	mov	x23, x0
    ac48:	17ffff7e 	b	aa40 <_ZN9__gnu_cxx27__verbose_terminate_handlerEv@@Base+0x40a0>
    ac4c:	aa1303e0 	mov	x0, x19
    ac50:	940005ff 	bl	c44c <_ZN9__gnu_cxx27__verbose_terminate_handlerEv@@Base+0x5aac>
    ac54:	aa0003f5 	mov	x21, x0
    ac58:	aa1303e0 	mov	x0, x19
    ac5c:	940005fc 	bl	c44c <_ZN9__gnu_cxx27__verbose_terminate_handlerEv@@Base+0x5aac>
    ac60:	aa0003f7 	mov	x23, x0
    ac64:	aa1303e0 	mov	x0, x19
    ac68:	940005f9 	bl	c44c <_ZN9__gnu_cxx27__verbose_terminate_handlerEv@@Base+0x5aac>
    ac6c:	17ffffce 	b	aba4 <_ZN9__gnu_cxx27__verbose_terminate_handlerEv@@Base+0x4204>
    ac70:	aa1303e0 	mov	x0, x19
    ac74:	97fff3a0 	bl	7af4 <_ZN9__gnu_cxx27__verbose_terminate_handlerEv@@Base+0x1154>
    ac78:	aa0003e3 	mov	x3, x0
    ac7c:	aa1503e2 	mov	x2, x21
    ac80:	aa1303e0 	mov	x0, x19
    ac84:	52800081 	mov	w1, #0x4                   	// #4
    ac88:	97ffefaa 	bl	6b30 <_ZN9__gnu_cxx27__verbose_terminate_handlerEv@@Base+0x190>
    ac8c:	aa0003f5 	mov	x21, x0
    ac90:	17ffff82 	b	aa98 <_ZN9__gnu_cxx27__verbose_terminate_handlerEv@@Base+0x40f8>
    ac94:	91000400 	add	x0, x0, #0x1
    ac98:	f9000e60 	str	x0, [x19, #24]
    ac9c:	17fffd53 	b	a1e8 <_ZN9__gnu_cxx27__verbose_terminate_handlerEv@@Base+0x3848>
    aca0:	aa1303e0 	mov	x0, x19
    aca4:	97fff394 	bl	7af4 <_ZN9__gnu_cxx27__verbose_terminate_handlerEv@@Base+0x1154>
    aca8:	aa0003e3 	mov	x3, x0
    acac:	aa1603e2 	mov	x2, x22
    acb0:	aa1303e0 	mov	x0, x19
    acb4:	52800081 	mov	w1, #0x4                   	// #4
    acb8:	97ffef9e 	bl	6b30 <_ZN9__gnu_cxx27__verbose_terminate_handlerEv@@Base+0x190>
    acbc:	aa0003f6 	mov	x22, x0
    acc0:	17fffe7b 	b	a6ac <_ZN9__gnu_cxx27__verbose_terminate_handlerEv@@Base+0x3d0c>
    acc4:	aa1303e0 	mov	x0, x19
    acc8:	97fffa9b 	bl	9734 <_ZN9__gnu_cxx27__verbose_terminate_handlerEv@@Base+0x2d94>
    accc:	aa0003e2 	mov	x2, x0
    acd0:	17fffed0 	b	a810 <_ZN9__gnu_cxx27__verbose_terminate_handlerEv@@Base+0x3e70>
    acd4:	aa1303e0 	mov	x0, x19
    acd8:	940005dd 	bl	c44c <_ZN9__gnu_cxx27__verbose_terminate_handlerEv@@Base+0x5aac>
    acdc:	aa0003f6 	mov	x22, x0
    ace0:	17fffe73 	b	a6ac <_ZN9__gnu_cxx27__verbose_terminate_handlerEv@@Base+0x3d0c>
    ace4:	39400401 	ldrb	w1, [x0, #1]
    ace8:	7101a43f 	cmp	w1, #0x69
    acec:	54ffbd41 	b.ne	a494 <_ZN9__gnu_cxx27__verbose_terminate_handlerEv@@Base+0x3af4>  // b.any
    acf0:	91000801 	add	x1, x0, #0x2
    acf4:	aa1303e0 	mov	x0, x19
    acf8:	f9000e61 	str	x1, [x19, #24]
    acfc:	528008a1 	mov	w1, #0x45                  	// #69
    ad00:	97fff8b8 	bl	8fe0 <_ZN9__gnu_cxx27__verbose_terminate_handlerEv@@Base+0x2640>
    ad04:	17fffe3a 	b	a5ec <_ZN9__gnu_cxx27__verbose_terminate_handlerEv@@Base+0x3c4c>
    ad08:	91000401 	add	x1, x0, #0x1
    ad0c:	d2800000 	mov	x0, #0x0                   	// #0
    ad10:	f9000e61 	str	x1, [x19, #24]
    ad14:	17fffe36 	b	a5ec <_ZN9__gnu_cxx27__verbose_terminate_handlerEv@@Base+0x3c4c>
    ad18:	91000401 	add	x1, x0, #0x1
    ad1c:	aa1303e0 	mov	x0, x19
    ad20:	f9000e61 	str	x1, [x19, #24]
    ad24:	528008a1 	mov	w1, #0x45                  	// #69
    ad28:	97fff8ae 	bl	8fe0 <_ZN9__gnu_cxx27__verbose_terminate_handlerEv@@Base+0x2640>
    ad2c:	aa0003e3 	mov	x3, x0
    ad30:	17fffd31 	b	a1f4 <_ZN9__gnu_cxx27__verbose_terminate_handlerEv@@Base+0x3854>
    ad34:	97fff370 	bl	7af4 <_ZN9__gnu_cxx27__verbose_terminate_handlerEv@@Base+0x1154>
    ad38:	aa0003e3 	mov	x3, x0
    ad3c:	52800081 	mov	w1, #0x4                   	// #4
    ad40:	aa1703e2 	mov	x2, x23
    ad44:	aa1303e0 	mov	x0, x19
    ad48:	97ffef7a 	bl	6b30 <_ZN9__gnu_cxx27__verbose_terminate_handlerEv@@Base+0x190>
    ad4c:	aa0003e3 	mov	x3, x0
    ad50:	aa1503e2 	mov	x2, x21
    ad54:	aa1303e0 	mov	x0, x19
    ad58:	2a1403e1 	mov	w1, w20
    ad5c:	97ffef75 	bl	6b30 <_ZN9__gnu_cxx27__verbose_terminate_handlerEv@@Base+0x190>
    ad60:	aa0003e2 	mov	x2, x0
    ad64:	17fffca2 	b	9fec <_ZN9__gnu_cxx27__verbose_terminate_handlerEv@@Base+0x364c>
    ad68:	91000401 	add	x1, x0, #0x1
    ad6c:	aa1303e0 	mov	x0, x19
    ad70:	f9000e61 	str	x1, [x19, #24]
    ad74:	528008a1 	mov	w1, #0x45                  	// #69
    ad78:	97fff89a 	bl	8fe0 <_ZN9__gnu_cxx27__verbose_terminate_handlerEv@@Base+0x2640>
    ad7c:	17ffff66 	b	ab14 <_ZN9__gnu_cxx27__verbose_terminate_handlerEv@@Base+0x4174>
    ad80:	aa1303e0 	mov	x0, x19
    ad84:	940005b2 	bl	c44c <_ZN9__gnu_cxx27__verbose_terminate_handlerEv@@Base+0x5aac>
    ad88:	aa0003f5 	mov	x21, x0
    ad8c:	17ffff43 	b	aa98 <_ZN9__gnu_cxx27__verbose_terminate_handlerEv@@Base+0x40f8>
    ad90:	aa1303e0 	mov	x0, x19
    ad94:	97fffa68 	bl	9734 <_ZN9__gnu_cxx27__verbose_terminate_handlerEv@@Base+0x2d94>
    ad98:	17ffff5f 	b	ab14 <_ZN9__gnu_cxx27__verbose_terminate_handlerEv@@Base+0x4174>
    ad9c:	91000400 	add	x0, x0, #0x1
    ada0:	f9000e60 	str	x0, [x19, #24]
    ada4:	17fffc8a 	b	9fcc <_ZN9__gnu_cxx27__verbose_terminate_handlerEv@@Base+0x362c>
    ada8:	39400401 	ldrb	w1, [x0, #1]
    adac:	7101a43f 	cmp	w1, #0x69
    adb0:	54ffd281 	b.ne	a800 <_ZN9__gnu_cxx27__verbose_terminate_handlerEv@@Base+0x3e60>  // b.any
    adb4:	91000801 	add	x1, x0, #0x2
    adb8:	aa1303e0 	mov	x0, x19
    adbc:	f9000e61 	str	x1, [x19, #24]
    adc0:	528008a1 	mov	w1, #0x45                  	// #69
    adc4:	97fff887 	bl	8fe0 <_ZN9__gnu_cxx27__verbose_terminate_handlerEv@@Base+0x2640>
    adc8:	17ffff77 	b	aba4 <_ZN9__gnu_cxx27__verbose_terminate_handlerEv@@Base+0x4204>
    adcc:	91000401 	add	x1, x0, #0x1
    add0:	d2800000 	mov	x0, #0x0                   	// #0
    add4:	f9000e61 	str	x1, [x19, #24]
    add8:	17ffff73 	b	aba4 <_ZN9__gnu_cxx27__verbose_terminate_handlerEv@@Base+0x4204>
    addc:	a9bd7bfd 	stp	x29, x30, [sp, #-48]!
    ade0:	910003fd 	mov	x29, sp
    ade4:	f9400c03 	ldr	x3, [x0, #24]
    ade8:	a90153f3 	stp	x19, x20, [sp, #16]
    adec:	f90017bf 	str	xzr, [x29, #40]
    adf0:	39400061 	ldrb	w1, [x3]
    adf4:	7101143f 	cmp	w1, #0x45
    adf8:	1a9f17e4 	cset	w4, eq	// eq = none
    adfc:	6b1f003f 	cmp	w1, wzr
    ae00:	1a9f17e2 	cset	w2, eq	// eq = none
    ae04:	2a020082 	orr	w2, w4, w2
    ae08:	35000462 	cbnz	w2, ae94 <_ZN9__gnu_cxx27__verbose_terminate_handlerEv@@Base+0x44f4>
    ae0c:	7100b83f 	cmp	w1, #0x2e
    ae10:	aa0003f3 	mov	x19, x0
    ae14:	9100a3b4 	add	x20, x29, #0x28
    ae18:	54000201 	b.ne	ae58 <_ZN9__gnu_cxx27__verbose_terminate_handlerEv@@Base+0x44b8>  // b.any
    ae1c:	1400001e 	b	ae94 <_ZN9__gnu_cxx27__verbose_terminate_handlerEv@@Base+0x44f4>
    ae20:	97ffef44 	bl	6b30 <_ZN9__gnu_cxx27__verbose_terminate_handlerEv@@Base+0x190>
    ae24:	f9000280 	str	x0, [x20]
    ae28:	91004014 	add	x20, x0, #0x10
    ae2c:	b4000340 	cbz	x0, ae94 <_ZN9__gnu_cxx27__verbose_terminate_handlerEv@@Base+0x44f4>
    ae30:	f9400e63 	ldr	x3, [x19, #24]
    ae34:	39400061 	ldrb	w1, [x3]
    ae38:	7101143f 	cmp	w1, #0x45
    ae3c:	1a9f17e0 	cset	w0, eq	// eq = none
    ae40:	6b1f003f 	cmp	w1, wzr
    ae44:	1a9f17e2 	cset	w2, eq	// eq = none
    ae48:	7100b83f 	cmp	w1, #0x2e
    ae4c:	2a020002 	orr	w2, w0, w2
    ae50:	350002a2 	cbnz	w2, aea4 <_ZN9__gnu_cxx27__verbose_terminate_handlerEv@@Base+0x4504>
    ae54:	54000280 	b.eq	aea4 <_ZN9__gnu_cxx27__verbose_terminate_handlerEv@@Base+0x4504>  // b.none
    ae58:	71013c3f 	cmp	w1, #0x4f
    ae5c:	aa1303e0 	mov	x0, x19
    ae60:	54000060 	b.eq	ae6c <_ZN9__gnu_cxx27__verbose_terminate_handlerEv@@Base+0x44cc>  // b.none
    ae64:	7101483f 	cmp	w1, #0x52
    ae68:	54000081 	b.ne	ae78 <_ZN9__gnu_cxx27__verbose_terminate_handlerEv@@Base+0x44d8>  // b.any
    ae6c:	39400461 	ldrb	w1, [x3, #1]
    ae70:	7101143f 	cmp	w1, #0x45
    ae74:	54000180 	b.eq	aea4 <_ZN9__gnu_cxx27__verbose_terminate_handlerEv@@Base+0x4504>  // b.none
    ae78:	97fffa2f 	bl	9734 <_ZN9__gnu_cxx27__verbose_terminate_handlerEv@@Base+0x2d94>
    ae7c:	aa0003e4 	mov	x4, x0
    ae80:	528005c1 	mov	w1, #0x2e                  	// #46
    ae84:	aa1303e0 	mov	x0, x19
    ae88:	aa0403e2 	mov	x2, x4
    ae8c:	d2800003 	mov	x3, #0x0                   	// #0
    ae90:	b5fffc84 	cbnz	x4, ae20 <_ZN9__gnu_cxx27__verbose_terminate_handlerEv@@Base+0x4480>
    ae94:	d2800000 	mov	x0, #0x0                   	// #0
    ae98:	a94153f3 	ldp	x19, x20, [sp, #16]
    ae9c:	a8c37bfd 	ldp	x29, x30, [sp], #48
    aea0:	d65f03c0 	ret
    aea4:	f94017a0 	ldr	x0, [x29, #40]
    aea8:	b4ffff60 	cbz	x0, ae94 <_ZN9__gnu_cxx27__verbose_terminate_handlerEv@@Base+0x44f4>
    aeac:	f9400801 	ldr	x1, [x0, #16]
    aeb0:	b5ffff41 	cbnz	x1, ae98 <_ZN9__gnu_cxx27__verbose_terminate_handlerEv@@Base+0x44f8>
    aeb4:	f9400401 	ldr	x1, [x0, #8]
    aeb8:	b9400022 	ldr	w2, [x1]
    aebc:	71009c5f 	cmp	w2, #0x27
    aec0:	54fffec1 	b.ne	ae98 <_ZN9__gnu_cxx27__verbose_terminate_handlerEv@@Base+0x44f8>  // b.any
    aec4:	f9400421 	ldr	x1, [x1, #8]
    aec8:	b9401c22 	ldr	w2, [x1, #28]
    aecc:	7100245f 	cmp	w2, #0x9
    aed0:	54fffe41 	b.ne	ae98 <_ZN9__gnu_cxx27__verbose_terminate_handlerEv@@Base+0x44f8>  // b.any
    aed4:	b9405262 	ldr	w2, [x19, #80]
    aed8:	b9400821 	ldr	w1, [x1, #8]
    aedc:	4b010041 	sub	w1, w2, w1
    aee0:	b9005261 	str	w1, [x19, #80]
    aee4:	f900041f 	str	xzr, [x0, #8]
    aee8:	17ffffec 	b	ae98 <_ZN9__gnu_cxx27__verbose_terminate_handlerEv@@Base+0x44f8>
    aeec:	a9be7bfd 	stp	x29, x30, [sp, #-32]!
    aef0:	aa0003e9 	mov	x9, x0
    aef4:	910003fd 	mov	x29, sp
    aef8:	f9400c01 	ldr	x1, [x0, #24]
    aefc:	a90153f3 	stp	x19, x20, [sp, #16]
    af00:	39400022 	ldrb	w2, [x1]
    af04:	35000442 	cbnz	w2, af8c <_ZN9__gnu_cxx27__verbose_terminate_handlerEv@@Base+0x45ec>
    af08:	52800008 	mov	w8, #0x0                   	// #0
    af0c:	52800006 	mov	w6, #0x0                   	// #0
    af10:	f0000105 	adrp	x5, 2d000 <__FINI_ARRAY__@@Base+0x360>
    af14:	528007a3 	mov	w3, #0x3d                  	// #61
    af18:	52800002 	mov	w2, #0x0                   	// #0
    af1c:	910be0a5 	add	x5, x5, #0x2f8
    af20:	4b020060 	sub	w0, w3, w2
    af24:	0b407c00 	add	w0, w0, w0, lsr #31
    af28:	0b800440 	add	w0, w2, w0, asr #1
    af2c:	93407c01 	sxtw	x1, w0
    af30:	d37be824 	lsl	x4, x1, #5
    af34:	cb010c81 	sub	x1, x4, x1, lsl #3
    af38:	8b0100a7 	add	x7, x5, x1
    af3c:	f86168a4 	ldr	x4, [x5, x1]
    af40:	39400081 	ldrb	w1, [x4]
    af44:	6b0100df 	cmp	w6, w1
    af48:	54000140 	b.eq	af70 <_ZN9__gnu_cxx27__verbose_terminate_handlerEv@@Base+0x45d0>  // b.none
    af4c:	6b06003f 	cmp	w1, w6
    af50:	540001a9 	b.ls	af84 <_ZN9__gnu_cxx27__verbose_terminate_handlerEv@@Base+0x45e4>  // b.plast
    af54:	2a0003e3 	mov	w3, w0
    af58:	6b03005f 	cmp	w2, w3
    af5c:	54fffe21 	b.ne	af20 <_ZN9__gnu_cxx27__verbose_terminate_handlerEv@@Base+0x4580>  // b.any
    af60:	d2800000 	mov	x0, #0x0                   	// #0
    af64:	a94153f3 	ldp	x19, x20, [sp, #16]
    af68:	a8c27bfd 	ldp	x29, x30, [sp], #32
    af6c:	d65f03c0 	ret
    af70:	39400481 	ldrb	w1, [x4, #1]
    af74:	6b01011f 	cmp	w8, w1
    af78:	540008c0 	b.eq	b090 <_ZN9__gnu_cxx27__verbose_terminate_handlerEv@@Base+0x46f0>  // b.none
    af7c:	6b08003f 	cmp	w1, w8
    af80:	54fffea8 	b.hi	af54 <_ZN9__gnu_cxx27__verbose_terminate_handlerEv@@Base+0x45b4>  // b.pmore
    af84:	11000402 	add	w2, w0, #0x1
    af88:	17fffff4 	b	af58 <_ZN9__gnu_cxx27__verbose_terminate_handlerEv@@Base+0x45b8>
    af8c:	91000422 	add	x2, x1, #0x1
    af90:	f9000c02 	str	x2, [x0, #24]
    af94:	39400422 	ldrb	w2, [x1, #1]
    af98:	39400026 	ldrb	w6, [x1]
    af9c:	35000062 	cbnz	w2, afa8 <_ZN9__gnu_cxx27__verbose_terminate_handlerEv@@Base+0x4608>
    afa0:	52800008 	mov	w8, #0x0                   	// #0
    afa4:	17ffffdb 	b	af10 <_ZN9__gnu_cxx27__verbose_terminate_handlerEv@@Base+0x4570>
    afa8:	91000822 	add	x2, x1, #0x2
    afac:	7101d8df 	cmp	w6, #0x76
    afb0:	f9000c02 	str	x2, [x0, #24]
    afb4:	aa0003f3 	mov	x19, x0
    afb8:	39400428 	ldrb	w8, [x1, #1]
    afbc:	540002c0 	b.eq	b014 <_ZN9__gnu_cxx27__verbose_terminate_handlerEv@@Base+0x4674>  // b.none
    afc0:	7101d91f 	cmp	w8, #0x76
    afc4:	54fffa61 	b.ne	af10 <_ZN9__gnu_cxx27__verbose_terminate_handlerEv@@Base+0x4570>  // b.any
    afc8:	71018cdf 	cmp	w6, #0x63
    afcc:	54fffa21 	b.ne	af10 <_ZN9__gnu_cxx27__verbose_terminate_handlerEv@@Base+0x4570>  // b.any
    afd0:	b9405401 	ldr	w1, [x0, #84]
    afd4:	b9405814 	ldr	w20, [x0, #88]
    afd8:	6b1f003f 	cmp	w1, wzr
    afdc:	1a9f17e1 	cset	w1, eq	// eq = none
    afe0:	b9005801 	str	w1, [x0, #88]
    afe4:	97fff9d4 	bl	9734 <_ZN9__gnu_cxx27__verbose_terminate_handlerEv@@Base+0x2d94>
    afe8:	aa0003e2 	mov	x2, x0
    afec:	b9405a60 	ldr	w0, [x19, #88]
    aff0:	34000440 	cbz	w0, b078 <_ZN9__gnu_cxx27__verbose_terminate_handlerEv@@Base+0x46d8>
    aff4:	aa1303e0 	mov	x0, x19
    aff8:	52800681 	mov	w1, #0x34                  	// #52
    affc:	d2800003 	mov	x3, #0x0                   	// #0
    b000:	97ffeecc 	bl	6b30 <_ZN9__gnu_cxx27__verbose_terminate_handlerEv@@Base+0x190>
    b004:	b9005a74 	str	w20, [x19, #88]
    b008:	a94153f3 	ldp	x19, x20, [sp, #16]
    b00c:	a8c27bfd 	ldp	x29, x30, [sp], #32
    b010:	d65f03c0 	ret
    b014:	5100c114 	sub	w20, w8, #0x30
    b018:	53001e81 	uxtb	w1, w20
    b01c:	7100243f 	cmp	w1, #0x9
    b020:	54fff788 	b.hi	af10 <_ZN9__gnu_cxx27__verbose_terminate_handlerEv@@Base+0x4570>  // b.pmore
    b024:	97fff1c8 	bl	7744 <_ZN9__gnu_cxx27__verbose_terminate_handlerEv@@Base+0xda4>
    b028:	aa0003e2 	mov	x2, x0
    b02c:	b9402e61 	ldr	w1, [x19, #44]
    b030:	b9402a60 	ldr	w0, [x19, #40]
    b034:	6b01001f 	cmp	w0, w1
    b038:	54fff94a 	b.ge	af60 <_ZN9__gnu_cxx27__verbose_terminate_handlerEv@@Base+0x45c0>  // b.tcont
    b03c:	93407c01 	sxtw	x1, w0
    b040:	f9401263 	ldr	x3, [x19, #32]
    b044:	d37be824 	lsl	x4, x1, #5
    b048:	11000400 	add	w0, w0, #0x1
    b04c:	b9002a60 	str	w0, [x19, #40]
    b050:	cb010c80 	sub	x0, x4, x1, lsl #3
    b054:	8b000061 	add	x1, x3, x0
    b058:	b4fff842 	cbz	x2, af60 <_ZN9__gnu_cxx27__verbose_terminate_handlerEv@@Base+0x45c0>
    b05c:	b4fff821 	cbz	x1, af60 <_ZN9__gnu_cxx27__verbose_terminate_handlerEv@@Base+0x45c0>
    b060:	52800644 	mov	w4, #0x32                  	// #50
    b064:	b8206864 	str	w4, [x3, x0]
    b068:	b9000834 	str	w20, [x1, #8]
    b06c:	aa0103e0 	mov	x0, x1
    b070:	f9000822 	str	x2, [x1, #16]
    b074:	17ffffbc 	b	af64 <_ZN9__gnu_cxx27__verbose_terminate_handlerEv@@Base+0x45c4>
    b078:	aa1303e0 	mov	x0, x19
    b07c:	52800661 	mov	w1, #0x33                  	// #51
    b080:	d2800003 	mov	x3, #0x0                   	// #0
    b084:	97ffeeab 	bl	6b30 <_ZN9__gnu_cxx27__verbose_terminate_handlerEv@@Base+0x190>
    b088:	b9005a74 	str	w20, [x19, #88]
    b08c:	17ffffdf 	b	b008 <_ZN9__gnu_cxx27__verbose_terminate_handlerEv@@Base+0x4668>
    b090:	b9402920 	ldr	w0, [x9, #40]
    b094:	b9402d21 	ldr	w1, [x9, #44]
    b098:	6b01001f 	cmp	w0, w1
    b09c:	54fff62a 	b.ge	af60 <_ZN9__gnu_cxx27__verbose_terminate_handlerEv@@Base+0x45c0>  // b.tcont
    b0a0:	93407c01 	sxtw	x1, w0
    b0a4:	f9401122 	ldr	x2, [x9, #32]
    b0a8:	d37be823 	lsl	x3, x1, #5
    b0ac:	11000400 	add	w0, w0, #0x1
    b0b0:	cb010c61 	sub	x1, x3, x1, lsl #3
    b0b4:	b9002920 	str	w0, [x9, #40]
    b0b8:	ab010043 	adds	x3, x2, x1
    b0bc:	d2800000 	mov	x0, #0x0                   	// #0
    b0c0:	54fff520 	b.eq	af64 <_ZN9__gnu_cxx27__verbose_terminate_handlerEv@@Base+0x45c4>  // b.none
    b0c4:	52800620 	mov	w0, #0x31                  	// #49
    b0c8:	b8216840 	str	w0, [x2, x1]
    b0cc:	f9000467 	str	x7, [x3, #8]
    b0d0:	aa0303e0 	mov	x0, x3
    b0d4:	a94153f3 	ldp	x19, x20, [sp, #16]
    b0d8:	a8c27bfd 	ldp	x29, x30, [sp], #32
    b0dc:	d65f03c0 	ret
    b0e0:	a9bd7bfd 	stp	x29, x30, [sp, #-48]!
    b0e4:	910003fd 	mov	x29, sp
    b0e8:	f9400c03 	ldr	x3, [x0, #24]
    b0ec:	a90153f3 	stp	x19, x20, [sp, #16]
    b0f0:	aa0003f3 	mov	x19, x0
    b0f4:	39400061 	ldrb	w1, [x3]
    b0f8:	5100c022 	sub	w2, w1, #0x30
    b0fc:	53001c42 	uxtb	w2, w2
    b100:	7100245f 	cmp	w2, #0x9
    b104:	540008e9 	b.ls	b220 <_ZN9__gnu_cxx27__verbose_terminate_handlerEv@@Base+0x4880>  // b.plast
    b108:	51018422 	sub	w2, w1, #0x61
    b10c:	53001c42 	uxtb	w2, w2
    b110:	7100645f 	cmp	w2, #0x19
    b114:	54000ae9 	b.ls	b270 <_ZN9__gnu_cxx27__verbose_terminate_handlerEv@@Base+0x48d0>  // b.plast
    b118:	51010c22 	sub	w2, w1, #0x43
    b11c:	53001c42 	uxtb	w2, w2
    b120:	7100045f 	cmp	w2, #0x1
    b124:	54000b89 	b.ls	b294 <_ZN9__gnu_cxx27__verbose_terminate_handlerEv@@Base+0x48f4>  // b.plast
    b128:	7101303f 	cmp	w1, #0x4c
    b12c:	54001580 	b.eq	b3dc <_ZN9__gnu_cxx27__verbose_terminate_handlerEv@@Base+0x4a3c>  // b.none
    b130:	7101543f 	cmp	w1, #0x55
    b134:	54000c41 	b.ne	b2bc <_ZN9__gnu_cxx27__verbose_terminate_handlerEv@@Base+0x491c>  // b.any
    b138:	39400461 	ldrb	w1, [x3, #1]
    b13c:	7101b03f 	cmp	w1, #0x6c
    b140:	54000c60 	b.eq	b2cc <_ZN9__gnu_cxx27__verbose_terminate_handlerEv@@Base+0x492c>  // b.none
    b144:	7101d03f 	cmp	w1, #0x74
    b148:	54000ba1 	b.ne	b2bc <_ZN9__gnu_cxx27__verbose_terminate_handlerEv@@Base+0x491c>  // b.any
    b14c:	91000461 	add	x1, x3, #0x1
    b150:	f9000c01 	str	x1, [x0, #24]
    b154:	39400464 	ldrb	w4, [x3, #1]
    b158:	7101d09f 	cmp	w4, #0x74
    b15c:	54001040 	b.eq	b364 <_ZN9__gnu_cxx27__verbose_terminate_handlerEv@@Base+0x49c4>  // b.none
    b160:	7101089f 	cmp	w4, #0x42
    b164:	d2800002 	mov	x2, #0x0                   	// #0
    b168:	aa0203e0 	mov	x0, x2
    b16c:	54000681 	b.ne	b23c <_ZN9__gnu_cxx27__verbose_terminate_handlerEv@@Base+0x489c>  // b.any
    b170:	91000420 	add	x0, x1, #0x1
    b174:	f9000e60 	str	x0, [x19, #24]
    b178:	52800005 	mov	w5, #0x0                   	// #0
    b17c:	39400423 	ldrb	w3, [x1, #1]
    b180:	7101b87f 	cmp	w3, #0x6e
    b184:	54000620 	b.eq	b248 <_ZN9__gnu_cxx27__verbose_terminate_handlerEv@@Base+0x48a8>  // b.none
    b188:	5100c060 	sub	w0, w3, #0x30
    b18c:	53001c00 	uxtb	w0, w0
    b190:	7100241f 	cmp	w0, #0x9
    b194:	540006a8 	b.hi	b268 <_ZN9__gnu_cxx27__verbose_terminate_handlerEv@@Base+0x48c8>  // b.pmore
    b198:	f9400e64 	ldr	x4, [x19, #24]
    b19c:	d2800001 	mov	x1, #0x0                   	// #0
    b1a0:	91000484 	add	x4, x4, #0x1
    b1a4:	f9000e64 	str	x4, [x19, #24]
    b1a8:	d37df020 	lsl	x0, x1, #3
    b1ac:	8b010401 	add	x1, x0, x1, lsl #1
    b1b0:	8b230021 	add	x1, x1, w3, uxtb
    b1b4:	38401483 	ldrb	w3, [x4], #1
    b1b8:	d100c021 	sub	x1, x1, #0x30
    b1bc:	5100c060 	sub	w0, w3, #0x30
    b1c0:	53001c00 	uxtb	w0, w0
    b1c4:	7100241f 	cmp	w0, #0x9
    b1c8:	54fffee9 	b.ls	b1a4 <_ZN9__gnu_cxx27__verbose_terminate_handlerEv@@Base+0x4804>  // b.plast
    b1cc:	eb1f003f 	cmp	x1, xzr
    b1d0:	540004cd 	b.le	b268 <_ZN9__gnu_cxx27__verbose_terminate_handlerEv@@Base+0x48c8>
    b1d4:	350004a5 	cbnz	w5, b268 <_ZN9__gnu_cxx27__verbose_terminate_handlerEv@@Base+0x48c8>
    b1d8:	aa1303e0 	mov	x0, x19
    b1dc:	f90017a2 	str	x2, [x29, #40]
    b1e0:	97fff0d1 	bl	7524 <_ZN9__gnu_cxx27__verbose_terminate_handlerEv@@Base+0xb84>
    b1e4:	aa0003e3 	mov	x3, x0
    b1e8:	f94017a2 	ldr	x2, [x29, #40]
    b1ec:	f9002660 	str	x0, [x19, #72]
    b1f0:	52800961 	mov	w1, #0x4b                  	// #75
    b1f4:	aa1303e0 	mov	x0, x19
    b1f8:	97ffee4e 	bl	6b30 <_ZN9__gnu_cxx27__verbose_terminate_handlerEv@@Base+0x190>
    b1fc:	aa0003e2 	mov	x2, x0
    b200:	f9400e61 	ldr	x1, [x19, #24]
    b204:	39400020 	ldrb	w0, [x1]
    b208:	7101081f 	cmp	w0, #0x42
    b20c:	54fffb20 	b.eq	b170 <_ZN9__gnu_cxx27__verbose_terminate_handlerEv@@Base+0x47d0>  // b.none
    b210:	a94153f3 	ldp	x19, x20, [sp, #16]
    b214:	aa0203e0 	mov	x0, x2
    b218:	a8c37bfd 	ldp	x29, x30, [sp], #48
    b21c:	d65f03c0 	ret
    b220:	97fff149 	bl	7744 <_ZN9__gnu_cxx27__verbose_terminate_handlerEv@@Base+0xda4>
    b224:	aa0003e2 	mov	x2, x0
    b228:	f9400e61 	ldr	x1, [x19, #24]
    b22c:	39400024 	ldrb	w4, [x1]
    b230:	7101089f 	cmp	w4, #0x42
    b234:	aa0203e0 	mov	x0, x2
    b238:	54fff9c0 	b.eq	b170 <_ZN9__gnu_cxx27__verbose_terminate_handlerEv@@Base+0x47d0>  // b.none
    b23c:	a94153f3 	ldp	x19, x20, [sp, #16]
    b240:	a8c37bfd 	ldp	x29, x30, [sp], #48
    b244:	d65f03c0 	ret
    b248:	91000820 	add	x0, x1, #0x2
    b24c:	f9000e60 	str	x0, [x19, #24]
    b250:	52800025 	mov	w5, #0x1                   	// #1
    b254:	39400823 	ldrb	w3, [x1, #2]
    b258:	5100c060 	sub	w0, w3, #0x30
    b25c:	53001c00 	uxtb	w0, w0
    b260:	7100241f 	cmp	w0, #0x9
    b264:	54fff9a9 	b.ls	b198 <_ZN9__gnu_cxx27__verbose_terminate_handlerEv@@Base+0x47f8>  // b.plast
    b268:	d2800003 	mov	x3, #0x0                   	// #0
    b26c:	17ffffe1 	b	b1f0 <_ZN9__gnu_cxx27__verbose_terminate_handlerEv@@Base+0x4850>
    b270:	97ffff1f 	bl	aeec <_ZN9__gnu_cxx27__verbose_terminate_handlerEv@@Base+0x454c>
    b274:	aa0003e2 	mov	x2, x0
    b278:	b4000080 	cbz	x0, b288 <_ZN9__gnu_cxx27__verbose_terminate_handlerEv@@Base+0x48e8>
    b27c:	b9400000 	ldr	w0, [x0]
    b280:	7100c41f 	cmp	w0, #0x31
    b284:	54000c40 	b.eq	b40c <_ZN9__gnu_cxx27__verbose_terminate_handlerEv@@Base+0x4a6c>  // b.none
    b288:	f9400e61 	ldr	x1, [x19, #24]
    b28c:	39400024 	ldrb	w4, [x1]
    b290:	17ffffe8 	b	b230 <_ZN9__gnu_cxx27__verbose_terminate_handlerEv@@Base+0x4890>
    b294:	f9402400 	ldr	x0, [x0, #72]
    b298:	b40000a0 	cbz	x0, b2ac <_ZN9__gnu_cxx27__verbose_terminate_handlerEv@@Base+0x490c>
    b29c:	b9400002 	ldr	w2, [x0]
    b2a0:	34000ec2 	cbz	w2, b478 <_ZN9__gnu_cxx27__verbose_terminate_handlerEv@@Base+0x4ad8>
    b2a4:	7100605f 	cmp	w2, #0x18
    b2a8:	54000e80 	b.eq	b478 <_ZN9__gnu_cxx27__verbose_terminate_handlerEv@@Base+0x4ad8>  // b.none
    b2ac:	71010c3f 	cmp	w1, #0x43
    b2b0:	54001800 	b.eq	b5b0 <_ZN9__gnu_cxx27__verbose_terminate_handlerEv@@Base+0x4c10>  // b.none
    b2b4:	7101103f 	cmp	w1, #0x44
    b2b8:	54000f20 	b.eq	b49c <_ZN9__gnu_cxx27__verbose_terminate_handlerEv@@Base+0x4afc>  // b.none
    b2bc:	a94153f3 	ldp	x19, x20, [sp, #16]
    b2c0:	d2800000 	mov	x0, #0x0                   	// #0
    b2c4:	a8c37bfd 	ldp	x29, x30, [sp], #48
    b2c8:	d65f03c0 	ret
    b2cc:	91000461 	add	x1, x3, #0x1
    b2d0:	f9000c01 	str	x1, [x0, #24]
    b2d4:	39400464 	ldrb	w4, [x3, #1]
    b2d8:	7101b09f 	cmp	w4, #0x6c
    b2dc:	54fff421 	b.ne	b160 <_ZN9__gnu_cxx27__verbose_terminate_handlerEv@@Base+0x47c0>  // b.any
    b2e0:	91000863 	add	x3, x3, #0x2
    b2e4:	f9000c03 	str	x3, [x0, #24]
    b2e8:	97fffebd 	bl	addc <_ZN9__gnu_cxx27__verbose_terminate_handlerEv@@Base+0x443c>
    b2ec:	aa0003f4 	mov	x20, x0
    b2f0:	f9400e61 	ldr	x1, [x19, #24]
    b2f4:	b4000bc0 	cbz	x0, b46c <_ZN9__gnu_cxx27__verbose_terminate_handlerEv@@Base+0x4acc>
    b2f8:	39400024 	ldrb	w4, [x1]
    b2fc:	7101149f 	cmp	w4, #0x45
    b300:	54fff301 	b.ne	b160 <_ZN9__gnu_cxx27__verbose_terminate_handlerEv@@Base+0x47c0>  // b.any
    b304:	91000420 	add	x0, x1, #0x1
    b308:	f9000e60 	str	x0, [x19, #24]
    b30c:	39400420 	ldrb	w0, [x1, #1]
    b310:	71017c1f 	cmp	w0, #0x5f
    b314:	54000d80 	b.eq	b4c4 <_ZN9__gnu_cxx27__verbose_terminate_handlerEv@@Base+0x4b24>  // b.none
    b318:	7101b81f 	cmp	w0, #0x6e
    b31c:	54fffd00 	b.eq	b2bc <_ZN9__gnu_cxx27__verbose_terminate_handlerEv@@Base+0x491c>  // b.none
    b320:	d2800002 	mov	x2, #0x0                   	// #0
    b324:	91006260 	add	x0, x19, #0x18
    b328:	f90017a2 	str	x2, [x29, #40]
    b32c:	97ffefae 	bl	71e4 <_ZN9__gnu_cxx27__verbose_terminate_handlerEv@@Base+0x844>
    b330:	f9400e61 	ldr	x1, [x19, #24]
    b334:	f94017a2 	ldr	x2, [x29, #40]
    b338:	39400024 	ldrb	w4, [x1]
    b33c:	71017c9f 	cmp	w4, #0x5f
    b340:	54fff781 	b.ne	b230 <_ZN9__gnu_cxx27__verbose_terminate_handlerEv@@Base+0x4890>  // b.any
    b344:	91000400 	add	x0, x0, #0x1
    b348:	91000423 	add	x3, x1, #0x1
    b34c:	f9000e63 	str	x3, [x19, #24]
    b350:	2a0003e5 	mov	w5, w0
    b354:	36f81840 	tbz	w0, #31, b65c <_ZN9__gnu_cxx27__verbose_terminate_handlerEv@@Base+0x4cbc>
    b358:	39400424 	ldrb	w4, [x1, #1]
    b35c:	aa0303e1 	mov	x1, x3
    b360:	17ffffb4 	b	b230 <_ZN9__gnu_cxx27__verbose_terminate_handlerEv@@Base+0x4890>
    b364:	91000863 	add	x3, x3, #0x2
    b368:	f9000c03 	str	x3, [x0, #24]
    b36c:	97fff120 	bl	77ec <_ZN9__gnu_cxx27__verbose_terminate_handlerEv@@Base+0xe4c>
    b370:	b7f807c0 	tbnz	x0, #63, b468 <_ZN9__gnu_cxx27__verbose_terminate_handlerEv@@Base+0x4ac8>
    b374:	b9402a62 	ldr	w2, [x19, #40]
    b378:	b9402e61 	ldr	w1, [x19, #44]
    b37c:	6b01005f 	cmp	w2, w1
    b380:	5400074a 	b.ge	b468 <_ZN9__gnu_cxx27__verbose_terminate_handlerEv@@Base+0x4ac8>  // b.tcont
    b384:	93407c41 	sxtw	x1, w2
    b388:	f9401263 	ldr	x3, [x19, #32]
    b38c:	d37be824 	lsl	x4, x1, #5
    b390:	11000442 	add	w2, w2, #0x1
    b394:	cb010c81 	sub	x1, x4, x1, lsl #3
    b398:	b9002a62 	str	w2, [x19, #40]
    b39c:	ab010062 	adds	x2, x3, x1
    b3a0:	54000640 	b.eq	b468 <_ZN9__gnu_cxx27__verbose_terminate_handlerEv@@Base+0x4ac8>  // b.none
    b3a4:	528008e4 	mov	w4, #0x47                  	// #71
    b3a8:	b8216864 	str	w4, [x3, x1]
    b3ac:	f9000440 	str	x0, [x2, #8]
    b3b0:	b9403a60 	ldr	w0, [x19, #56]
    b3b4:	b9403e61 	ldr	w1, [x19, #60]
    b3b8:	6b01001f 	cmp	w0, w1
    b3bc:	5400056a 	b.ge	b468 <_ZN9__gnu_cxx27__verbose_terminate_handlerEv@@Base+0x4ac8>  // b.tcont
    b3c0:	f9401a63 	ldr	x3, [x19, #48]
    b3c4:	11000401 	add	w1, w0, #0x1
    b3c8:	f820d862 	str	x2, [x3, w0, sxtw #3]
    b3cc:	b9003a61 	str	w1, [x19, #56]
    b3d0:	f9400e61 	ldr	x1, [x19, #24]
    b3d4:	39400024 	ldrb	w4, [x1]
    b3d8:	17ffff96 	b	b230 <_ZN9__gnu_cxx27__verbose_terminate_handlerEv@@Base+0x4890>
    b3dc:	91000463 	add	x3, x3, #0x1
    b3e0:	f9000c03 	str	x3, [x0, #24]
    b3e4:	97fff0d8 	bl	7744 <_ZN9__gnu_cxx27__verbose_terminate_handlerEv@@Base+0xda4>
    b3e8:	b4fff6a0 	cbz	x0, b2bc <_ZN9__gnu_cxx27__verbose_terminate_handlerEv@@Base+0x491c>
    b3ec:	f90017a0 	str	x0, [x29, #40]
    b3f0:	aa1303e0 	mov	x0, x19
    b3f4:	97fff121 	bl	7878 <_ZN9__gnu_cxx27__verbose_terminate_handlerEv@@Base+0xed8>
    b3f8:	34fff620 	cbz	w0, b2bc <_ZN9__gnu_cxx27__verbose_terminate_handlerEv@@Base+0x491c>
    b3fc:	f9400e61 	ldr	x1, [x19, #24]
    b400:	f94017a2 	ldr	x2, [x29, #40]
    b404:	39400024 	ldrb	w4, [x1]
    b408:	17ffff8a 	b	b230 <_ZN9__gnu_cxx27__verbose_terminate_handlerEv@@Base+0x4890>
    b40c:	f9400440 	ldr	x0, [x2, #8]
    b410:	b0000061 	adrp	x1, 18000 <_ZTSN10__cxxabiv117__class_type_infoE@@Base>
    b414:	b9405264 	ldr	w4, [x19, #80]
    b418:	9116a021 	add	x1, x1, #0x5a8
    b41c:	f90017a2 	str	x2, [x29, #40]
    b420:	b9401003 	ldr	w3, [x0, #16]
    b424:	f9400000 	ldr	x0, [x0]
    b428:	0b030083 	add	w3, w4, w3
    b42c:	11001c63 	add	w3, w3, #0x7
    b430:	b9005263 	str	w3, [x19, #80]
    b434:	97ffe57b 	bl	4a20 <strcmp@plt>
    b438:	f94017a2 	ldr	x2, [x29, #40]
    b43c:	35fff260 	cbnz	w0, b288 <_ZN9__gnu_cxx27__verbose_terminate_handlerEv@@Base+0x48e8>
    b440:	aa1303e0 	mov	x0, x19
    b444:	f90017a2 	str	x2, [x29, #40]
    b448:	97fff0bf 	bl	7744 <_ZN9__gnu_cxx27__verbose_terminate_handlerEv@@Base+0xda4>
    b44c:	aa0003e3 	mov	x3, x0
    b450:	f94017a2 	ldr	x2, [x29, #40]
    b454:	aa1303e0 	mov	x0, x19
    b458:	528006c1 	mov	w1, #0x36                  	// #54
    b45c:	97ffedb5 	bl	6b30 <_ZN9__gnu_cxx27__verbose_terminate_handlerEv@@Base+0x190>
    b460:	aa0003e2 	mov	x2, x0
    b464:	17ffff89 	b	b288 <_ZN9__gnu_cxx27__verbose_terminate_handlerEv@@Base+0x48e8>
    b468:	f9400e61 	ldr	x1, [x19, #24]
    b46c:	d2800002 	mov	x2, #0x0                   	// #0
    b470:	39400024 	ldrb	w4, [x1]
    b474:	17ffff6f 	b	b230 <_ZN9__gnu_cxx27__verbose_terminate_handlerEv@@Base+0x4890>
    b478:	b9405262 	ldr	w2, [x19, #80]
    b47c:	b9401001 	ldr	w1, [x0, #16]
    b480:	0b010041 	add	w1, w2, w1
    b484:	b9005261 	str	w1, [x19, #80]
    b488:	39400064 	ldrb	w4, [x3]
    b48c:	71010c9f 	cmp	w4, #0x43
    b490:	54000900 	b.eq	b5b0 <_ZN9__gnu_cxx27__verbose_terminate_handlerEv@@Base+0x4c10>  // b.none
    b494:	7101109f 	cmp	w4, #0x44
    b498:	54000861 	b.ne	b5a4 <_ZN9__gnu_cxx27__verbose_terminate_handlerEv@@Base+0x4c04>  // b.any
    b49c:	39400461 	ldrb	w1, [x3, #1]
    b4a0:	5100c021 	sub	w1, w1, #0x30
    b4a4:	7100143f 	cmp	w1, #0x5
    b4a8:	54fff0a8 	b.hi	b2bc <_ZN9__gnu_cxx27__verbose_terminate_handlerEv@@Base+0x491c>  // b.pmore
    b4ac:	b0000062 	adrp	x2, 18000 <_ZTSN10__cxxabiv117__class_type_infoE@@Base>
    b4b0:	910c7042 	add	x2, x2, #0x31c
    b4b4:	78615841 	ldrh	w1, [x2, w1, uxtw #1]
    b4b8:	10000062 	adr	x2, b4c4 <_ZN9__gnu_cxx27__verbose_terminate_handlerEv@@Base+0x4b24>
    b4bc:	8b21a841 	add	x1, x2, w1, sxth #2
    b4c0:	d61f0020 	br	x1
    b4c4:	91000821 	add	x1, x1, #0x2
    b4c8:	52800005 	mov	w5, #0x0                   	// #0
    b4cc:	f9000e61 	str	x1, [x19, #24]
    b4d0:	b9402a62 	ldr	w2, [x19, #40]
    b4d4:	b9402e60 	ldr	w0, [x19, #44]
    b4d8:	6b00005f 	cmp	w2, w0
    b4dc:	5400022a 	b.ge	b520 <_ZN9__gnu_cxx27__verbose_terminate_handlerEv@@Base+0x4b80>  // b.tcont
    b4e0:	93407c40 	sxtw	x0, w2
    b4e4:	f9401263 	ldr	x3, [x19, #32]
    b4e8:	d37be804 	lsl	x4, x0, #5
    b4ec:	11000442 	add	w2, w2, #0x1
    b4f0:	cb000c80 	sub	x0, x4, x0, lsl #3
    b4f4:	b9002a62 	str	w2, [x19, #40]
    b4f8:	ab000062 	adds	x2, x3, x0
    b4fc:	54000120 	b.eq	b520 <_ZN9__gnu_cxx27__verbose_terminate_handlerEv@@Base+0x4b80>  // b.none
    b500:	528008a4 	mov	w4, #0x45                  	// #69
    b504:	b8206864 	str	w4, [x3, x0]
    b508:	f9000454 	str	x20, [x2, #8]
    b50c:	b9001045 	str	w5, [x2, #16]
    b510:	b9403a60 	ldr	w0, [x19, #56]
    b514:	b9403e63 	ldr	w3, [x19, #60]
    b518:	6b03001f 	cmp	w0, w3
    b51c:	54fff52b 	b.lt	b3c0 <_ZN9__gnu_cxx27__verbose_terminate_handlerEv@@Base+0x4a20>  // b.tstop
    b520:	39400024 	ldrb	w4, [x1]
    b524:	d2800002 	mov	x2, #0x0                   	// #0
    b528:	17ffff42 	b	b230 <_ZN9__gnu_cxx27__verbose_terminate_handlerEv@@Base+0x4890>
    b52c:	528000a5 	mov	w5, #0x5                   	// #5
    b530:	b9402a62 	ldr	w2, [x19, #40]
    b534:	91000861 	add	x1, x3, #0x2
    b538:	b9402e64 	ldr	w4, [x19, #44]
    b53c:	f9000e61 	str	x1, [x19, #24]
    b540:	6b04005f 	cmp	w2, w4
    b544:	5400086a 	b.ge	b650 <_ZN9__gnu_cxx27__verbose_terminate_handlerEv@@Base+0x4cb0>  // b.tcont
    b548:	93407c44 	sxtw	x4, w2
    b54c:	f9401266 	ldr	x6, [x19, #32]
    b550:	d37be887 	lsl	x7, x4, #5
    b554:	11000442 	add	w2, w2, #0x1
    b558:	cb040ce4 	sub	x4, x7, x4, lsl #3
    b55c:	b9002a62 	str	w2, [x19, #40]
    b560:	ab0400c2 	adds	x2, x6, x4
    b564:	54000760 	b.eq	b650 <_ZN9__gnu_cxx27__verbose_terminate_handlerEv@@Base+0x4cb0>  // b.none
    b568:	b4000740 	cbz	x0, b650 <_ZN9__gnu_cxx27__verbose_terminate_handlerEv@@Base+0x4cb0>
    b56c:	52800107 	mov	w7, #0x8                   	// #8
    b570:	b82468c7 	str	w7, [x6, x4]
    b574:	b9000845 	str	w5, [x2, #8]
    b578:	f9000840 	str	x0, [x2, #16]
    b57c:	39400864 	ldrb	w4, [x3, #2]
    b580:	17ffff2c 	b	b230 <_ZN9__gnu_cxx27__verbose_terminate_handlerEv@@Base+0x4890>
    b584:	52800085 	mov	w5, #0x4                   	// #4
    b588:	17ffffea 	b	b530 <_ZN9__gnu_cxx27__verbose_terminate_handlerEv@@Base+0x4b90>
    b58c:	52800065 	mov	w5, #0x3                   	// #3
    b590:	17ffffe8 	b	b530 <_ZN9__gnu_cxx27__verbose_terminate_handlerEv@@Base+0x4b90>
    b594:	52800045 	mov	w5, #0x2                   	// #2
    b598:	17ffffe6 	b	b530 <_ZN9__gnu_cxx27__verbose_terminate_handlerEv@@Base+0x4b90>
    b59c:	52800025 	mov	w5, #0x1                   	// #1
    b5a0:	17ffffe4 	b	b530 <_ZN9__gnu_cxx27__verbose_terminate_handlerEv@@Base+0x4b90>
    b5a4:	aa0303e1 	mov	x1, x3
    b5a8:	d2800002 	mov	x2, #0x0                   	// #0
    b5ac:	17ffff21 	b	b230 <_ZN9__gnu_cxx27__verbose_terminate_handlerEv@@Base+0x4890>
    b5b0:	39400461 	ldrb	w1, [x3, #1]
    b5b4:	5100c421 	sub	w1, w1, #0x31
    b5b8:	7100103f 	cmp	w1, #0x4
    b5bc:	54ffe808 	b.hi	b2bc <_ZN9__gnu_cxx27__verbose_terminate_handlerEv@@Base+0x491c>  // b.pmore
    b5c0:	b0000062 	adrp	x2, 18000 <_ZTSN10__cxxabiv117__class_type_infoE@@Base>
    b5c4:	910ca042 	add	x2, x2, #0x328
    b5c8:	38614841 	ldrb	w1, [x2, w1, uxtw]
    b5cc:	10000062 	adr	x2, b5d8 <_ZN9__gnu_cxx27__verbose_terminate_handlerEv@@Base+0x4c38>
    b5d0:	8b218841 	add	x1, x2, w1, sxtb #2
    b5d4:	d61f0020 	br	x1
    b5d8:	52800025 	mov	w5, #0x1                   	// #1
    b5dc:	b9402a62 	ldr	w2, [x19, #40]
    b5e0:	91000861 	add	x1, x3, #0x2
    b5e4:	b9402e64 	ldr	w4, [x19, #44]
    b5e8:	f9000e61 	str	x1, [x19, #24]
    b5ec:	6b04005f 	cmp	w2, w4
    b5f0:	5400030a 	b.ge	b650 <_ZN9__gnu_cxx27__verbose_terminate_handlerEv@@Base+0x4cb0>  // b.tcont
    b5f4:	93407c44 	sxtw	x4, w2
    b5f8:	f9401266 	ldr	x6, [x19, #32]
    b5fc:	d37be887 	lsl	x7, x4, #5
    b600:	11000442 	add	w2, w2, #0x1
    b604:	cb040ce4 	sub	x4, x7, x4, lsl #3
    b608:	b9002a62 	str	w2, [x19, #40]
    b60c:	ab0400c2 	adds	x2, x6, x4
    b610:	54000200 	b.eq	b650 <_ZN9__gnu_cxx27__verbose_terminate_handlerEv@@Base+0x4cb0>  // b.none
    b614:	b40001e0 	cbz	x0, b650 <_ZN9__gnu_cxx27__verbose_terminate_handlerEv@@Base+0x4cb0>
    b618:	528000e7 	mov	w7, #0x7                   	// #7
    b61c:	b82468c7 	str	w7, [x6, x4]
    b620:	b9000845 	str	w5, [x2, #8]
    b624:	f9000840 	str	x0, [x2, #16]
    b628:	39400864 	ldrb	w4, [x3, #2]
    b62c:	17ffff01 	b	b230 <_ZN9__gnu_cxx27__verbose_terminate_handlerEv@@Base+0x4890>
    b630:	528000a5 	mov	w5, #0x5                   	// #5
    b634:	17ffffea 	b	b5dc <_ZN9__gnu_cxx27__verbose_terminate_handlerEv@@Base+0x4c3c>
    b638:	52800085 	mov	w5, #0x4                   	// #4
    b63c:	17ffffe8 	b	b5dc <_ZN9__gnu_cxx27__verbose_terminate_handlerEv@@Base+0x4c3c>
    b640:	52800065 	mov	w5, #0x3                   	// #3
    b644:	17ffffe6 	b	b5dc <_ZN9__gnu_cxx27__verbose_terminate_handlerEv@@Base+0x4c3c>
    b648:	52800045 	mov	w5, #0x2                   	// #2
    b64c:	17ffffe4 	b	b5dc <_ZN9__gnu_cxx27__verbose_terminate_handlerEv@@Base+0x4c3c>
    b650:	39400864 	ldrb	w4, [x3, #2]
    b654:	d2800002 	mov	x2, #0x0                   	// #0
    b658:	17fffef6 	b	b230 <_ZN9__gnu_cxx27__verbose_terminate_handlerEv@@Base+0x4890>
    b65c:	aa0303e1 	mov	x1, x3
    b660:	17ffff9c 	b	b4d0 <_ZN9__gnu_cxx27__verbose_terminate_handlerEv@@Base+0x4b30>
    b664:	a9ba7bfd 	stp	x29, x30, [sp, #-96]!
    b668:	910003fd 	mov	x29, sp
    b66c:	f9400c03 	ldr	x3, [x0, #24]
    b670:	a90153f3 	stp	x19, x20, [sp, #16]
    b674:	a9025bf5 	stp	x21, x22, [sp, #32]
    b678:	f9001bf7 	str	x23, [sp, #48]
    b67c:	aa0003f4 	mov	x20, x0
    b680:	39400060 	ldrb	w0, [x3]
    b684:	51013800 	sub	w0, w0, #0x4e
    b688:	7100301f 	cmp	w0, #0xc
    b68c:	540001c9 	b.ls	b6c4 <_ZN9__gnu_cxx27__verbose_terminate_handlerEv@@Base+0x4d24>  // b.plast
    b690:	aa1403e0 	mov	x0, x20
    b694:	97fffe93 	bl	b0e0 <_ZN9__gnu_cxx27__verbose_terminate_handlerEv@@Base+0x4740>
    b698:	aa0003f3 	mov	x19, x0
    b69c:	f9400e81 	ldr	x1, [x20, #24]
    b6a0:	39400020 	ldrb	w0, [x1]
    b6a4:	7101241f 	cmp	w0, #0x49
    b6a8:	54001660 	b.eq	b974 <_ZN9__gnu_cxx27__verbose_terminate_handlerEv@@Base+0x4fd4>  // b.none
    b6ac:	aa1303e0 	mov	x0, x19
    b6b0:	f9401bf7 	ldr	x23, [sp, #48]
    b6b4:	a94153f3 	ldp	x19, x20, [sp, #16]
    b6b8:	a9425bf5 	ldp	x21, x22, [sp, #32]
    b6bc:	a8c67bfd 	ldp	x29, x30, [sp], #96
    b6c0:	d65f03c0 	ret
    b6c4:	b0000061 	adrp	x1, 18000 <_ZTSN10__cxxabiv117__class_type_infoE@@Base>
    b6c8:	910cc021 	add	x1, x1, #0x330
    b6cc:	38604820 	ldrb	w0, [x1, w0, uxtw]
    b6d0:	10000061 	adr	x1, b6dc <_ZN9__gnu_cxx27__verbose_terminate_handlerEv@@Base+0x4d3c>
    b6d4:	8b208820 	add	x0, x1, w0, sxtb #2
    b6d8:	d61f0000 	br	x0
    b6dc:	91000463 	add	x3, x3, #0x1
    b6e0:	52800001 	mov	w1, #0x0                   	// #0
    b6e4:	aa1403e0 	mov	x0, x20
    b6e8:	f9000e83 	str	x3, [x20, #24]
    b6ec:	94000149 	bl	bc10 <_ZN9__gnu_cxx27__verbose_terminate_handlerEv@@Base+0x5270>
    b6f0:	aa0003f5 	mov	x21, x0
    b6f4:	f9400e80 	ldr	x0, [x20, #24]
    b6f8:	39400001 	ldrb	w1, [x0]
    b6fc:	7101143f 	cmp	w1, #0x45
    b700:	54000b60 	b.eq	b86c <_ZN9__gnu_cxx27__verbose_terminate_handlerEv@@Base+0x4ecc>  // b.none
    b704:	d2800013 	mov	x19, #0x0                   	// #0
    b708:	aa1303e0 	mov	x0, x19
    b70c:	f9401bf7 	ldr	x23, [sp, #48]
    b710:	a94153f3 	ldp	x19, x20, [sp, #16]
    b714:	a9425bf5 	ldp	x21, x22, [sp, #32]
    b718:	a8c67bfd 	ldp	x29, x30, [sp], #96
    b71c:	d65f03c0 	ret
    b720:	aa1403e0 	mov	x0, x20
    b724:	97fffe6f 	bl	b0e0 <_ZN9__gnu_cxx27__verbose_terminate_handlerEv@@Base+0x4740>
    b728:	aa0003f3 	mov	x19, x0
    b72c:	aa1303e0 	mov	x0, x19
    b730:	f9401bf7 	ldr	x23, [sp, #48]
    b734:	a94153f3 	ldp	x19, x20, [sp, #16]
    b738:	a9425bf5 	ldp	x21, x22, [sp, #32]
    b73c:	a8c67bfd 	ldp	x29, x30, [sp], #96
    b740:	d65f03c0 	ret
    b744:	39400460 	ldrb	w0, [x3, #1]
    b748:	7101d01f 	cmp	w0, #0x74
    b74c:	54000d00 	b.eq	b8ec <_ZN9__gnu_cxx27__verbose_terminate_handlerEv@@Base+0x4f4c>  // b.none
    b750:	aa1403e0 	mov	x0, x20
    b754:	52800001 	mov	w1, #0x0                   	// #0
    b758:	97ffeda2 	bl	6de0 <_ZN9__gnu_cxx27__verbose_terminate_handlerEv@@Base+0x440>
    b75c:	aa0003e2 	mov	x2, x0
    b760:	f9400e80 	ldr	x0, [x20, #24]
    b764:	aa0203f3 	mov	x19, x2
    b768:	39400000 	ldrb	w0, [x0]
    b76c:	7101241f 	cmp	w0, #0x49
    b770:	54fff9e1 	b.ne	b6ac <_ZN9__gnu_cxx27__verbose_terminate_handlerEv@@Base+0x4d0c>  // b.any
    b774:	aa1403e0 	mov	x0, x20
    b778:	f90027a2 	str	x2, [x29, #72]
    b77c:	97fff0de 	bl	7af4 <_ZN9__gnu_cxx27__verbose_terminate_handlerEv@@Base+0x1154>
    b780:	aa0003e3 	mov	x3, x0
    b784:	f94027a2 	ldr	x2, [x29, #72]
    b788:	aa1403e0 	mov	x0, x20
    b78c:	52800081 	mov	w1, #0x4                   	// #4
    b790:	97ffece8 	bl	6b30 <_ZN9__gnu_cxx27__verbose_terminate_handlerEv@@Base+0x190>
    b794:	aa0003f3 	mov	x19, x0
    b798:	17ffffc5 	b	b6ac <_ZN9__gnu_cxx27__verbose_terminate_handlerEv@@Base+0x4d0c>
    b79c:	91000463 	add	x3, x3, #0x1
    b7a0:	aa1403e0 	mov	x0, x20
    b7a4:	f9000e83 	str	x3, [x20, #24]
    b7a8:	910163a1 	add	x1, x29, #0x58
    b7ac:	52800022 	mov	w2, #0x1                   	// #1
    b7b0:	97ffed20 	bl	6c30 <_ZN9__gnu_cxx27__verbose_terminate_handlerEv@@Base+0x290>
    b7b4:	aa0003f6 	mov	x22, x0
    b7b8:	b4fffa60 	cbz	x0, b704 <_ZN9__gnu_cxx27__verbose_terminate_handlerEv@@Base+0x4d64>
    b7bc:	f9400e80 	ldr	x0, [x20, #24]
    b7c0:	39400013 	ldrb	w19, [x0]
    b7c4:	71014a7f 	cmp	w19, #0x52
    b7c8:	1a9f17e1 	cset	w1, eq	// eq = none
    b7cc:	71013e7f 	cmp	w19, #0x4f
    b7d0:	54001960 	b.eq	bafc <_ZN9__gnu_cxx27__verbose_terminate_handlerEv@@Base+0x515c>  // b.none
    b7d4:	d2800017 	mov	x23, #0x0                   	// #0
    b7d8:	35001741 	cbnz	w1, bac0 <_ZN9__gnu_cxx27__verbose_terminate_handlerEv@@Base+0x5120>
    b7dc:	d2800015 	mov	x21, #0x0                   	// #0
    b7e0:	34001453 	cbz	w19, ba68 <_ZN9__gnu_cxx27__verbose_terminate_handlerEv@@Base+0x50c8>
    b7e4:	7101127f 	cmp	w19, #0x44
    b7e8:	54001240 	b.eq	ba30 <_ZN9__gnu_cxx27__verbose_terminate_handlerEv@@Base+0x5090>  // b.none
    b7ec:	5100c261 	sub	w1, w19, #0x30
    b7f0:	53001c21 	uxtb	w1, w1
    b7f4:	7100243f 	cmp	w1, #0x9
    b7f8:	54000e29 	b.ls	b9bc <_ZN9__gnu_cxx27__verbose_terminate_handlerEv@@Base+0x501c>  // b.plast
    b7fc:	51018661 	sub	w1, w19, #0x61
    b800:	53001c21 	uxtb	w1, w1
    b804:	7100643f 	cmp	w1, #0x19
    b808:	54000da9 	b.ls	b9bc <_ZN9__gnu_cxx27__verbose_terminate_handlerEv@@Base+0x501c>  // b.plast
    b80c:	71010e7f 	cmp	w19, #0x43
    b810:	1a9f17e2 	cset	w2, eq	// eq = none
    b814:	7101567f 	cmp	w19, #0x55
    b818:	1a9f17e1 	cset	w1, eq	// eq = none
    b81c:	2a010041 	orr	w1, w2, w1
    b820:	35000ce1 	cbnz	w1, b9bc <_ZN9__gnu_cxx27__verbose_terminate_handlerEv@@Base+0x501c>
    b824:	7101327f 	cmp	w19, #0x4c
    b828:	54000ca0 	b.eq	b9bc <_ZN9__gnu_cxx27__verbose_terminate_handlerEv@@Base+0x501c>  // b.none
    b82c:	71014e7f 	cmp	w19, #0x53
    b830:	540012e0 	b.eq	ba8c <_ZN9__gnu_cxx27__verbose_terminate_handlerEv@@Base+0x50ec>  // b.none
    b834:	7101267f 	cmp	w19, #0x49
    b838:	540011e0 	b.eq	ba74 <_ZN9__gnu_cxx27__verbose_terminate_handlerEv@@Base+0x50d4>  // b.none
    b83c:	7101527f 	cmp	w19, #0x54
    b840:	54001380 	b.eq	bab0 <_ZN9__gnu_cxx27__verbose_terminate_handlerEv@@Base+0x5110>  // b.none
    b844:	7101167f 	cmp	w19, #0x45
    b848:	54001c80 	b.eq	bbd8 <_ZN9__gnu_cxx27__verbose_terminate_handlerEv@@Base+0x5238>  // b.none
    b84c:	7101367f 	cmp	w19, #0x4d
    b850:	540010c1 	b.ne	ba68 <_ZN9__gnu_cxx27__verbose_terminate_handlerEv@@Base+0x50c8>  // b.any
    b854:	b40010b5 	cbz	x21, ba68 <_ZN9__gnu_cxx27__verbose_terminate_handlerEv@@Base+0x50c8>
    b858:	91000401 	add	x1, x0, #0x1
    b85c:	f9000e81 	str	x1, [x20, #24]
    b860:	39400413 	ldrb	w19, [x0, #1]
    b864:	aa0103e0 	mov	x0, x1
    b868:	17ffffde 	b	b7e0 <_ZN9__gnu_cxx27__verbose_terminate_handlerEv@@Base+0x4e40>
    b86c:	91000401 	add	x1, x0, #0x1
    b870:	f9000e81 	str	x1, [x20, #24]
    b874:	39400401 	ldrb	w1, [x0, #1]
    b878:	7101cc3f 	cmp	w1, #0x73
    b87c:	54001960 	b.eq	bba8 <_ZN9__gnu_cxx27__verbose_terminate_handlerEv@@Base+0x5208>  // b.none
    b880:	7101903f 	cmp	w1, #0x64
    b884:	54001460 	b.eq	bb10 <_ZN9__gnu_cxx27__verbose_terminate_handlerEv@@Base+0x5170>  // b.none
    b888:	aa1403e0 	mov	x0, x20
    b88c:	97ffff76 	bl	b664 <_ZN9__gnu_cxx27__verbose_terminate_handlerEv@@Base+0x4cc4>
    b890:	aa0003e3 	mov	x3, x0
    b894:	b4000160 	cbz	x0, b8c0 <_ZN9__gnu_cxx27__verbose_terminate_handlerEv@@Base+0x4f20>
    b898:	b9400000 	ldr	w0, [x0]
    b89c:	7101141f 	cmp	w0, #0x45
    b8a0:	54000100 	b.eq	b8c0 <_ZN9__gnu_cxx27__verbose_terminate_handlerEv@@Base+0x4f20>  // b.none
    b8a4:	71011c1f 	cmp	w0, #0x47
    b8a8:	540000c0 	b.eq	b8c0 <_ZN9__gnu_cxx27__verbose_terminate_handlerEv@@Base+0x4f20>  // b.none
    b8ac:	aa1403e0 	mov	x0, x20
    b8b0:	f90027a3 	str	x3, [x29, #72]
    b8b4:	97ffeff1 	bl	7878 <_ZN9__gnu_cxx27__verbose_terminate_handlerEv@@Base+0xed8>
    b8b8:	f94027a3 	ldr	x3, [x29, #72]
    b8bc:	34fff240 	cbz	w0, b704 <_ZN9__gnu_cxx27__verbose_terminate_handlerEv@@Base+0x4d64>
    b8c0:	aa1503e2 	mov	x2, x21
    b8c4:	aa1403e0 	mov	x0, x20
    b8c8:	52800041 	mov	w1, #0x2                   	// #2
    b8cc:	97ffec99 	bl	6b30 <_ZN9__gnu_cxx27__verbose_terminate_handlerEv@@Base+0x190>
    b8d0:	aa0003f3 	mov	x19, x0
    b8d4:	aa1303e0 	mov	x0, x19
    b8d8:	f9401bf7 	ldr	x23, [sp, #48]
    b8dc:	a94153f3 	ldp	x19, x20, [sp, #16]
    b8e0:	a9425bf5 	ldp	x21, x22, [sp, #32]
    b8e4:	a8c67bfd 	ldp	x29, x30, [sp], #96
    b8e8:	d65f03c0 	ret
    b8ec:	b0000061 	adrp	x1, 18000 <_ZTSN10__cxxabiv117__class_type_infoE@@Base>
    b8f0:	91000863 	add	x3, x3, #0x2
    b8f4:	52800062 	mov	w2, #0x3                   	// #3
    b8f8:	91170021 	add	x1, x1, #0x5c0
    b8fc:	f9000e83 	str	x3, [x20, #24]
    b900:	aa1403e0 	mov	x0, x20
    b904:	97ffecb3 	bl	6bd0 <_ZN9__gnu_cxx27__verbose_terminate_handlerEv@@Base+0x230>
    b908:	f90027a0 	str	x0, [x29, #72]
    b90c:	aa1403e0 	mov	x0, x20
    b910:	97fffdf4 	bl	b0e0 <_ZN9__gnu_cxx27__verbose_terminate_handlerEv@@Base+0x4740>
    b914:	aa0003e3 	mov	x3, x0
    b918:	f94027a2 	ldr	x2, [x29, #72]
    b91c:	52800021 	mov	w1, #0x1                   	// #1
    b920:	aa1403e0 	mov	x0, x20
    b924:	97ffec83 	bl	6b30 <_ZN9__gnu_cxx27__verbose_terminate_handlerEv@@Base+0x190>
    b928:	aa0003e2 	mov	x2, x0
    b92c:	b9405280 	ldr	w0, [x20, #80]
    b930:	aa0203f3 	mov	x19, x2
    b934:	f9400e81 	ldr	x1, [x20, #24]
    b938:	11000c00 	add	w0, w0, #0x3
    b93c:	b9005280 	str	w0, [x20, #80]
    b940:	39400020 	ldrb	w0, [x1]
    b944:	7101241f 	cmp	w0, #0x49
    b948:	54ffeb21 	b.ne	b6ac <_ZN9__gnu_cxx27__verbose_terminate_handlerEv@@Base+0x4d0c>  // b.any
    b94c:	b4ffedc2 	cbz	x2, b704 <_ZN9__gnu_cxx27__verbose_terminate_handlerEv@@Base+0x4d64>
    b950:	b9403a80 	ldr	w0, [x20, #56]
    b954:	b9403e81 	ldr	w1, [x20, #60]
    b958:	6b01001f 	cmp	w0, w1
    b95c:	54ffed4a 	b.ge	b704 <_ZN9__gnu_cxx27__verbose_terminate_handlerEv@@Base+0x4d64>  // b.tcont
    b960:	f9401a83 	ldr	x3, [x20, #48]
    b964:	11000401 	add	w1, w0, #0x1
    b968:	f820d862 	str	x2, [x3, w0, sxtw #3]
    b96c:	b9003a81 	str	w1, [x20, #56]
    b970:	17ffff81 	b	b774 <_ZN9__gnu_cxx27__verbose_terminate_handlerEv@@Base+0x4dd4>
    b974:	b4ffec93 	cbz	x19, b704 <_ZN9__gnu_cxx27__verbose_terminate_handlerEv@@Base+0x4d64>
    b978:	b9403a81 	ldr	w1, [x20, #56]
    b97c:	b9403e80 	ldr	w0, [x20, #60]
    b980:	6b00003f 	cmp	w1, w0
    b984:	54ffec0a 	b.ge	b704 <_ZN9__gnu_cxx27__verbose_terminate_handlerEv@@Base+0x4d64>  // b.tcont
    b988:	f9401a83 	ldr	x3, [x20, #48]
    b98c:	11000422 	add	w2, w1, #0x1
    b990:	aa1403e0 	mov	x0, x20
    b994:	f821d873 	str	x19, [x3, w1, sxtw #3]
    b998:	b9003a82 	str	w2, [x20, #56]
    b99c:	97fff056 	bl	7af4 <_ZN9__gnu_cxx27__verbose_terminate_handlerEv@@Base+0x1154>
    b9a0:	aa0003e3 	mov	x3, x0
    b9a4:	aa1303e2 	mov	x2, x19
    b9a8:	aa1403e0 	mov	x0, x20
    b9ac:	52800081 	mov	w1, #0x4                   	// #4
    b9b0:	97ffec60 	bl	6b30 <_ZN9__gnu_cxx27__verbose_terminate_handlerEv@@Base+0x190>
    b9b4:	aa0003f3 	mov	x19, x0
    b9b8:	17ffff3d 	b	b6ac <_ZN9__gnu_cxx27__verbose_terminate_handlerEv@@Base+0x4d0c>
    b9bc:	aa1403e0 	mov	x0, x20
    b9c0:	97fffdc8 	bl	b0e0 <_ZN9__gnu_cxx27__verbose_terminate_handlerEv@@Base+0x4740>
    b9c4:	aa0003e3 	mov	x3, x0
    b9c8:	b4000315 	cbz	x21, ba28 <_ZN9__gnu_cxx27__verbose_terminate_handlerEv@@Base+0x5088>
    b9cc:	52800021 	mov	w1, #0x1                   	// #1
    b9d0:	aa1503e2 	mov	x2, x21
    b9d4:	aa1403e0 	mov	x0, x20
    b9d8:	97ffec56 	bl	6b30 <_ZN9__gnu_cxx27__verbose_terminate_handlerEv@@Base+0x190>
    b9dc:	aa0003f5 	mov	x21, x0
    b9e0:	71014e7f 	cmp	w19, #0x53
    b9e4:	540001c0 	b.eq	ba1c <_ZN9__gnu_cxx27__verbose_terminate_handlerEv@@Base+0x507c>  // b.none
    b9e8:	f9400e80 	ldr	x0, [x20, #24]
    b9ec:	39400013 	ldrb	w19, [x0]
    b9f0:	7101167f 	cmp	w19, #0x45
    b9f4:	54ffefc0 	b.eq	b7ec <_ZN9__gnu_cxx27__verbose_terminate_handlerEv@@Base+0x4e4c>  // b.none
    b9f8:	b4000395 	cbz	x21, ba68 <_ZN9__gnu_cxx27__verbose_terminate_handlerEv@@Base+0x50c8>
    b9fc:	b9403a80 	ldr	w0, [x20, #56]
    ba00:	b9403e81 	ldr	w1, [x20, #60]
    ba04:	6b01001f 	cmp	w0, w1
    ba08:	5400030a 	b.ge	ba68 <_ZN9__gnu_cxx27__verbose_terminate_handlerEv@@Base+0x50c8>  // b.tcont
    ba0c:	f9401a82 	ldr	x2, [x20, #48]
    ba10:	11000401 	add	w1, w0, #0x1
    ba14:	f820d855 	str	x21, [x2, w0, sxtw #3]
    ba18:	b9003a81 	str	w1, [x20, #56]
    ba1c:	f9400e80 	ldr	x0, [x20, #24]
    ba20:	39400013 	ldrb	w19, [x0]
    ba24:	17ffff6f 	b	b7e0 <_ZN9__gnu_cxx27__verbose_terminate_handlerEv@@Base+0x4e40>
    ba28:	aa0003f5 	mov	x21, x0
    ba2c:	17ffffed 	b	b9e0 <_ZN9__gnu_cxx27__verbose_terminate_handlerEv@@Base+0x5040>
    ba30:	39400400 	ldrb	w0, [x0, #1]
    ba34:	121a7800 	and	w0, w0, #0xffffffdf
    ba38:	53001c00 	uxtb	w0, w0
    ba3c:	7101501f 	cmp	w0, #0x54
    ba40:	aa1403e0 	mov	x0, x20
    ba44:	540000c1 	b.ne	ba5c <_ZN9__gnu_cxx27__verbose_terminate_handlerEv@@Base+0x50bc>  // b.any
    ba48:	97fff73b 	bl	9734 <_ZN9__gnu_cxx27__verbose_terminate_handlerEv@@Base+0x2d94>
    ba4c:	aa0003e3 	mov	x3, x0
    ba50:	b5fffbf5 	cbnz	x21, b9cc <_ZN9__gnu_cxx27__verbose_terminate_handlerEv@@Base+0x502c>
    ba54:	aa0303f5 	mov	x21, x3
    ba58:	17ffffe4 	b	b9e8 <_ZN9__gnu_cxx27__verbose_terminate_handlerEv@@Base+0x5048>
    ba5c:	97fffda1 	bl	b0e0 <_ZN9__gnu_cxx27__verbose_terminate_handlerEv@@Base+0x4740>
    ba60:	aa0003e3 	mov	x3, x0
    ba64:	17fffffb 	b	ba50 <_ZN9__gnu_cxx27__verbose_terminate_handlerEv@@Base+0x50b0>
    ba68:	f90002df 	str	xzr, [x22]
    ba6c:	d2800013 	mov	x19, #0x0                   	// #0
    ba70:	17ffff26 	b	b708 <_ZN9__gnu_cxx27__verbose_terminate_handlerEv@@Base+0x4d68>
    ba74:	b4ffffb5 	cbz	x21, ba68 <_ZN9__gnu_cxx27__verbose_terminate_handlerEv@@Base+0x50c8>
    ba78:	aa1403e0 	mov	x0, x20
    ba7c:	97fff01e 	bl	7af4 <_ZN9__gnu_cxx27__verbose_terminate_handlerEv@@Base+0x1154>
    ba80:	aa0003e3 	mov	x3, x0
    ba84:	52800081 	mov	w1, #0x4                   	// #4
    ba88:	17ffffd2 	b	b9d0 <_ZN9__gnu_cxx27__verbose_terminate_handlerEv@@Base+0x5030>
    ba8c:	aa1403e0 	mov	x0, x20
    ba90:	52800021 	mov	w1, #0x1                   	// #1
    ba94:	97ffecd3 	bl	6de0 <_ZN9__gnu_cxx27__verbose_terminate_handlerEv@@Base+0x440>
    ba98:	aa0003e3 	mov	x3, x0
    ba9c:	b5fff995 	cbnz	x21, b9cc <_ZN9__gnu_cxx27__verbose_terminate_handlerEv@@Base+0x502c>
    baa0:	f9400e80 	ldr	x0, [x20, #24]
    baa4:	aa0303f5 	mov	x21, x3
    baa8:	39400013 	ldrb	w19, [x0]
    baac:	17ffff4d 	b	b7e0 <_ZN9__gnu_cxx27__verbose_terminate_handlerEv@@Base+0x4e40>
    bab0:	aa1403e0 	mov	x0, x20
    bab4:	97ffef9a 	bl	791c <_ZN9__gnu_cxx27__verbose_terminate_handlerEv@@Base+0xf7c>
    bab8:	aa0003e3 	mov	x3, x0
    babc:	17ffffe5 	b	ba50 <_ZN9__gnu_cxx27__verbose_terminate_handlerEv@@Base+0x50b0>
    bac0:	b9405282 	ldr	w2, [x20, #80]
    bac4:	528003e1 	mov	w1, #0x1f                  	// #31
    bac8:	11000842 	add	w2, w2, #0x2
    bacc:	91000400 	add	x0, x0, #0x1
    bad0:	b9005282 	str	w2, [x20, #80]
    bad4:	f9000e80 	str	x0, [x20, #24]
    bad8:	d2800002 	mov	x2, #0x0                   	// #0
    badc:	aa1403e0 	mov	x0, x20
    bae0:	d2800003 	mov	x3, #0x0                   	// #0
    bae4:	d2800015 	mov	x21, #0x0                   	// #0
    bae8:	97ffec12 	bl	6b30 <_ZN9__gnu_cxx27__verbose_terminate_handlerEv@@Base+0x190>
    baec:	aa0003f7 	mov	x23, x0
    baf0:	f9400e80 	ldr	x0, [x20, #24]
    baf4:	39400013 	ldrb	w19, [x0]
    baf8:	17ffff3a 	b	b7e0 <_ZN9__gnu_cxx27__verbose_terminate_handlerEv@@Base+0x4e40>
    bafc:	35fffe21 	cbnz	w1, bac0 <_ZN9__gnu_cxx27__verbose_terminate_handlerEv@@Base+0x5120>
    bb00:	b9405282 	ldr	w2, [x20, #80]
    bb04:	52800401 	mov	w1, #0x20                  	// #32
    bb08:	11000c42 	add	w2, w2, #0x3
    bb0c:	17fffff0 	b	bacc <_ZN9__gnu_cxx27__verbose_terminate_handlerEv@@Base+0x512c>
    bb10:	91000801 	add	x1, x0, #0x2
    bb14:	aa1403e0 	mov	x0, x20
    bb18:	f9000e81 	str	x1, [x20, #24]
    bb1c:	97ffef34 	bl	77ec <_ZN9__gnu_cxx27__verbose_terminate_handlerEv@@Base+0xe4c>
    bb20:	aa0003f6 	mov	x22, x0
    bb24:	37ffdf16 	tbnz	w22, #31, b704 <_ZN9__gnu_cxx27__verbose_terminate_handlerEv@@Base+0x4d64>
    bb28:	aa1403e0 	mov	x0, x20
    bb2c:	97fffece 	bl	b664 <_ZN9__gnu_cxx27__verbose_terminate_handlerEv@@Base+0x4cc4>
    bb30:	aa0003f3 	mov	x19, x0
    bb34:	b40000c0 	cbz	x0, bb4c <_ZN9__gnu_cxx27__verbose_terminate_handlerEv@@Base+0x51ac>
    bb38:	b9400000 	ldr	w0, [x0]
    bb3c:	7101141f 	cmp	w0, #0x45
    bb40:	54000060 	b.eq	bb4c <_ZN9__gnu_cxx27__verbose_terminate_handlerEv@@Base+0x51ac>  // b.none
    bb44:	71011c1f 	cmp	w0, #0x47
    bb48:	54000261 	b.ne	bb94 <_ZN9__gnu_cxx27__verbose_terminate_handlerEv@@Base+0x51f4>  // b.any
    bb4c:	b9402a80 	ldr	w0, [x20, #40]
    bb50:	d2800003 	mov	x3, #0x0                   	// #0
    bb54:	b9402e81 	ldr	w1, [x20, #44]
    bb58:	6b01001f 	cmp	w0, w1
    bb5c:	54ffeb2a 	b.ge	b8c0 <_ZN9__gnu_cxx27__verbose_terminate_handlerEv@@Base+0x4f20>  // b.tcont
    bb60:	93407c01 	sxtw	x1, w0
    bb64:	f9401282 	ldr	x2, [x20, #32]
    bb68:	d37be824 	lsl	x4, x1, #5
    bb6c:	11000400 	add	w0, w0, #0x1
    bb70:	cb010c81 	sub	x1, x4, x1, lsl #3
    bb74:	b9002a80 	str	w0, [x20, #40]
    bb78:	ab010043 	adds	x3, x2, x1
    bb7c:	54ffea20 	b.eq	b8c0 <_ZN9__gnu_cxx27__verbose_terminate_handlerEv@@Base+0x4f20>  // b.none
    bb80:	528008c0 	mov	w0, #0x46                  	// #70
    bb84:	b8216840 	str	w0, [x2, x1]
    bb88:	b9001076 	str	w22, [x3, #16]
    bb8c:	f9000473 	str	x19, [x3, #8]
    bb90:	17ffff4c 	b	b8c0 <_ZN9__gnu_cxx27__verbose_terminate_handlerEv@@Base+0x4f20>
    bb94:	aa1403e0 	mov	x0, x20
    bb98:	97ffef38 	bl	7878 <_ZN9__gnu_cxx27__verbose_terminate_handlerEv@@Base+0xed8>
    bb9c:	35fffd80 	cbnz	w0, bb4c <_ZN9__gnu_cxx27__verbose_terminate_handlerEv@@Base+0x51ac>
    bba0:	d2800013 	mov	x19, #0x0                   	// #0
    bba4:	17fffed9 	b	b708 <_ZN9__gnu_cxx27__verbose_terminate_handlerEv@@Base+0x4d68>
    bba8:	91000801 	add	x1, x0, #0x2
    bbac:	aa1403e0 	mov	x0, x20
    bbb0:	f9000e81 	str	x1, [x20, #24]
    bbb4:	97ffef31 	bl	7878 <_ZN9__gnu_cxx27__verbose_terminate_handlerEv@@Base+0xed8>
    bbb8:	34ffda60 	cbz	w0, b704 <_ZN9__gnu_cxx27__verbose_terminate_handlerEv@@Base+0x4d64>
    bbbc:	b0000061 	adrp	x1, 18000 <_ZTSN10__cxxabiv117__class_type_infoE@@Base>
    bbc0:	528001c2 	mov	w2, #0xe                   	// #14
    bbc4:	9116c021 	add	x1, x1, #0x5b0
    bbc8:	aa1403e0 	mov	x0, x20
    bbcc:	97ffec01 	bl	6bd0 <_ZN9__gnu_cxx27__verbose_terminate_handlerEv@@Base+0x230>
    bbd0:	aa0003e3 	mov	x3, x0
    bbd4:	17ffff3b 	b	b8c0 <_ZN9__gnu_cxx27__verbose_terminate_handlerEv@@Base+0x4f20>
    bbd8:	f90002d5 	str	x21, [x22]
    bbdc:	b4ffd955 	cbz	x21, b704 <_ZN9__gnu_cxx27__verbose_terminate_handlerEv@@Base+0x4d64>
    bbe0:	b4000097 	cbz	x23, bbf0 <_ZN9__gnu_cxx27__verbose_terminate_handlerEv@@Base+0x5250>
    bbe4:	f9402fa0 	ldr	x0, [x29, #88]
    bbe8:	f90006e0 	str	x0, [x23, #8]
    bbec:	f9002fb7 	str	x23, [x29, #88]
    bbf0:	f9400e80 	ldr	x0, [x20, #24]
    bbf4:	39400001 	ldrb	w1, [x0]
    bbf8:	7101143f 	cmp	w1, #0x45
    bbfc:	54ffd841 	b.ne	b704 <_ZN9__gnu_cxx27__verbose_terminate_handlerEv@@Base+0x4d64>  // b.any
    bc00:	91000400 	add	x0, x0, #0x1
    bc04:	f9402fb3 	ldr	x19, [x29, #88]
    bc08:	f9000e80 	str	x0, [x20, #24]
    bc0c:	17fffea8 	b	b6ac <_ZN9__gnu_cxx27__verbose_terminate_handlerEv@@Base+0x4d0c>
    bc10:	a9bb7bfd 	stp	x29, x30, [sp, #-80]!
    bc14:	910003fd 	mov	x29, sp
    bc18:	f9400c02 	ldr	x2, [x0, #24]
    bc1c:	a90153f3 	stp	x19, x20, [sp, #16]
    bc20:	a9025bf5 	stp	x21, x22, [sp, #32]
    bc24:	a90363f7 	stp	x23, x24, [sp, #48]
    bc28:	aa0003f4 	mov	x20, x0
    bc2c:	39400043 	ldrb	w3, [x2]
    bc30:	7101507f 	cmp	w3, #0x54
    bc34:	54000740 	b.eq	bd1c <_ZN9__gnu_cxx27__verbose_terminate_handlerEv@@Base+0x537c>  // b.none
    bc38:	71011c7f 	cmp	w3, #0x47
    bc3c:	54000700 	b.eq	bd1c <_ZN9__gnu_cxx27__verbose_terminate_handlerEv@@Base+0x537c>  // b.none
    bc40:	f90027a1 	str	x1, [x29, #72]
    bc44:	97fffe88 	bl	b664 <_ZN9__gnu_cxx27__verbose_terminate_handlerEv@@Base+0x4cc4>
    bc48:	aa0003f3 	mov	x19, x0
    bc4c:	b40000a0 	cbz	x0, bc60 <_ZN9__gnu_cxx27__verbose_terminate_handlerEv@@Base+0x52c0>
    bc50:	f94027a1 	ldr	x1, [x29, #72]
    bc54:	34000061 	cbz	w1, bc60 <_ZN9__gnu_cxx27__verbose_terminate_handlerEv@@Base+0x52c0>
    bc58:	b9401280 	ldr	w0, [x20, #16]
    bc5c:	36000320 	tbz	w0, #0, bcc0 <_ZN9__gnu_cxx27__verbose_terminate_handlerEv@@Base+0x5320>
    bc60:	f9400e82 	ldr	x2, [x20, #24]
    bc64:	39400041 	ldrb	w1, [x2]
    bc68:	7101143f 	cmp	w1, #0x45
    bc6c:	1a9f17e3 	cset	w3, eq	// eq = none
    bc70:	6b1f003f 	cmp	w1, wzr
    bc74:	1a9f17e0 	cset	w0, eq	// eq = none
    bc78:	2a000060 	orr	w0, w3, w0
    bc7c:	35000440 	cbnz	w0, bd04 <_ZN9__gnu_cxx27__verbose_terminate_handlerEv@@Base+0x5364>
    bc80:	b4000433 	cbz	x19, bd04 <_ZN9__gnu_cxx27__verbose_terminate_handlerEv@@Base+0x5364>
    bc84:	aa1303e3 	mov	x3, x19
    bc88:	b9400060 	ldr	w0, [x3]
    bc8c:	7100101f 	cmp	w0, #0x4
    bc90:	54000620 	b.eq	bd54 <_ZN9__gnu_cxx27__verbose_terminate_handlerEv@@Base+0x53b4>  // b.none
    bc94:	540000c3 	b.cc	bcac <_ZN9__gnu_cxx27__verbose_terminate_handlerEv@@Base+0x530c>  // b.lo, b.ul, b.last
    bc98:	51007000 	sub	w0, w0, #0x1c
    bc9c:	7100101f 	cmp	w0, #0x4
    bca0:	54000068 	b.hi	bcac <_ZN9__gnu_cxx27__verbose_terminate_handlerEv@@Base+0x530c>  // b.pmore
    bca4:	f9400463 	ldr	x3, [x3, #8]
    bca8:	b5ffff03 	cbnz	x3, bc88 <_ZN9__gnu_cxx27__verbose_terminate_handlerEv@@Base+0x52e8>
    bcac:	7101283f 	cmp	w1, #0x4a
    bcb0:	54002a60 	b.eq	c1fc <_ZN9__gnu_cxx27__verbose_terminate_handlerEv@@Base+0x585c>  // b.none
    bcb4:	d2800002 	mov	x2, #0x0                   	// #0
    bcb8:	14000039 	b	bd9c <_ZN9__gnu_cxx27__verbose_terminate_handlerEv@@Base+0x53fc>
    bcbc:	f9400673 	ldr	x19, [x19, #8]
    bcc0:	b9400260 	ldr	w0, [x19]
    bcc4:	51007001 	sub	w1, w0, #0x1c
    bcc8:	7100103f 	cmp	w1, #0x4
    bccc:	54ffff89 	b.ls	bcbc <_ZN9__gnu_cxx27__verbose_terminate_handlerEv@@Base+0x531c>  // b.plast
    bcd0:	7100081f 	cmp	w0, #0x2
    bcd4:	54000181 	b.ne	bd04 <_ZN9__gnu_cxx27__verbose_terminate_handlerEv@@Base+0x5364>  // b.any
    bcd8:	f9400a61 	ldr	x1, [x19, #16]
    bcdc:	b9400020 	ldr	w0, [x1]
    bce0:	51007000 	sub	w0, w0, #0x1c
    bce4:	7100101f 	cmp	w0, #0x4
    bce8:	540000c8 	b.hi	bd00 <_ZN9__gnu_cxx27__verbose_terminate_handlerEv@@Base+0x5360>  // b.pmore
    bcec:	f9400421 	ldr	x1, [x1, #8]
    bcf0:	b9400020 	ldr	w0, [x1]
    bcf4:	51007000 	sub	w0, w0, #0x1c
    bcf8:	7100101f 	cmp	w0, #0x4
    bcfc:	54ffff89 	b.ls	bcec <_ZN9__gnu_cxx27__verbose_terminate_handlerEv@@Base+0x534c>  // b.plast
    bd00:	f9000a61 	str	x1, [x19, #16]
    bd04:	aa1303e0 	mov	x0, x19
    bd08:	a94153f3 	ldp	x19, x20, [sp, #16]
    bd0c:	a9425bf5 	ldp	x21, x22, [sp, #32]
    bd10:	a94363f7 	ldp	x23, x24, [sp, #48]
    bd14:	a8c57bfd 	ldp	x29, x30, [sp], #80
    bd18:	d65f03c0 	ret
    bd1c:	b9405281 	ldr	w1, [x20, #80]
    bd20:	11005020 	add	w0, w1, #0x14
    bd24:	b9005280 	str	w0, [x20, #80]
    bd28:	39400040 	ldrb	w0, [x2]
    bd2c:	7101501f 	cmp	w0, #0x54
    bd30:	540007a0 	b.eq	be24 <_ZN9__gnu_cxx27__verbose_terminate_handlerEv@@Base+0x5484>  // b.none
    bd34:	71011c1f 	cmp	w0, #0x47
    bd38:	54000560 	b.eq	bde4 <_ZN9__gnu_cxx27__verbose_terminate_handlerEv@@Base+0x5444>  // b.none
    bd3c:	d2800000 	mov	x0, #0x0                   	// #0
    bd40:	a94153f3 	ldp	x19, x20, [sp, #16]
    bd44:	a9425bf5 	ldp	x21, x22, [sp, #32]
    bd48:	a94363f7 	ldp	x23, x24, [sp, #48]
    bd4c:	a8c57bfd 	ldp	x29, x30, [sp], #80
    bd50:	d65f03c0 	ret
    bd54:	f9400463 	ldr	x3, [x3, #8]
    bd58:	b4000163 	cbz	x3, bd84 <_ZN9__gnu_cxx27__verbose_terminate_handlerEv@@Base+0x53e4>
    bd5c:	b9400060 	ldr	w0, [x3]
    bd60:	7100201f 	cmp	w0, #0x8
    bd64:	54002528 	b.hi	c208 <_ZN9__gnu_cxx27__verbose_terminate_handlerEv@@Base+0x5868>  // b.pmore
    bd68:	71001c1f 	cmp	w0, #0x7
    bd6c:	54fffa02 	b.cs	bcac <_ZN9__gnu_cxx27__verbose_terminate_handlerEv@@Base+0x530c>  // b.hs, b.nlast
    bd70:	51000400 	sub	w0, w0, #0x1
    bd74:	7100041f 	cmp	w0, #0x1
    bd78:	54000068 	b.hi	bd84 <_ZN9__gnu_cxx27__verbose_terminate_handlerEv@@Base+0x53e4>  // b.pmore
    bd7c:	f9400863 	ldr	x3, [x3, #16]
    bd80:	b5fffee3 	cbnz	x3, bd5c <_ZN9__gnu_cxx27__verbose_terminate_handlerEv@@Base+0x53bc>
    bd84:	7101283f 	cmp	w1, #0x4a
    bd88:	540023a0 	b.eq	c1fc <_ZN9__gnu_cxx27__verbose_terminate_handlerEv@@Base+0x585c>  // b.none
    bd8c:	aa1403e0 	mov	x0, x20
    bd90:	97fff669 	bl	9734 <_ZN9__gnu_cxx27__verbose_terminate_handlerEv@@Base+0x2d94>
    bd94:	aa0003e2 	mov	x2, x0
    bd98:	b40028c0 	cbz	x0, c2b0 <_ZN9__gnu_cxx27__verbose_terminate_handlerEv@@Base+0x5910>
    bd9c:	aa1403e0 	mov	x0, x20
    bda0:	f90027a2 	str	x2, [x29, #72]
    bda4:	97fffc0e 	bl	addc <_ZN9__gnu_cxx27__verbose_terminate_handlerEv@@Base+0x443c>
    bda8:	aa0003e3 	mov	x3, x0
    bdac:	b4002820 	cbz	x0, c2b0 <_ZN9__gnu_cxx27__verbose_terminate_handlerEv@@Base+0x5910>
    bdb0:	f94027a2 	ldr	x2, [x29, #72]
    bdb4:	aa1403e0 	mov	x0, x20
    bdb8:	52800521 	mov	w1, #0x29                  	// #41
    bdbc:	97ffeb5d 	bl	6b30 <_ZN9__gnu_cxx27__verbose_terminate_handlerEv@@Base+0x190>
    bdc0:	aa0003e3 	mov	x3, x0
    bdc4:	aa1403e0 	mov	x0, x20
    bdc8:	52800061 	mov	w1, #0x3                   	// #3
    bdcc:	aa1303e2 	mov	x2, x19
    bdd0:	a94153f3 	ldp	x19, x20, [sp, #16]
    bdd4:	a9425bf5 	ldp	x21, x22, [sp, #32]
    bdd8:	a94363f7 	ldp	x23, x24, [sp, #48]
    bddc:	a8c57bfd 	ldp	x29, x30, [sp], #80
    bde0:	17ffeb54 	b	6b30 <_ZN9__gnu_cxx27__verbose_terminate_handlerEv@@Base+0x190>
    bde4:	91000440 	add	x0, x2, #0x1
    bde8:	f9000e80 	str	x0, [x20, #24]
    bdec:	39400440 	ldrb	w0, [x2, #1]
    bdf0:	34fffa60 	cbz	w0, bd3c <_ZN9__gnu_cxx27__verbose_terminate_handlerEv@@Base+0x539c>
    bdf4:	91000840 	add	x0, x2, #0x2
    bdf8:	f9000e80 	str	x0, [x20, #24]
    bdfc:	39400440 	ldrb	w0, [x2, #1]
    be00:	51010400 	sub	w0, w0, #0x41
    be04:	7100c41f 	cmp	w0, #0x31
    be08:	54fff9a8 	b.hi	bd3c <_ZN9__gnu_cxx27__verbose_terminate_handlerEv@@Base+0x539c>  // b.pmore
    be0c:	b0000061 	adrp	x1, 18000 <_ZTSN10__cxxabiv117__class_type_infoE@@Base>
    be10:	910d0021 	add	x1, x1, #0x340
    be14:	38604820 	ldrb	w0, [x1, w0, uxtw]
    be18:	10000061 	adr	x1, be24 <_ZN9__gnu_cxx27__verbose_terminate_handlerEv@@Base+0x5484>
    be1c:	8b208820 	add	x0, x1, w0, sxtb #2
    be20:	d61f0000 	br	x0
    be24:	91000440 	add	x0, x2, #0x1
    be28:	f9000e80 	str	x0, [x20, #24]
    be2c:	39400440 	ldrb	w0, [x2, #1]
    be30:	34fff860 	cbz	w0, bd3c <_ZN9__gnu_cxx27__verbose_terminate_handlerEv@@Base+0x539c>
    be34:	91000840 	add	x0, x2, #0x2
    be38:	f9000e80 	str	x0, [x20, #24]
    be3c:	39400440 	ldrb	w0, [x2, #1]
    be40:	51010c00 	sub	w0, w0, #0x43
    be44:	7100cc1f 	cmp	w0, #0x33
    be48:	54fff7a8 	b.hi	bd3c <_ZN9__gnu_cxx27__verbose_terminate_handlerEv@@Base+0x539c>  // b.pmore
    be4c:	b0000062 	adrp	x2, 18000 <_ZTSN10__cxxabiv117__class_type_infoE@@Base>
    be50:	910dd042 	add	x2, x2, #0x374
    be54:	78605840 	ldrh	w0, [x2, w0, uxtw #1]
    be58:	10000062 	adr	x2, be64 <_ZN9__gnu_cxx27__verbose_terminate_handlerEv@@Base+0x54c4>
    be5c:	8b20a840 	add	x0, x2, w0, sxth #2
    be60:	d61f0000 	br	x0
    be64:	91006280 	add	x0, x20, #0x18
    be68:	97ffecdf 	bl	71e4 <_ZN9__gnu_cxx27__verbose_terminate_handlerEv@@Base+0x844>
    be6c:	f100041f 	cmp	x0, #0x1
    be70:	54fff66d 	b.le	bd3c <_ZN9__gnu_cxx27__verbose_terminate_handlerEv@@Base+0x539c>
    be74:	f9400e81 	ldr	x1, [x20, #24]
    be78:	39400022 	ldrb	w2, [x1]
    be7c:	34fff602 	cbz	w2, bd3c <_ZN9__gnu_cxx27__verbose_terminate_handlerEv@@Base+0x539c>
    be80:	91000435 	add	x21, x1, #0x1
    be84:	f9000e95 	str	x21, [x20, #24]
    be88:	39400021 	ldrb	w1, [x1]
    be8c:	71017c3f 	cmp	w1, #0x5f
    be90:	54fff561 	b.ne	bd3c <_ZN9__gnu_cxx27__verbose_terminate_handlerEv@@Base+0x539c>  // b.any
    be94:	d1000416 	sub	x22, x0, #0x1
    be98:	d2800017 	mov	x23, #0x0                   	// #0
    be9c:	52800818 	mov	w24, #0x40                  	// #64
    bea0:	394002a0 	ldrb	w0, [x21]
    bea4:	34fff4c0 	cbz	w0, bd3c <_ZN9__gnu_cxx27__verbose_terminate_handlerEv@@Base+0x539c>
    bea8:	7100901f 	cmp	w0, #0x24
    beac:	d2800013 	mov	x19, #0x0                   	// #0
    beb0:	540000c1 	b.ne	bec8 <_ZN9__gnu_cxx27__verbose_terminate_handlerEv@@Base+0x5528>  // b.any
    beb4:	140000d8 	b	c214 <_ZN9__gnu_cxx27__verbose_terminate_handlerEv@@Base+0x5874>
    beb8:	38736aa0 	ldrb	w0, [x21, x19]
    bebc:	340000c0 	cbz	w0, bed4 <_ZN9__gnu_cxx27__verbose_terminate_handlerEv@@Base+0x5534>
    bec0:	7100901f 	cmp	w0, #0x24
    bec4:	54000080 	b.eq	bed4 <_ZN9__gnu_cxx27__verbose_terminate_handlerEv@@Base+0x5534>  // b.none
    bec8:	91000673 	add	x19, x19, #0x1
    becc:	eb1302df 	cmp	x22, x19
    bed0:	54ffff4c 	b.gt	beb8 <_ZN9__gnu_cxx27__verbose_terminate_handlerEv@@Base+0x5518>
    bed4:	aa1503e1 	mov	x1, x21
    bed8:	aa1403e0 	mov	x0, x20
    bedc:	2a1303e2 	mov	w2, w19
    bee0:	cb1302d6 	sub	x22, x22, x19
    bee4:	97ffeb3b 	bl	6bd0 <_ZN9__gnu_cxx27__verbose_terminate_handlerEv@@Base+0x230>
    bee8:	f9400e95 	ldr	x21, [x20, #24]
    beec:	aa0003e3 	mov	x3, x0
    bef0:	8b1302b5 	add	x21, x21, x19
    bef4:	f9000e95 	str	x21, [x20, #24]
    bef8:	b4fff220 	cbz	x0, bd3c <_ZN9__gnu_cxx27__verbose_terminate_handlerEv@@Base+0x539c>
    befc:	b4001c17 	cbz	x23, c27c <_ZN9__gnu_cxx27__verbose_terminate_handlerEv@@Base+0x58dc>
    bf00:	aa1703e2 	mov	x2, x23
    bf04:	aa1403e0 	mov	x0, x20
    bf08:	528007e1 	mov	w1, #0x3f                  	// #63
    bf0c:	97ffeb09 	bl	6b30 <_ZN9__gnu_cxx27__verbose_terminate_handlerEv@@Base+0x190>
    bf10:	aa0003f7 	mov	x23, x0
    bf14:	b4fff140 	cbz	x0, bd3c <_ZN9__gnu_cxx27__verbose_terminate_handlerEv@@Base+0x539c>
    bf18:	eb1f02df 	cmp	x22, xzr
    bf1c:	54fffc2c 	b.gt	bea0 <_ZN9__gnu_cxx27__verbose_terminate_handlerEv@@Base+0x5500>
    bf20:	aa1403e0 	mov	x0, x20
    bf24:	528007c1 	mov	w1, #0x3e                  	// #62
    bf28:	aa1703e2 	mov	x2, x23
    bf2c:	d2800003 	mov	x3, #0x0                   	// #0
    bf30:	17ffffa8 	b	bdd0 <_ZN9__gnu_cxx27__verbose_terminate_handlerEv@@Base+0x5430>
    bf34:	aa1403e0 	mov	x0, x20
    bf38:	97fffdcb 	bl	b664 <_ZN9__gnu_cxx27__verbose_terminate_handlerEv@@Base+0x4cc4>
    bf3c:	aa0003e2 	mov	x2, x0
    bf40:	52800261 	mov	w1, #0x13                  	// #19
    bf44:	aa1403e0 	mov	x0, x20
    bf48:	d2800003 	mov	x3, #0x0                   	// #0
    bf4c:	17ffffa1 	b	bdd0 <_ZN9__gnu_cxx27__verbose_terminate_handlerEv@@Base+0x5430>
    bf50:	aa1403e0 	mov	x0, x20
    bf54:	97fffdc4 	bl	b664 <_ZN9__gnu_cxx27__verbose_terminate_handlerEv@@Base+0x4cc4>
    bf58:	aa0003e2 	mov	x2, x0
    bf5c:	b9402e81 	ldr	w1, [x20, #44]
    bf60:	b9402a80 	ldr	w0, [x20, #40]
    bf64:	6b01001f 	cmp	w0, w1
    bf68:	54001a8a 	b.ge	c2b8 <_ZN9__gnu_cxx27__verbose_terminate_handlerEv@@Base+0x5918>  // b.tcont
    bf6c:	93407c01 	sxtw	x1, w0
    bf70:	f9401283 	ldr	x3, [x20, #32]
    bf74:	d37be824 	lsl	x4, x1, #5
    bf78:	11000400 	add	w0, w0, #0x1
    bf7c:	cb010c81 	sub	x1, x4, x1, lsl #3
    bf80:	b9002a80 	str	w0, [x20, #40]
    bf84:	ab010073 	adds	x19, x3, x1
    bf88:	54001980 	b.eq	c2b8 <_ZN9__gnu_cxx27__verbose_terminate_handlerEv@@Base+0x5918>  // b.none
    bf8c:	52800824 	mov	w4, #0x41                  	// #65
    bf90:	91006280 	add	x0, x20, #0x18
    bf94:	b8216864 	str	w4, [x3, x1]
    bf98:	f90027a2 	str	x2, [x29, #72]
    bf9c:	97ffec92 	bl	71e4 <_ZN9__gnu_cxx27__verbose_terminate_handlerEv@@Base+0x844>
    bfa0:	f9000660 	str	x0, [x19, #8]
    bfa4:	f94027a2 	ldr	x2, [x29, #72]
    bfa8:	aa1303e3 	mov	x3, x19
    bfac:	aa1403e0 	mov	x0, x20
    bfb0:	528002c1 	mov	w1, #0x16                  	// #22
    bfb4:	17ffff87 	b	bdd0 <_ZN9__gnu_cxx27__verbose_terminate_handlerEv@@Base+0x5430>
    bfb8:	52800001 	mov	w1, #0x0                   	// #0
    bfbc:	aa1403e0 	mov	x0, x20
    bfc0:	97ffff14 	bl	bc10 <_ZN9__gnu_cxx27__verbose_terminate_handlerEv@@Base+0x5270>
    bfc4:	aa0003e2 	mov	x2, x0
    bfc8:	528002e1 	mov	w1, #0x17                  	// #23
    bfcc:	aa1403e0 	mov	x0, x20
    bfd0:	d2800003 	mov	x3, #0x0                   	// #0
    bfd4:	17ffff7f 	b	bdd0 <_ZN9__gnu_cxx27__verbose_terminate_handlerEv@@Base+0x5430>
    bfd8:	39400840 	ldrb	w0, [x2, #2]
    bfdc:	52800001 	mov	w1, #0x0                   	// #0
    bfe0:	34001520 	cbz	w0, c284 <_ZN9__gnu_cxx27__verbose_terminate_handlerEv@@Base+0x58e4>
    bfe4:	91000c40 	add	x0, x2, #0x3
    bfe8:	f9000e80 	str	x0, [x20, #24]
    bfec:	39400840 	ldrb	w0, [x2, #2]
    bff0:	7101b81f 	cmp	w0, #0x6e
    bff4:	54001481 	b.ne	c284 <_ZN9__gnu_cxx27__verbose_terminate_handlerEv@@Base+0x58e4>  // b.any
    bff8:	aa1403e0 	mov	x0, x20
    bffc:	97ffff05 	bl	bc10 <_ZN9__gnu_cxx27__verbose_terminate_handlerEv@@Base+0x5270>
    c000:	aa0003e2 	mov	x2, x0
    c004:	52800921 	mov	w1, #0x49                  	// #73
    c008:	aa1403e0 	mov	x0, x20
    c00c:	d2800003 	mov	x3, #0x0                   	// #0
    c010:	17ffff70 	b	bdd0 <_ZN9__gnu_cxx27__verbose_terminate_handlerEv@@Base+0x5430>
    c014:	aa1403e0 	mov	x0, x20
    c018:	52800ec1 	mov	w1, #0x76                  	// #118
    c01c:	97ffee7b 	bl	7a08 <_ZN9__gnu_cxx27__verbose_terminate_handlerEv@@Base+0x1068>
    c020:	34ffe8e0 	cbz	w0, bd3c <_ZN9__gnu_cxx27__verbose_terminate_handlerEv@@Base+0x539c>
    c024:	52800001 	mov	w1, #0x0                   	// #0
    c028:	aa1403e0 	mov	x0, x20
    c02c:	97fffef9 	bl	bc10 <_ZN9__gnu_cxx27__verbose_terminate_handlerEv@@Base+0x5270>
    c030:	aa0003e2 	mov	x2, x0
    c034:	52800201 	mov	w1, #0x10                  	// #16
    c038:	aa1403e0 	mov	x0, x20
    c03c:	d2800003 	mov	x3, #0x0                   	// #0
    c040:	17ffff64 	b	bdd0 <_ZN9__gnu_cxx27__verbose_terminate_handlerEv@@Base+0x5430>
    c044:	11003c21 	add	w1, w1, #0xf
    c048:	aa1403e0 	mov	x0, x20
    c04c:	b9005281 	str	w1, [x20, #80]
    c050:	97fff5b9 	bl	9734 <_ZN9__gnu_cxx27__verbose_terminate_handlerEv@@Base+0x2d94>
    c054:	aa0003e2 	mov	x2, x0
    c058:	52800121 	mov	w1, #0x9                   	// #9
    c05c:	aa1403e0 	mov	x0, x20
    c060:	d2800003 	mov	x3, #0x0                   	// #0
    c064:	17ffff5b 	b	bdd0 <_ZN9__gnu_cxx27__verbose_terminate_handlerEv@@Base+0x5430>
    c068:	11002821 	add	w1, w1, #0xa
    c06c:	aa1403e0 	mov	x0, x20
    c070:	b9005281 	str	w1, [x20, #80]
    c074:	97fff5b0 	bl	9734 <_ZN9__gnu_cxx27__verbose_terminate_handlerEv@@Base+0x2d94>
    c078:	aa0003e2 	mov	x2, x0
    c07c:	52800141 	mov	w1, #0xa                   	// #10
    c080:	aa1403e0 	mov	x0, x20
    c084:	d2800003 	mov	x3, #0x0                   	// #0
    c088:	17ffff52 	b	bdd0 <_ZN9__gnu_cxx27__verbose_terminate_handlerEv@@Base+0x5430>
    c08c:	aa1403e0 	mov	x0, x20
    c090:	97fff5a9 	bl	9734 <_ZN9__gnu_cxx27__verbose_terminate_handlerEv@@Base+0x2d94>
    c094:	aa0003e2 	mov	x2, x0
    c098:	528001a1 	mov	w1, #0xd                   	// #13
    c09c:	aa1403e0 	mov	x0, x20
    c0a0:	d2800003 	mov	x3, #0x0                   	// #0
    c0a4:	17ffff4b 	b	bdd0 <_ZN9__gnu_cxx27__verbose_terminate_handlerEv@@Base+0x5430>
    c0a8:	aa1403e0 	mov	x0, x20
    c0ac:	97fff5a2 	bl	9734 <_ZN9__gnu_cxx27__verbose_terminate_handlerEv@@Base+0x2d94>
    c0b0:	aa0003e2 	mov	x2, x0
    c0b4:	52800241 	mov	w1, #0x12                  	// #18
    c0b8:	aa1403e0 	mov	x0, x20
    c0bc:	d2800003 	mov	x3, #0x0                   	// #0
    c0c0:	17ffff44 	b	bdd0 <_ZN9__gnu_cxx27__verbose_terminate_handlerEv@@Base+0x5430>
    c0c4:	aa1403e0 	mov	x0, x20
    c0c8:	97fff59b 	bl	9734 <_ZN9__gnu_cxx27__verbose_terminate_handlerEv@@Base+0x2d94>
    c0cc:	aa0003e2 	mov	x2, x0
    c0d0:	52800181 	mov	w1, #0xc                   	// #12
    c0d4:	aa1403e0 	mov	x0, x20
    c0d8:	d2800003 	mov	x3, #0x0                   	// #0
    c0dc:	17ffff3d 	b	bdd0 <_ZN9__gnu_cxx27__verbose_terminate_handlerEv@@Base+0x5430>
    c0e0:	aa1403e0 	mov	x0, x20
    c0e4:	97fffd60 	bl	b664 <_ZN9__gnu_cxx27__verbose_terminate_handlerEv@@Base+0x4cc4>
    c0e8:	aa0003e2 	mov	x2, x0
    c0ec:	52800281 	mov	w1, #0x14                  	// #20
    c0f0:	aa1403e0 	mov	x0, x20
    c0f4:	d2800003 	mov	x3, #0x0                   	// #0
    c0f8:	17ffff36 	b	bdd0 <_ZN9__gnu_cxx27__verbose_terminate_handlerEv@@Base+0x5430>
    c0fc:	aa1403e0 	mov	x0, x20
    c100:	97fff58d 	bl	9734 <_ZN9__gnu_cxx27__verbose_terminate_handlerEv@@Base+0x2d94>
    c104:	aa0003e2 	mov	x2, x0
    c108:	528001c1 	mov	w1, #0xe                   	// #14
    c10c:	aa1403e0 	mov	x0, x20
    c110:	d2800003 	mov	x3, #0x0                   	// #0
    c114:	17ffff2f 	b	bdd0 <_ZN9__gnu_cxx27__verbose_terminate_handlerEv@@Base+0x5430>
    c118:	aa1403e0 	mov	x0, x20
    c11c:	97fff586 	bl	9734 <_ZN9__gnu_cxx27__verbose_terminate_handlerEv@@Base+0x2d94>
    c120:	aa0003f3 	mov	x19, x0
    c124:	91006280 	add	x0, x20, #0x18
    c128:	97ffec2f 	bl	71e4 <_ZN9__gnu_cxx27__verbose_terminate_handlerEv@@Base+0x844>
    c12c:	b7ffe080 	tbnz	x0, #63, bd3c <_ZN9__gnu_cxx27__verbose_terminate_handlerEv@@Base+0x539c>
    c130:	f9400e80 	ldr	x0, [x20, #24]
    c134:	39400001 	ldrb	w1, [x0]
    c138:	71017c3f 	cmp	w1, #0x5f
    c13c:	54ffe001 	b.ne	bd3c <_ZN9__gnu_cxx27__verbose_terminate_handlerEv@@Base+0x539c>  // b.any
    c140:	91000401 	add	x1, x0, #0x1
    c144:	aa1403e0 	mov	x0, x20
    c148:	f9000e81 	str	x1, [x20, #24]
    c14c:	97fff57a 	bl	9734 <_ZN9__gnu_cxx27__verbose_terminate_handlerEv@@Base+0x2d94>
    c150:	aa0003e2 	mov	x2, x0
    c154:	b9405284 	ldr	w4, [x20, #80]
    c158:	aa1403e0 	mov	x0, x20
    c15c:	52800161 	mov	w1, #0xb                   	// #11
    c160:	aa1303e3 	mov	x3, x19
    c164:	11001484 	add	w4, w4, #0x5
    c168:	b9005284 	str	w4, [x20, #80]
    c16c:	17ffff19 	b	bdd0 <_ZN9__gnu_cxx27__verbose_terminate_handlerEv@@Base+0x5430>
    c170:	aa1403e0 	mov	x0, x20
    c174:	52800001 	mov	w1, #0x0                   	// #0
    c178:	97ffee24 	bl	7a08 <_ZN9__gnu_cxx27__verbose_terminate_handlerEv@@Base+0x1068>
    c17c:	34ffde00 	cbz	w0, bd3c <_ZN9__gnu_cxx27__verbose_terminate_handlerEv@@Base+0x539c>
    c180:	aa1403e0 	mov	x0, x20
    c184:	52800001 	mov	w1, #0x0                   	// #0
    c188:	97ffee20 	bl	7a08 <_ZN9__gnu_cxx27__verbose_terminate_handlerEv@@Base+0x1068>
    c18c:	34ffdd80 	cbz	w0, bd3c <_ZN9__gnu_cxx27__verbose_terminate_handlerEv@@Base+0x539c>
    c190:	52800001 	mov	w1, #0x0                   	// #0
    c194:	aa1403e0 	mov	x0, x20
    c198:	97fffe9e 	bl	bc10 <_ZN9__gnu_cxx27__verbose_terminate_handlerEv@@Base+0x5270>
    c19c:	aa0003e2 	mov	x2, x0
    c1a0:	52800221 	mov	w1, #0x11                  	// #17
    c1a4:	aa1403e0 	mov	x0, x20
    c1a8:	d2800003 	mov	x3, #0x0                   	// #0
    c1ac:	17ffff09 	b	bdd0 <_ZN9__gnu_cxx27__verbose_terminate_handlerEv@@Base+0x5430>
    c1b0:	aa1403e0 	mov	x0, x20
    c1b4:	97fffd2c 	bl	b664 <_ZN9__gnu_cxx27__verbose_terminate_handlerEv@@Base+0x4cc4>
    c1b8:	aa0003e2 	mov	x2, x0
    c1bc:	528002a1 	mov	w1, #0x15                  	// #21
    c1c0:	aa1403e0 	mov	x0, x20
    c1c4:	d2800003 	mov	x3, #0x0                   	// #0
    c1c8:	17ffff02 	b	bdd0 <_ZN9__gnu_cxx27__verbose_terminate_handlerEv@@Base+0x5430>
    c1cc:	aa1403e0 	mov	x0, x20
    c1d0:	52800d01 	mov	w1, #0x68                  	// #104
    c1d4:	97ffee0d 	bl	7a08 <_ZN9__gnu_cxx27__verbose_terminate_handlerEv@@Base+0x1068>
    c1d8:	34ffdb20 	cbz	w0, bd3c <_ZN9__gnu_cxx27__verbose_terminate_handlerEv@@Base+0x539c>
    c1dc:	52800001 	mov	w1, #0x0                   	// #0
    c1e0:	aa1403e0 	mov	x0, x20
    c1e4:	97fffe8b 	bl	bc10 <_ZN9__gnu_cxx27__verbose_terminate_handlerEv@@Base+0x5270>
    c1e8:	aa0003e2 	mov	x2, x0
    c1ec:	528001e1 	mov	w1, #0xf                   	// #15
    c1f0:	aa1403e0 	mov	x0, x20
    c1f4:	d2800003 	mov	x3, #0x0                   	// #0
    c1f8:	17fffef6 	b	bdd0 <_ZN9__gnu_cxx27__verbose_terminate_handlerEv@@Base+0x5430>
    c1fc:	91000442 	add	x2, x2, #0x1
    c200:	f9000e82 	str	x2, [x20, #24]
    c204:	17fffee2 	b	bd8c <_ZN9__gnu_cxx27__verbose_terminate_handlerEv@@Base+0x53ec>
    c208:	7100d01f 	cmp	w0, #0x34
    c20c:	54ffd500 	b.eq	bcac <_ZN9__gnu_cxx27__verbose_terminate_handlerEv@@Base+0x530c>  // b.none
    c210:	17fffedd 	b	bd84 <_ZN9__gnu_cxx27__verbose_terminate_handlerEv@@Base+0x53e4>
    c214:	394006a0 	ldrb	w0, [x21, #1]
    c218:	71014c1f 	cmp	w0, #0x53
    c21c:	54000460 	b.eq	c2a8 <_ZN9__gnu_cxx27__verbose_terminate_handlerEv@@Base+0x5908>  // b.none
    c220:	71017c1f 	cmp	w0, #0x5f
    c224:	540003e0 	b.eq	c2a0 <_ZN9__gnu_cxx27__verbose_terminate_handlerEv@@Base+0x5900>  // b.none
    c228:	7100901f 	cmp	w0, #0x24
    c22c:	54ffd881 	b.ne	bd3c <_ZN9__gnu_cxx27__verbose_terminate_handlerEv@@Base+0x539c>  // b.any
    c230:	b9402a83 	ldr	w3, [x20, #40]
    c234:	b9402e81 	ldr	w1, [x20, #44]
    c238:	6b01007f 	cmp	w3, w1
    c23c:	5400042a 	b.ge	c2c0 <_ZN9__gnu_cxx27__verbose_terminate_handlerEv@@Base+0x5920>  // b.tcont
    c240:	93407c61 	sxtw	x1, w3
    c244:	f9401282 	ldr	x2, [x20, #32]
    c248:	d37be824 	lsl	x4, x1, #5
    c24c:	11000463 	add	w3, w3, #0x1
    c250:	cb010c81 	sub	x1, x4, x1, lsl #3
    c254:	b9002a83 	str	w3, [x20, #40]
    c258:	ab010043 	adds	x3, x2, x1
    c25c:	54000320 	b.eq	c2c0 <_ZN9__gnu_cxx27__verbose_terminate_handlerEv@@Base+0x5920>  // b.none
    c260:	b8216858 	str	w24, [x2, x1]
    c264:	d1000ad6 	sub	x22, x22, #0x2
    c268:	b9000860 	str	w0, [x3, #8]
    c26c:	f9400e95 	ldr	x21, [x20, #24]
    c270:	91000ab5 	add	x21, x21, #0x2
    c274:	f9000e95 	str	x21, [x20, #24]
    c278:	17ffff21 	b	befc <_ZN9__gnu_cxx27__verbose_terminate_handlerEv@@Base+0x555c>
    c27c:	aa0303f7 	mov	x23, x3
    c280:	17ffff26 	b	bf18 <_ZN9__gnu_cxx27__verbose_terminate_handlerEv@@Base+0x5578>
    c284:	aa1403e0 	mov	x0, x20
    c288:	97fffe62 	bl	bc10 <_ZN9__gnu_cxx27__verbose_terminate_handlerEv@@Base+0x5270>
    c28c:	aa0003e2 	mov	x2, x0
    c290:	52800901 	mov	w1, #0x48                  	// #72
    c294:	aa1403e0 	mov	x0, x20
    c298:	d2800003 	mov	x3, #0x0                   	// #0
    c29c:	17fffecd 	b	bdd0 <_ZN9__gnu_cxx27__verbose_terminate_handlerEv@@Base+0x5430>
    c2a0:	528005c0 	mov	w0, #0x2e                  	// #46
    c2a4:	17ffffe3 	b	c230 <_ZN9__gnu_cxx27__verbose_terminate_handlerEv@@Base+0x5890>
    c2a8:	528005e0 	mov	w0, #0x2f                  	// #47
    c2ac:	17ffffe1 	b	c230 <_ZN9__gnu_cxx27__verbose_terminate_handlerEv@@Base+0x5890>
    c2b0:	d2800003 	mov	x3, #0x0                   	// #0
    c2b4:	17fffec4 	b	bdc4 <_ZN9__gnu_cxx27__verbose_terminate_handlerEv@@Base+0x5424>
    c2b8:	d2800003 	mov	x3, #0x0                   	// #0
    c2bc:	17ffff3c 	b	bfac <_ZN9__gnu_cxx27__verbose_terminate_handlerEv@@Base+0x560c>
    c2c0:	f9400e81 	ldr	x1, [x20, #24]
    c2c4:	d2800000 	mov	x0, #0x0                   	// #0
    c2c8:	91000821 	add	x1, x1, #0x2
    c2cc:	f9000e81 	str	x1, [x20, #24]
    c2d0:	17fffe9c 	b	bd40 <_ZN9__gnu_cxx27__verbose_terminate_handlerEv@@Base+0x53a0>
    c2d4:	a9bd7bfd 	stp	x29, x30, [sp, #-48]!
    c2d8:	910003fd 	mov	x29, sp
    c2dc:	f9400c03 	ldr	x3, [x0, #24]
    c2e0:	a90153f3 	stp	x19, x20, [sp, #16]
    c2e4:	f90013f5 	str	x21, [sp, #32]
    c2e8:	aa0003f3 	mov	x19, x0
    c2ec:	39400061 	ldrb	w1, [x3]
    c2f0:	7101303f 	cmp	w1, #0x4c
    c2f4:	540000c0 	b.eq	c30c <_ZN9__gnu_cxx27__verbose_terminate_handlerEv@@Base+0x596c>  // b.none
    c2f8:	d2800000 	mov	x0, #0x0                   	// #0
    c2fc:	f94013f5 	ldr	x21, [sp, #32]
    c300:	a94153f3 	ldp	x19, x20, [sp, #16]
    c304:	a8c37bfd 	ldp	x29, x30, [sp], #48
    c308:	d65f03c0 	ret
    c30c:	91000462 	add	x2, x3, #0x1
    c310:	f9000c02 	str	x2, [x0, #24]
    c314:	39400461 	ldrb	w1, [x3, #1]
    c318:	71017c3f 	cmp	w1, #0x5f
    c31c:	1a9f17e4 	cset	w4, eq	// eq = none
    c320:	7101683f 	cmp	w1, #0x5a
    c324:	54000540 	b.eq	c3cc <_ZN9__gnu_cxx27__verbose_terminate_handlerEv@@Base+0x5a2c>  // b.none
    c328:	350006a4 	cbnz	w4, c3fc <_ZN9__gnu_cxx27__verbose_terminate_handlerEv@@Base+0x5a5c>
    c32c:	97fff502 	bl	9734 <_ZN9__gnu_cxx27__verbose_terminate_handlerEv@@Base+0x2d94>
    c330:	aa0003f4 	mov	x20, x0
    c334:	b4fffe20 	cbz	x0, c2f8 <_ZN9__gnu_cxx27__verbose_terminate_handlerEv@@Base+0x5958>
    c338:	b9400000 	ldr	w0, [x0]
    c33c:	71009c1f 	cmp	w0, #0x27
    c340:	54000660 	b.eq	c40c <_ZN9__gnu_cxx27__verbose_terminate_handlerEv@@Base+0x5a6c>  // b.none
    c344:	f9400e61 	ldr	x1, [x19, #24]
    c348:	52800795 	mov	w21, #0x3c                  	// #60
    c34c:	39400020 	ldrb	w0, [x1]
    c350:	7101b81f 	cmp	w0, #0x6e
    c354:	540006c0 	b.eq	c42c <_ZN9__gnu_cxx27__verbose_terminate_handlerEv@@Base+0x5a8c>  // b.none
    c358:	7101141f 	cmp	w0, #0x45
    c35c:	54000740 	b.eq	c444 <_ZN9__gnu_cxx27__verbose_terminate_handlerEv@@Base+0x5aa4>  // b.none
    c360:	34fffcc0 	cbz	w0, c2f8 <_ZN9__gnu_cxx27__verbose_terminate_handlerEv@@Base+0x5958>
    c364:	91000422 	add	x2, x1, #0x1
    c368:	14000003 	b	c374 <_ZN9__gnu_cxx27__verbose_terminate_handlerEv@@Base+0x59d4>
    c36c:	91000442 	add	x2, x2, #0x1
    c370:	34fffc40 	cbz	w0, c2f8 <_ZN9__gnu_cxx27__verbose_terminate_handlerEv@@Base+0x5958>
    c374:	f9000e62 	str	x2, [x19, #24]
    c378:	39400040 	ldrb	w0, [x2]
    c37c:	7101141f 	cmp	w0, #0x45
    c380:	54ffff61 	b.ne	c36c <_ZN9__gnu_cxx27__verbose_terminate_handlerEv@@Base+0x59cc>  // b.any
    c384:	4b010042 	sub	w2, w2, w1
    c388:	aa1303e0 	mov	x0, x19
    c38c:	97ffea11 	bl	6bd0 <_ZN9__gnu_cxx27__verbose_terminate_handlerEv@@Base+0x230>
    c390:	aa0003e3 	mov	x3, x0
    c394:	2a1503e1 	mov	w1, w21
    c398:	aa1403e2 	mov	x2, x20
    c39c:	aa1303e0 	mov	x0, x19
    c3a0:	97ffe9e4 	bl	6b30 <_ZN9__gnu_cxx27__verbose_terminate_handlerEv@@Base+0x190>
    c3a4:	f9400e62 	ldr	x2, [x19, #24]
    c3a8:	39400041 	ldrb	w1, [x2]
    c3ac:	7101143f 	cmp	w1, #0x45
    c3b0:	54fffa41 	b.ne	c2f8 <_ZN9__gnu_cxx27__verbose_terminate_handlerEv@@Base+0x5958>  // b.any
    c3b4:	91000442 	add	x2, x2, #0x1
    c3b8:	f9000e62 	str	x2, [x19, #24]
    c3bc:	f94013f5 	ldr	x21, [sp, #32]
    c3c0:	a94153f3 	ldp	x19, x20, [sp, #16]
    c3c4:	a8c37bfd 	ldp	x29, x30, [sp], #48
    c3c8:	d65f03c0 	ret
    c3cc:	35000184 	cbnz	w4, c3fc <_ZN9__gnu_cxx27__verbose_terminate_handlerEv@@Base+0x5a5c>
    c3d0:	7101683f 	cmp	w1, #0x5a
    c3d4:	d2800000 	mov	x0, #0x0                   	// #0
    c3d8:	54fffea1 	b.ne	c3ac <_ZN9__gnu_cxx27__verbose_terminate_handlerEv@@Base+0x5a0c>  // b.any
    c3dc:	91000442 	add	x2, x2, #0x1
    c3e0:	52800001 	mov	w1, #0x0                   	// #0
    c3e4:	f9000e62 	str	x2, [x19, #24]
    c3e8:	aa1303e0 	mov	x0, x19
    c3ec:	97fffe09 	bl	bc10 <_ZN9__gnu_cxx27__verbose_terminate_handlerEv@@Base+0x5270>
    c3f0:	f9400e62 	ldr	x2, [x19, #24]
    c3f4:	39400041 	ldrb	w1, [x2]
    c3f8:	17ffffed 	b	c3ac <_ZN9__gnu_cxx27__verbose_terminate_handlerEv@@Base+0x5a0c>
    c3fc:	91000862 	add	x2, x3, #0x2
    c400:	f9000e62 	str	x2, [x19, #24]
    c404:	39400861 	ldrb	w1, [x3, #2]
    c408:	17fffff2 	b	c3d0 <_ZN9__gnu_cxx27__verbose_terminate_handlerEv@@Base+0x5a30>
    c40c:	f9400680 	ldr	x0, [x20, #8]
    c410:	b9401c01 	ldr	w1, [x0, #28]
    c414:	34fff981 	cbz	w1, c344 <_ZN9__gnu_cxx27__verbose_terminate_handlerEv@@Base+0x59a4>
    c418:	b9405261 	ldr	w1, [x19, #80]
    c41c:	b9400800 	ldr	w0, [x0, #8]
    c420:	4b000020 	sub	w0, w1, w0
    c424:	b9005260 	str	w0, [x19, #80]
    c428:	17ffffc7 	b	c344 <_ZN9__gnu_cxx27__verbose_terminate_handlerEv@@Base+0x59a4>
    c42c:	91000422 	add	x2, x1, #0x1
    c430:	f9000e62 	str	x2, [x19, #24]
    c434:	528007b5 	mov	w21, #0x3d                  	// #61
    c438:	39400420 	ldrb	w0, [x1, #1]
    c43c:	aa0203e1 	mov	x1, x2
    c440:	17ffffc6 	b	c358 <_ZN9__gnu_cxx27__verbose_terminate_handlerEv@@Base+0x59b8>
    c444:	52800002 	mov	w2, #0x0                   	// #0
    c448:	17ffffd0 	b	c388 <_ZN9__gnu_cxx27__verbose_terminate_handlerEv@@Base+0x59e8>
    c44c:	a9bc7bfd 	stp	x29, x30, [sp, #-64]!
    c450:	910003fd 	mov	x29, sp
    c454:	f9400c03 	ldr	x3, [x0, #24]
    c458:	a90153f3 	stp	x19, x20, [sp, #16]
    c45c:	a9025bf5 	stp	x21, x22, [sp, #32]
    c460:	aa0003f3 	mov	x19, x0
    c464:	39400061 	ldrb	w1, [x3]
    c468:	7101303f 	cmp	w1, #0x4c
    c46c:	540011a0 	b.eq	c6a0 <_ZN9__gnu_cxx27__verbose_terminate_handlerEv@@Base+0x5d00>  // b.none
    c470:	7101503f 	cmp	w1, #0x54
    c474:	540011e0 	b.eq	c6b0 <_ZN9__gnu_cxx27__verbose_terminate_handlerEv@@Base+0x5d10>  // b.none
    c478:	7101cc3f 	cmp	w1, #0x73
    c47c:	54000a40 	b.eq	c5c4 <_ZN9__gnu_cxx27__verbose_terminate_handlerEv@@Base+0x5c24>  // b.none
    c480:	7101983f 	cmp	w1, #0x66
    c484:	54000640 	b.eq	c54c <_ZN9__gnu_cxx27__verbose_terminate_handlerEv@@Base+0x5bac>  // b.none
    c488:	5100c020 	sub	w0, w1, #0x30
    c48c:	53001c00 	uxtb	w0, w0
    c490:	7100241f 	cmp	w0, #0x9
    c494:	540001a8 	b.hi	c4c8 <_ZN9__gnu_cxx27__verbose_terminate_handlerEv@@Base+0x5b28>  // b.pmore
    c498:	aa1303e0 	mov	x0, x19
    c49c:	97fffb11 	bl	b0e0 <_ZN9__gnu_cxx27__verbose_terminate_handlerEv@@Base+0x4740>
    c4a0:	aa0003e2 	mov	x2, x0
    c4a4:	b4000c80 	cbz	x0, c634 <_ZN9__gnu_cxx27__verbose_terminate_handlerEv@@Base+0x5c94>
    c4a8:	f9400e61 	ldr	x1, [x19, #24]
    c4ac:	39400021 	ldrb	w1, [x1]
    c4b0:	7101243f 	cmp	w1, #0x49
    c4b4:	54001180 	b.eq	c6e4 <_ZN9__gnu_cxx27__verbose_terminate_handlerEv@@Base+0x5d44>  // b.none
    c4b8:	a94153f3 	ldp	x19, x20, [sp, #16]
    c4bc:	a9425bf5 	ldp	x21, x22, [sp, #32]
    c4c0:	a8c47bfd 	ldp	x29, x30, [sp], #64
    c4c4:	d65f03c0 	ret
    c4c8:	7101bc3f 	cmp	w1, #0x6f
    c4cc:	54000de0 	b.eq	c688 <_ZN9__gnu_cxx27__verbose_terminate_handlerEv@@Base+0x5ce8>  // b.none
    c4d0:	7101d03f 	cmp	w1, #0x74
    c4d4:	1a9f17e4 	cset	w4, eq	// eq = none
    c4d8:	34002e84 	cbz	w4, caa8 <_ZN9__gnu_cxx27__verbose_terminate_handlerEv@@Base+0x6108>
    c4dc:	39400460 	ldrb	w0, [x3, #1]
    c4e0:	7101b01f 	cmp	w0, #0x6c
    c4e4:	54000b20 	b.eq	c648 <_ZN9__gnu_cxx27__verbose_terminate_handlerEv@@Base+0x5ca8>  // b.none
    c4e8:	aa1303e0 	mov	x0, x19
    c4ec:	97fffa80 	bl	aeec <_ZN9__gnu_cxx27__verbose_terminate_handlerEv@@Base+0x454c>
    c4f0:	aa0003f4 	mov	x20, x0
    c4f4:	b4000a00 	cbz	x0, c634 <_ZN9__gnu_cxx27__verbose_terminate_handlerEv@@Base+0x5c94>
    c4f8:	b9400000 	ldr	w0, [x0]
    c4fc:	7100c41f 	cmp	w0, #0x31
    c500:	540007c0 	b.eq	c5f8 <_ZN9__gnu_cxx27__verbose_terminate_handlerEv@@Base+0x5c58>  // b.none
    c504:	7100c81f 	cmp	w0, #0x32
    c508:	54000dc0 	b.eq	c6c0 <_ZN9__gnu_cxx27__verbose_terminate_handlerEv@@Base+0x5d20>  // b.none
    c50c:	7100cc1f 	cmp	w0, #0x33
    c510:	54000921 	b.ne	c634 <_ZN9__gnu_cxx27__verbose_terminate_handlerEv@@Base+0x5c94>  // b.any
    c514:	f9400e60 	ldr	x0, [x19, #24]
    c518:	39400001 	ldrb	w1, [x0]
    c51c:	71017c3f 	cmp	w1, #0x5f
    c520:	54001e20 	b.eq	c8e4 <_ZN9__gnu_cxx27__verbose_terminate_handlerEv@@Base+0x5f44>  // b.none
    c524:	aa1303e0 	mov	x0, x19
    c528:	97ffffc9 	bl	c44c <_ZN9__gnu_cxx27__verbose_terminate_handlerEv@@Base+0x5aac>
    c52c:	aa0003e3 	mov	x3, x0
    c530:	aa1303e0 	mov	x0, x19
    c534:	528006c1 	mov	w1, #0x36                  	// #54
    c538:	aa1403e2 	mov	x2, x20
    c53c:	a94153f3 	ldp	x19, x20, [sp, #16]
    c540:	a9425bf5 	ldp	x21, x22, [sp, #32]
    c544:	a8c47bfd 	ldp	x29, x30, [sp], #64
    c548:	17ffe97a 	b	6b30 <_ZN9__gnu_cxx27__verbose_terminate_handlerEv@@Base+0x190>
    c54c:	39400461 	ldrb	w1, [x3, #1]
    c550:	7101c03f 	cmp	w1, #0x70
    c554:	54fffca1 	b.ne	c4e8 <_ZN9__gnu_cxx27__verbose_terminate_handlerEv@@Base+0x5b48>  // b.any
    c558:	91000861 	add	x1, x3, #0x2
    c55c:	f9000c01 	str	x1, [x0, #24]
    c560:	39400861 	ldrb	w1, [x3, #2]
    c564:	7101503f 	cmp	w1, #0x54
    c568:	54000ec0 	b.eq	c740 <_ZN9__gnu_cxx27__verbose_terminate_handlerEv@@Base+0x5da0>  // b.none
    c56c:	97ffeca0 	bl	77ec <_ZN9__gnu_cxx27__verbose_terminate_handlerEv@@Base+0xe4c>
    c570:	11000400 	add	w0, w0, #0x1
    c574:	93407c04 	sxtw	x4, w0
    c578:	340005e0 	cbz	w0, c634 <_ZN9__gnu_cxx27__verbose_terminate_handlerEv@@Base+0x5c94>
    c57c:	b9402a60 	ldr	w0, [x19, #40]
    c580:	b9402e61 	ldr	w1, [x19, #44]
    c584:	6b01001f 	cmp	w0, w1
    c588:	5400056a 	b.ge	c634 <_ZN9__gnu_cxx27__verbose_terminate_handlerEv@@Base+0x5c94>  // b.tcont
    c58c:	93407c01 	sxtw	x1, w0
    c590:	f9401262 	ldr	x2, [x19, #32]
    c594:	d37be823 	lsl	x3, x1, #5
    c598:	11000400 	add	w0, w0, #0x1
    c59c:	cb010c61 	sub	x1, x3, x1, lsl #3
    c5a0:	b9002a60 	str	w0, [x19, #40]
    c5a4:	ab010043 	adds	x3, x2, x1
    c5a8:	d2800000 	mov	x0, #0x0                   	// #0
    c5ac:	54fff860 	b.eq	c4b8 <_ZN9__gnu_cxx27__verbose_terminate_handlerEv@@Base+0x5b18>  // b.none
    c5b0:	528000c0 	mov	w0, #0x6                   	// #6
    c5b4:	b8216840 	str	w0, [x2, x1]
    c5b8:	f9000464 	str	x4, [x3, #8]
    c5bc:	aa0303e0 	mov	x0, x3
    c5c0:	17ffffbe 	b	c4b8 <_ZN9__gnu_cxx27__verbose_terminate_handlerEv@@Base+0x5b18>
    c5c4:	39400461 	ldrb	w1, [x3, #1]
    c5c8:	7101c83f 	cmp	w1, #0x72
    c5cc:	540009c0 	b.eq	c704 <_ZN9__gnu_cxx27__verbose_terminate_handlerEv@@Base+0x5d64>  // b.none
    c5d0:	7101c03f 	cmp	w1, #0x70
    c5d4:	54fff8a1 	b.ne	c4e8 <_ZN9__gnu_cxx27__verbose_terminate_handlerEv@@Base+0x5b48>  // b.any
    c5d8:	91000863 	add	x3, x3, #0x2
    c5dc:	f9000c03 	str	x3, [x0, #24]
    c5e0:	97ffff9b 	bl	c44c <_ZN9__gnu_cxx27__verbose_terminate_handlerEv@@Base+0x5aac>
    c5e4:	aa0003e2 	mov	x2, x0
    c5e8:	52800941 	mov	w1, #0x4a                  	// #74
    c5ec:	aa1303e0 	mov	x0, x19
    c5f0:	d2800003 	mov	x3, #0x0                   	// #0
    c5f4:	14000021 	b	c678 <_ZN9__gnu_cxx27__verbose_terminate_handlerEv@@Base+0x5cd8>
    c5f8:	f9400696 	ldr	x22, [x20, #8]
    c5fc:	90000061 	adrp	x1, 18000 <_ZTSN10__cxxabiv117__class_type_infoE@@Base>
    c600:	b9405262 	ldr	w2, [x19, #80]
    c604:	912c0021 	add	x1, x1, #0xb00
    c608:	b94012c0 	ldr	w0, [x22, #16]
    c60c:	f94002d5 	ldr	x21, [x22]
    c610:	51000800 	sub	w0, w0, #0x2
    c614:	0b000042 	add	w2, w2, w0
    c618:	aa1503e0 	mov	x0, x21
    c61c:	b9005262 	str	w2, [x19, #80]
    c620:	97ffe100 	bl	4a20 <strcmp@plt>
    c624:	34001980 	cbz	w0, c954 <_ZN9__gnu_cxx27__verbose_terminate_handlerEv@@Base+0x5fb4>
    c628:	b94016c0 	ldr	w0, [x22, #20]
    c62c:	71000c1f 	cmp	w0, #0x3
    c630:	54000909 	b.ls	c750 <_ZN9__gnu_cxx27__verbose_terminate_handlerEv@@Base+0x5db0>  // b.plast
    c634:	a94153f3 	ldp	x19, x20, [sp, #16]
    c638:	a9425bf5 	ldp	x21, x22, [sp, #32]
    c63c:	d2800000 	mov	x0, #0x0                   	// #0
    c640:	a8c47bfd 	ldp	x29, x30, [sp], #64
    c644:	d65f03c0 	ret
    c648:	d2800002 	mov	x2, #0x0                   	// #0
    c64c:	350018c4 	cbnz	w4, c964 <_ZN9__gnu_cxx27__verbose_terminate_handlerEv@@Base+0x5fc4>
    c650:	91000863 	add	x3, x3, #0x2
    c654:	528008a1 	mov	w1, #0x45                  	// #69
    c658:	f9000e63 	str	x3, [x19, #24]
    c65c:	aa1303e0 	mov	x0, x19
    c660:	f9001fa2 	str	x2, [x29, #56]
    c664:	97fff25f 	bl	8fe0 <_ZN9__gnu_cxx27__verbose_terminate_handlerEv@@Base+0x2640>
    c668:	aa0003e3 	mov	x3, x0
    c66c:	f9401fa2 	ldr	x2, [x29, #56]
    c670:	aa1303e0 	mov	x0, x19
    c674:	52800601 	mov	w1, #0x30                  	// #48
    c678:	a94153f3 	ldp	x19, x20, [sp, #16]
    c67c:	a9425bf5 	ldp	x21, x22, [sp, #32]
    c680:	a8c47bfd 	ldp	x29, x30, [sp], #64
    c684:	17ffe92b 	b	6b30 <_ZN9__gnu_cxx27__verbose_terminate_handlerEv@@Base+0x190>
    c688:	39400460 	ldrb	w0, [x3, #1]
    c68c:	7101b81f 	cmp	w0, #0x6e
    c690:	54fff2c1 	b.ne	c4e8 <_ZN9__gnu_cxx27__verbose_terminate_handlerEv@@Base+0x5b48>  // b.any
    c694:	91000863 	add	x3, x3, #0x2
    c698:	f9000e63 	str	x3, [x19, #24]
    c69c:	17ffff7f 	b	c498 <_ZN9__gnu_cxx27__verbose_terminate_handlerEv@@Base+0x5af8>
    c6a0:	a94153f3 	ldp	x19, x20, [sp, #16]
    c6a4:	a9425bf5 	ldp	x21, x22, [sp, #32]
    c6a8:	a8c47bfd 	ldp	x29, x30, [sp], #64
    c6ac:	17ffff0a 	b	c2d4 <_ZN9__gnu_cxx27__verbose_terminate_handlerEv@@Base+0x5934>
    c6b0:	a94153f3 	ldp	x19, x20, [sp, #16]
    c6b4:	a9425bf5 	ldp	x21, x22, [sp, #32]
    c6b8:	a8c47bfd 	ldp	x29, x30, [sp], #64
    c6bc:	17ffec98 	b	791c <_ZN9__gnu_cxx27__verbose_terminate_handlerEv@@Base+0xf7c>
    c6c0:	b9400a80 	ldr	w0, [x20, #8]
    c6c4:	71000c1f 	cmp	w0, #0x3
    c6c8:	54fffb68 	b.hi	c634 <_ZN9__gnu_cxx27__verbose_terminate_handlerEv@@Base+0x5c94>  // b.pmore
    c6cc:	90000061 	adrp	x1, 18000 <_ZTSN10__cxxabiv117__class_type_infoE@@Base>
    c6d0:	910f7021 	add	x1, x1, #0x3dc
    c6d4:	38604820 	ldrb	w0, [x1, w0, uxtw]
    c6d8:	10000061 	adr	x1, c6e4 <_ZN9__gnu_cxx27__verbose_terminate_handlerEv@@Base+0x5d44>
    c6dc:	8b208820 	add	x0, x1, w0, sxtb #2
    c6e0:	d61f0000 	br	x0
    c6e4:	aa1303e0 	mov	x0, x19
    c6e8:	f9001fa2 	str	x2, [x29, #56]
    c6ec:	97ffed02 	bl	7af4 <_ZN9__gnu_cxx27__verbose_terminate_handlerEv@@Base+0x1154>
    c6f0:	aa0003e3 	mov	x3, x0
    c6f4:	52800081 	mov	w1, #0x4                   	// #4
    c6f8:	aa1303e0 	mov	x0, x19
    c6fc:	f9401fa2 	ldr	x2, [x29, #56]
    c700:	17ffffde 	b	c678 <_ZN9__gnu_cxx27__verbose_terminate_handlerEv@@Base+0x5cd8>
    c704:	91000863 	add	x3, x3, #0x2
    c708:	f9000c03 	str	x3, [x0, #24]
    c70c:	97fff40a 	bl	9734 <_ZN9__gnu_cxx27__verbose_terminate_handlerEv@@Base+0x2d94>
    c710:	aa0003f4 	mov	x20, x0
    c714:	aa1303e0 	mov	x0, x19
    c718:	97fffa72 	bl	b0e0 <_ZN9__gnu_cxx27__verbose_terminate_handlerEv@@Base+0x4740>
    c71c:	aa0003e3 	mov	x3, x0
    c720:	f9400e60 	ldr	x0, [x19, #24]
    c724:	39400000 	ldrb	w0, [x0]
    c728:	7101241f 	cmp	w0, #0x49
    c72c:	54001600 	b.eq	c9ec <_ZN9__gnu_cxx27__verbose_terminate_handlerEv@@Base+0x604c>  // b.none
    c730:	aa1303e0 	mov	x0, x19
    c734:	52800021 	mov	w1, #0x1                   	// #1
    c738:	aa1403e2 	mov	x2, x20
    c73c:	17ffff80 	b	c53c <_ZN9__gnu_cxx27__verbose_terminate_handlerEv@@Base+0x5b9c>
    c740:	91000c63 	add	x3, x3, #0x3
    c744:	d2800004 	mov	x4, #0x0                   	// #0
    c748:	f9000c03 	str	x3, [x0, #24]
    c74c:	17ffff8c 	b	c57c <_ZN9__gnu_cxx27__verbose_terminate_handlerEv@@Base+0x5bdc>
    c750:	90000061 	adrp	x1, 18000 <_ZTSN10__cxxabiv117__class_type_infoE@@Base>
    c754:	910f8021 	add	x1, x1, #0x3e0
    c758:	38604820 	ldrb	w0, [x1, w0, uxtw]
    c75c:	10000061 	adr	x1, c768 <_ZN9__gnu_cxx27__verbose_terminate_handlerEv@@Base+0x5dc8>
    c760:	8b208820 	add	x0, x1, w0, sxtb #2
    c764:	d61f0000 	br	x0
    c768:	aa1303e0 	mov	x0, x19
    c76c:	528006a1 	mov	w1, #0x35                  	// #53
    c770:	aa1403e2 	mov	x2, x20
    c774:	d2800003 	mov	x3, #0x0                   	// #0
    c778:	17ffffc0 	b	c678 <_ZN9__gnu_cxx27__verbose_terminate_handlerEv@@Base+0x5cd8>
    c77c:	d2800015 	mov	x21, #0x0                   	// #0
    c780:	90000061 	adrp	x1, 18000 <_ZTSN10__cxxabiv117__class_type_infoE@@Base>
    c784:	aa1503e0 	mov	x0, x21
    c788:	91166021 	add	x1, x1, #0x598
    c78c:	97ffe0a5 	bl	4a20 <strcmp@plt>
    c790:	34000f40 	cbz	w0, c978 <_ZN9__gnu_cxx27__verbose_terminate_handlerEv@@Base+0x5fd8>
    c794:	394002a0 	ldrb	w0, [x21]
    c798:	7101b81f 	cmp	w0, #0x6e
    c79c:	54fff4c1 	b.ne	c634 <_ZN9__gnu_cxx27__verbose_terminate_handlerEv@@Base+0x5c94>  // b.any
    c7a0:	394006a0 	ldrb	w0, [x21, #1]
    c7a4:	7101841f 	cmp	w0, #0x61
    c7a8:	54000060 	b.eq	c7b4 <_ZN9__gnu_cxx27__verbose_terminate_handlerEv@@Base+0x5e14>  // b.none
    c7ac:	7101dc1f 	cmp	w0, #0x77
    c7b0:	54fff421 	b.ne	c634 <_ZN9__gnu_cxx27__verbose_terminate_handlerEv@@Base+0x5c94>  // b.any
    c7b4:	52800be1 	mov	w1, #0x5f                  	// #95
    c7b8:	aa1303e0 	mov	x0, x19
    c7bc:	97fff209 	bl	8fe0 <_ZN9__gnu_cxx27__verbose_terminate_handlerEv@@Base+0x2640>
    c7c0:	aa0003f5 	mov	x21, x0
    c7c4:	aa1303e0 	mov	x0, x19
    c7c8:	97fff3db 	bl	9734 <_ZN9__gnu_cxx27__verbose_terminate_handlerEv@@Base+0x2d94>
    c7cc:	aa0003e2 	mov	x2, x0
    c7d0:	f9400e60 	ldr	x0, [x19, #24]
    c7d4:	39400001 	ldrb	w1, [x0]
    c7d8:	7101143f 	cmp	w1, #0x45
    c7dc:	54001280 	b.eq	ca2c <_ZN9__gnu_cxx27__verbose_terminate_handlerEv@@Base+0x608c>  // b.none
    c7e0:	7101c03f 	cmp	w1, #0x70
    c7e4:	54001440 	b.eq	ca6c <_ZN9__gnu_cxx27__verbose_terminate_handlerEv@@Base+0x60cc>  // b.none
    c7e8:	f9001fa2 	str	x2, [x29, #56]
    c7ec:	7101a43f 	cmp	w1, #0x69
    c7f0:	54fff221 	b.ne	c634 <_ZN9__gnu_cxx27__verbose_terminate_handlerEv@@Base+0x5c94>  // b.any
    c7f4:	39400400 	ldrb	w0, [x0, #1]
    c7f8:	7101b01f 	cmp	w0, #0x6c
    c7fc:	54fff1c1 	b.ne	c634 <_ZN9__gnu_cxx27__verbose_terminate_handlerEv@@Base+0x5c94>  // b.any
    c800:	aa1303e0 	mov	x0, x19
    c804:	97ffff12 	bl	c44c <_ZN9__gnu_cxx27__verbose_terminate_handlerEv@@Base+0x5aac>
    c808:	aa0003e3 	mov	x3, x0
    c80c:	f9401fa2 	ldr	x2, [x29, #56]
    c810:	52800761 	mov	w1, #0x3b                  	// #59
    c814:	aa1303e0 	mov	x0, x19
    c818:	97ffe8c6 	bl	6b30 <_ZN9__gnu_cxx27__verbose_terminate_handlerEv@@Base+0x190>
    c81c:	aa0003e3 	mov	x3, x0
    c820:	52800741 	mov	w1, #0x3a                  	// #58
    c824:	aa1503e2 	mov	x2, x21
    c828:	aa1303e0 	mov	x0, x19
    c82c:	97ffe8c1 	bl	6b30 <_ZN9__gnu_cxx27__verbose_terminate_handlerEv@@Base+0x190>
    c830:	aa0003e3 	mov	x3, x0
    c834:	52800721 	mov	w1, #0x39                  	// #57
    c838:	aa1303e0 	mov	x0, x19
    c83c:	aa1403e2 	mov	x2, x20
    c840:	17ffff3f 	b	c53c <_ZN9__gnu_cxx27__verbose_terminate_handlerEv@@Base+0x5b9c>
    c844:	d2800015 	mov	x21, #0x0                   	// #0
    c848:	f9400680 	ldr	x0, [x20, #8]
    c84c:	f9400000 	ldr	x0, [x0]
    c850:	39400401 	ldrb	w1, [x0, #1]
    c854:	71018c3f 	cmp	w1, #0x63
    c858:	54000b00 	b.eq	c9b8 <_ZN9__gnu_cxx27__verbose_terminate_handlerEv@@Base+0x6018>  // b.none
    c85c:	aa1303e0 	mov	x0, x19
    c860:	97fffefb 	bl	c44c <_ZN9__gnu_cxx27__verbose_terminate_handlerEv@@Base+0x5aac>
    c864:	aa0003f6 	mov	x22, x0
    c868:	90000061 	adrp	x1, 18000 <_ZTSN10__cxxabiv117__class_type_infoE@@Base>
    c86c:	aa1503e0 	mov	x0, x21
    c870:	91160021 	add	x1, x1, #0x580
    c874:	97ffe06b 	bl	4a20 <strcmp@plt>
    c878:	34000960 	cbz	w0, c9a4 <_ZN9__gnu_cxx27__verbose_terminate_handlerEv@@Base+0x6004>
    c87c:	90000061 	adrp	x1, 18000 <_ZTSN10__cxxabiv117__class_type_infoE@@Base>
    c880:	aa1503e0 	mov	x0, x21
    c884:	91162021 	add	x1, x1, #0x588
    c888:	97ffe066 	bl	4a20 <strcmp@plt>
    c88c:	340000c0 	cbz	w0, c8a4 <_ZN9__gnu_cxx27__verbose_terminate_handlerEv@@Base+0x5f04>
    c890:	90000061 	adrp	x1, 18000 <_ZTSN10__cxxabiv117__class_type_infoE@@Base>
    c894:	aa1503e0 	mov	x0, x21
    c898:	91164021 	add	x1, x1, #0x590
    c89c:	97ffe061 	bl	4a20 <strcmp@plt>
    c8a0:	35000be0 	cbnz	w0, ca1c <_ZN9__gnu_cxx27__verbose_terminate_handlerEv@@Base+0x607c>
    c8a4:	aa1303e0 	mov	x0, x19
    c8a8:	97fffa0e 	bl	b0e0 <_ZN9__gnu_cxx27__verbose_terminate_handlerEv@@Base+0x4740>
    c8ac:	aa0003e3 	mov	x3, x0
    c8b0:	f9400e60 	ldr	x0, [x19, #24]
    c8b4:	39400000 	ldrb	w0, [x0]
    c8b8:	7101241f 	cmp	w0, #0x49
    c8bc:	54000c00 	b.eq	ca3c <_ZN9__gnu_cxx27__verbose_terminate_handlerEv@@Base+0x609c>  // b.none
    c8c0:	52800701 	mov	w1, #0x38                  	// #56
    c8c4:	aa1603e2 	mov	x2, x22
    c8c8:	aa1303e0 	mov	x0, x19
    c8cc:	97ffe899 	bl	6b30 <_ZN9__gnu_cxx27__verbose_terminate_handlerEv@@Base+0x190>
    c8d0:	aa0003e3 	mov	x3, x0
    c8d4:	528006e1 	mov	w1, #0x37                  	// #55
    c8d8:	aa1303e0 	mov	x0, x19
    c8dc:	aa1403e2 	mov	x2, x20
    c8e0:	17ffff17 	b	c53c <_ZN9__gnu_cxx27__verbose_terminate_handlerEv@@Base+0x5b9c>
    c8e4:	91000401 	add	x1, x0, #0x1
    c8e8:	aa1303e0 	mov	x0, x19
    c8ec:	f9000e61 	str	x1, [x19, #24]
    c8f0:	528008a1 	mov	w1, #0x45                  	// #69
    c8f4:	97fff1bb 	bl	8fe0 <_ZN9__gnu_cxx27__verbose_terminate_handlerEv@@Base+0x2640>
    c8f8:	aa0003e3 	mov	x3, x0
    c8fc:	17ffff0d 	b	c530 <_ZN9__gnu_cxx27__verbose_terminate_handlerEv@@Base+0x5b90>
    c900:	394002a0 	ldrb	w0, [x21]
    c904:	7101b41f 	cmp	w0, #0x6d
    c908:	54000060 	b.eq	c914 <_ZN9__gnu_cxx27__verbose_terminate_handlerEv@@Base+0x5f74>  // b.none
    c90c:	7101c01f 	cmp	w0, #0x70
    c910:	54ffe0a1 	b.ne	c524 <_ZN9__gnu_cxx27__verbose_terminate_handlerEv@@Base+0x5b84>  // b.any
    c914:	394006a1 	ldrb	w1, [x21, #1]
    c918:	6b00003f 	cmp	w1, w0
    c91c:	54ffe041 	b.ne	c524 <_ZN9__gnu_cxx27__verbose_terminate_handlerEv@@Base+0x5b84>  // b.any
    c920:	f9400e60 	ldr	x0, [x19, #24]
    c924:	39400001 	ldrb	w1, [x0]
    c928:	71017c3f 	cmp	w1, #0x5f
    c92c:	54000b80 	b.eq	ca9c <_ZN9__gnu_cxx27__verbose_terminate_handlerEv@@Base+0x60fc>  // b.none
    c930:	aa1303e0 	mov	x0, x19
    c934:	97fffec6 	bl	c44c <_ZN9__gnu_cxx27__verbose_terminate_handlerEv@@Base+0x5aac>
    c938:	aa0003e2 	mov	x2, x0
    c93c:	aa0203e3 	mov	x3, x2
    c940:	aa1303e0 	mov	x0, x19
    c944:	52800701 	mov	w1, #0x38                  	// #56
    c948:	97ffe87a 	bl	6b30 <_ZN9__gnu_cxx27__verbose_terminate_handlerEv@@Base+0x190>
    c94c:	aa0003e3 	mov	x3, x0
    c950:	17fffef8 	b	c530 <_ZN9__gnu_cxx27__verbose_terminate_handlerEv@@Base+0x5b90>
    c954:	aa1303e0 	mov	x0, x19
    c958:	97fff377 	bl	9734 <_ZN9__gnu_cxx27__verbose_terminate_handlerEv@@Base+0x2d94>
    c95c:	aa0003e3 	mov	x3, x0
    c960:	17fffef4 	b	c530 <_ZN9__gnu_cxx27__verbose_terminate_handlerEv@@Base+0x5b90>
    c964:	aa1303e0 	mov	x0, x19
    c968:	97fff373 	bl	9734 <_ZN9__gnu_cxx27__verbose_terminate_handlerEv@@Base+0x2d94>
    c96c:	aa0003e2 	mov	x2, x0
    c970:	f9400e63 	ldr	x3, [x19, #24]
    c974:	17ffff37 	b	c650 <_ZN9__gnu_cxx27__verbose_terminate_handlerEv@@Base+0x5cb0>
    c978:	aa1303e0 	mov	x0, x19
    c97c:	97fffeb4 	bl	c44c <_ZN9__gnu_cxx27__verbose_terminate_handlerEv@@Base+0x5aac>
    c980:	aa0003f5 	mov	x21, x0
    c984:	aa1303e0 	mov	x0, x19
    c988:	97fffeb1 	bl	c44c <_ZN9__gnu_cxx27__verbose_terminate_handlerEv@@Base+0x5aac>
    c98c:	f9001fa0 	str	x0, [x29, #56]
    c990:	aa1303e0 	mov	x0, x19
    c994:	97fffeae 	bl	c44c <_ZN9__gnu_cxx27__verbose_terminate_handlerEv@@Base+0x5aac>
    c998:	aa0003e3 	mov	x3, x0
    c99c:	f9401fa2 	ldr	x2, [x29, #56]
    c9a0:	17ffff9c 	b	c810 <_ZN9__gnu_cxx27__verbose_terminate_handlerEv@@Base+0x5e70>
    c9a4:	aa1303e0 	mov	x0, x19
    c9a8:	528008a1 	mov	w1, #0x45                  	// #69
    c9ac:	97fff18d 	bl	8fe0 <_ZN9__gnu_cxx27__verbose_terminate_handlerEv@@Base+0x2640>
    c9b0:	aa0003e3 	mov	x3, x0
    c9b4:	17ffffc3 	b	c8c0 <_ZN9__gnu_cxx27__verbose_terminate_handlerEv@@Base+0x5f20>
    c9b8:	39400000 	ldrb	w0, [x0]
    c9bc:	5101c801 	sub	w1, w0, #0x72
    c9c0:	53001c21 	uxtb	w1, w1
    c9c4:	7100043f 	cmp	w1, #0x1
    c9c8:	540000a9 	b.ls	c9dc <_ZN9__gnu_cxx27__verbose_terminate_handlerEv@@Base+0x603c>  // b.plast
    c9cc:	51018c00 	sub	w0, w0, #0x63
    c9d0:	53001c00 	uxtb	w0, w0
    c9d4:	7100041f 	cmp	w0, #0x1
    c9d8:	54fff428 	b.hi	c85c <_ZN9__gnu_cxx27__verbose_terminate_handlerEv@@Base+0x5ebc>  // b.pmore
    c9dc:	aa1303e0 	mov	x0, x19
    c9e0:	97fff355 	bl	9734 <_ZN9__gnu_cxx27__verbose_terminate_handlerEv@@Base+0x2d94>
    c9e4:	aa0003f6 	mov	x22, x0
    c9e8:	17ffffa0 	b	c868 <_ZN9__gnu_cxx27__verbose_terminate_handlerEv@@Base+0x5ec8>
    c9ec:	aa1303e0 	mov	x0, x19
    c9f0:	f9001fa3 	str	x3, [x29, #56]
    c9f4:	97ffec40 	bl	7af4 <_ZN9__gnu_cxx27__verbose_terminate_handlerEv@@Base+0x1154>
    c9f8:	aa0003e4 	mov	x4, x0
    c9fc:	f9401fa3 	ldr	x3, [x29, #56]
    ca00:	aa1303e0 	mov	x0, x19
    ca04:	52800081 	mov	w1, #0x4                   	// #4
    ca08:	aa0303e2 	mov	x2, x3
    ca0c:	aa0403e3 	mov	x3, x4
    ca10:	97ffe848 	bl	6b30 <_ZN9__gnu_cxx27__verbose_terminate_handlerEv@@Base+0x190>
    ca14:	aa0003e3 	mov	x3, x0
    ca18:	17ffff46 	b	c730 <_ZN9__gnu_cxx27__verbose_terminate_handlerEv@@Base+0x5d90>
    ca1c:	aa1303e0 	mov	x0, x19
    ca20:	97fffe8b 	bl	c44c <_ZN9__gnu_cxx27__verbose_terminate_handlerEv@@Base+0x5aac>
    ca24:	aa0003e3 	mov	x3, x0
    ca28:	17ffffa6 	b	c8c0 <_ZN9__gnu_cxx27__verbose_terminate_handlerEv@@Base+0x5f20>
    ca2c:	91000401 	add	x1, x0, #0x1
    ca30:	d2800003 	mov	x3, #0x0                   	// #0
    ca34:	f9000e61 	str	x1, [x19, #24]
    ca38:	17ffff76 	b	c810 <_ZN9__gnu_cxx27__verbose_terminate_handlerEv@@Base+0x5e70>
    ca3c:	aa1303e0 	mov	x0, x19
    ca40:	f9001fa3 	str	x3, [x29, #56]
    ca44:	97ffec2c 	bl	7af4 <_ZN9__gnu_cxx27__verbose_terminate_handlerEv@@Base+0x1154>
    ca48:	aa0003e4 	mov	x4, x0
    ca4c:	f9401fa3 	ldr	x3, [x29, #56]
    ca50:	aa1303e0 	mov	x0, x19
    ca54:	52800081 	mov	w1, #0x4                   	// #4
    ca58:	aa0303e2 	mov	x2, x3
    ca5c:	aa0403e3 	mov	x3, x4
    ca60:	97ffe834 	bl	6b30 <_ZN9__gnu_cxx27__verbose_terminate_handlerEv@@Base+0x190>
    ca64:	aa0003e3 	mov	x3, x0
    ca68:	17ffff96 	b	c8c0 <_ZN9__gnu_cxx27__verbose_terminate_handlerEv@@Base+0x5f20>
    ca6c:	39400401 	ldrb	w1, [x0, #1]
    ca70:	7101a43f 	cmp	w1, #0x69
    ca74:	54ffde01 	b.ne	c634 <_ZN9__gnu_cxx27__verbose_terminate_handlerEv@@Base+0x5c94>  // b.any
    ca78:	91000801 	add	x1, x0, #0x2
    ca7c:	aa1303e0 	mov	x0, x19
    ca80:	f9000e61 	str	x1, [x19, #24]
    ca84:	528008a1 	mov	w1, #0x45                  	// #69
    ca88:	f9001fa2 	str	x2, [x29, #56]
    ca8c:	97fff155 	bl	8fe0 <_ZN9__gnu_cxx27__verbose_terminate_handlerEv@@Base+0x2640>
    ca90:	aa0003e3 	mov	x3, x0
    ca94:	f9401fa2 	ldr	x2, [x29, #56]
    ca98:	17ffff5e 	b	c810 <_ZN9__gnu_cxx27__verbose_terminate_handlerEv@@Base+0x5e70>
    ca9c:	91000400 	add	x0, x0, #0x1
    caa0:	f9000e60 	str	x0, [x19, #24]
    caa4:	17fffea0 	b	c524 <_ZN9__gnu_cxx27__verbose_terminate_handlerEv@@Base+0x5b84>
    caa8:	7101a43f 	cmp	w1, #0x69
    caac:	54ffd180 	b.eq	c4dc <_ZN9__gnu_cxx27__verbose_terminate_handlerEv@@Base+0x5b3c>  // b.none
    cab0:	17fffe8e 	b	c4e8 <_ZN9__gnu_cxx27__verbose_terminate_handlerEv@@Base+0x5b48>
    cab4:	a9bd7bfd 	stp	x29, x30, [sp, #-48]!
    cab8:	910003fd 	mov	x29, sp
    cabc:	f9400c01 	ldr	x1, [x0, #24]
    cac0:	f9000bf3 	str	x19, [sp, #16]
    cac4:	39400022 	ldrb	w2, [x1]
    cac8:	7101185f 	cmp	w2, #0x46
    cacc:	540000a0 	b.eq	cae0 <_ZN9__gnu_cxx27__verbose_terminate_handlerEv@@Base+0x6140>  // b.none
    cad0:	f9400bf3 	ldr	x19, [sp, #16]
    cad4:	d2800000 	mov	x0, #0x0                   	// #0
    cad8:	a8c37bfd 	ldp	x29, x30, [sp], #48
    cadc:	d65f03c0 	ret
    cae0:	91000422 	add	x2, x1, #0x1
    cae4:	f9000c02 	str	x2, [x0, #24]
    cae8:	39400423 	ldrb	w3, [x1, #1]
    caec:	7101647f 	cmp	w3, #0x59
    caf0:	540005e0 	b.eq	cbac <_ZN9__gnu_cxx27__verbose_terminate_handlerEv@@Base+0x620c>  // b.none
    caf4:	7101287f 	cmp	w3, #0x4a
    caf8:	54000640 	b.eq	cbc0 <_ZN9__gnu_cxx27__verbose_terminate_handlerEv@@Base+0x6220>  // b.none
    cafc:	aa0003f3 	mov	x19, x0
    cb00:	97fff30d 	bl	9734 <_ZN9__gnu_cxx27__verbose_terminate_handlerEv@@Base+0x2d94>
    cb04:	b40006c0 	cbz	x0, cbdc <_ZN9__gnu_cxx27__verbose_terminate_handlerEv@@Base+0x623c>
    cb08:	f90017a0 	str	x0, [x29, #40]
    cb0c:	aa1303e0 	mov	x0, x19
    cb10:	97fff8b3 	bl	addc <_ZN9__gnu_cxx27__verbose_terminate_handlerEv@@Base+0x443c>
    cb14:	aa0003e3 	mov	x3, x0
    cb18:	b4000620 	cbz	x0, cbdc <_ZN9__gnu_cxx27__verbose_terminate_handlerEv@@Base+0x623c>
    cb1c:	f94017a2 	ldr	x2, [x29, #40]
    cb20:	aa1303e0 	mov	x0, x19
    cb24:	52800521 	mov	w1, #0x29                  	// #41
    cb28:	97ffe802 	bl	6b30 <_ZN9__gnu_cxx27__verbose_terminate_handlerEv@@Base+0x190>
    cb2c:	aa0003e2 	mov	x2, x0
    cb30:	f9400e63 	ldr	x3, [x19, #24]
    cb34:	39400061 	ldrb	w1, [x3]
    cb38:	7101483f 	cmp	w1, #0x52
    cb3c:	1a9f17e0 	cset	w0, eq	// eq = none
    cb40:	71013c3f 	cmp	w1, #0x4f
    cb44:	54000140 	b.eq	cb6c <_ZN9__gnu_cxx27__verbose_terminate_handlerEv@@Base+0x61cc>  // b.none
    cb48:	35000420 	cbnz	w0, cbcc <_ZN9__gnu_cxx27__verbose_terminate_handlerEv@@Base+0x622c>
    cb4c:	7101143f 	cmp	w1, #0x45
    cb50:	54fffc01 	b.ne	cad0 <_ZN9__gnu_cxx27__verbose_terminate_handlerEv@@Base+0x6130>  // b.any
    cb54:	91000463 	add	x3, x3, #0x1
    cb58:	f9000e63 	str	x3, [x19, #24]
    cb5c:	aa0203e0 	mov	x0, x2
    cb60:	f9400bf3 	ldr	x19, [sp, #16]
    cb64:	a8c37bfd 	ldp	x29, x30, [sp], #48
    cb68:	d65f03c0 	ret
    cb6c:	35000300 	cbnz	w0, cbcc <_ZN9__gnu_cxx27__verbose_terminate_handlerEv@@Base+0x622c>
    cb70:	b9405260 	ldr	w0, [x19, #80]
    cb74:	52800401 	mov	w1, #0x20                  	// #32
    cb78:	11000c00 	add	w0, w0, #0x3
    cb7c:	91000463 	add	x3, x3, #0x1
    cb80:	b9005260 	str	w0, [x19, #80]
    cb84:	f9000e63 	str	x3, [x19, #24]
    cb88:	aa1303e0 	mov	x0, x19
    cb8c:	d2800003 	mov	x3, #0x0                   	// #0
    cb90:	97ffe7e8 	bl	6b30 <_ZN9__gnu_cxx27__verbose_terminate_handlerEv@@Base+0x190>
    cb94:	aa0003e2 	mov	x2, x0
    cb98:	f9400e63 	ldr	x3, [x19, #24]
    cb9c:	39400061 	ldrb	w1, [x3]
    cba0:	7101143f 	cmp	w1, #0x45
    cba4:	54fff961 	b.ne	cad0 <_ZN9__gnu_cxx27__verbose_terminate_handlerEv@@Base+0x6130>  // b.any
    cba8:	17ffffeb 	b	cb54 <_ZN9__gnu_cxx27__verbose_terminate_handlerEv@@Base+0x61b4>
    cbac:	91000822 	add	x2, x1, #0x2
    cbb0:	f9000c02 	str	x2, [x0, #24]
    cbb4:	39400823 	ldrb	w3, [x1, #2]
    cbb8:	7101287f 	cmp	w3, #0x4a
    cbbc:	54fffa01 	b.ne	cafc <_ZN9__gnu_cxx27__verbose_terminate_handlerEv@@Base+0x615c>  // b.any
    cbc0:	91000442 	add	x2, x2, #0x1
    cbc4:	f9000c02 	str	x2, [x0, #24]
    cbc8:	17ffffcd 	b	cafc <_ZN9__gnu_cxx27__verbose_terminate_handlerEv@@Base+0x615c>
    cbcc:	b9405260 	ldr	w0, [x19, #80]
    cbd0:	528003e1 	mov	w1, #0x1f                  	// #31
    cbd4:	11000800 	add	w0, w0, #0x2
    cbd8:	17ffffe9 	b	cb7c <_ZN9__gnu_cxx27__verbose_terminate_handlerEv@@Base+0x61dc>
    cbdc:	d2800002 	mov	x2, #0x0                   	// #0
    cbe0:	17ffffd4 	b	cb30 <_ZN9__gnu_cxx27__verbose_terminate_handlerEv@@Base+0x6190>
    cbe4:	a9b97bfd 	stp	x29, x30, [sp, #-112]!
    cbe8:	910003fd 	mov	x29, sp
    cbec:	f9400c05 	ldr	x5, [x0, #24]
    cbf0:	a90153f3 	stp	x19, x20, [sp, #16]
    cbf4:	a9025bf5 	stp	x21, x22, [sp, #32]
    cbf8:	a90363f7 	stp	x23, x24, [sp, #48]
    cbfc:	a9046bf9 	stp	x25, x26, [sp, #64]
    cc00:	f9002bfb 	str	x27, [sp, #80]
    cc04:	aa0003f3 	mov	x19, x0
    cc08:	394000a1 	ldrb	w1, [x5]
    cc0c:	71017c3f 	cmp	w1, #0x5f
    cc10:	54000860 	b.eq	cd1c <_ZN9__gnu_cxx27__verbose_terminate_handlerEv@@Base+0x637c>  // b.none
    cc14:	b9402801 	ldr	w1, [x0, #40]
    cc18:	b9402c00 	ldr	w0, [x0, #44]
    cc1c:	6b00003f 	cmp	w1, w0
    cc20:	540004ea 	b.ge	ccbc <_ZN9__gnu_cxx27__verbose_terminate_handlerEv@@Base+0x631c>  // b.tcont
    cc24:	93407c20 	sxtw	x0, w1
    cc28:	f9401263 	ldr	x3, [x19, #32]
    cc2c:	d37be802 	lsl	x2, x0, #5
    cc30:	11000421 	add	w1, w1, #0x1
    cc34:	cb000c40 	sub	x0, x2, x0, lsl #3
    cc38:	b9002a61 	str	w1, [x19, #40]
    cc3c:	ab000062 	adds	x2, x3, x0
    cc40:	540003e0 	b.eq	ccbc <_ZN9__gnu_cxx27__verbose_terminate_handlerEv@@Base+0x631c>  // b.none
    cc44:	52800821 	mov	w1, #0x41                  	// #65
    cc48:	b8206861 	str	w1, [x3, x0]
    cc4c:	394000a4 	ldrb	w4, [x5]
    cc50:	7101b89f 	cmp	w4, #0x6e
    cc54:	54000bc0 	b.eq	cdcc <_ZN9__gnu_cxx27__verbose_terminate_handlerEv@@Base+0x642c>  // b.none
    cc58:	d2800006 	mov	x6, #0x0                   	// #0
    cc5c:	d2800007 	mov	x7, #0x0                   	// #0
    cc60:	5100c083 	sub	w3, w4, #0x30
    cc64:	910004a1 	add	x1, x5, #0x1
    cc68:	d2800000 	mov	x0, #0x0                   	// #0
    cc6c:	53001c63 	uxtb	w3, w3
    cc70:	7100247f 	cmp	w3, #0x9
    cc74:	54000188 	b.hi	cca4 <_ZN9__gnu_cxx27__verbose_terminate_handlerEv@@Base+0x6304>  // b.pmore
    cc78:	f9000e61 	str	x1, [x19, #24]
    cc7c:	d37df003 	lsl	x3, x0, #3
    cc80:	8b000460 	add	x0, x3, x0, lsl #1
    cc84:	aa0103e5 	mov	x5, x1
    cc88:	8b240000 	add	x0, x0, w4, uxtb
    cc8c:	38401424 	ldrb	w4, [x1], #1
    cc90:	d100c000 	sub	x0, x0, #0x30
    cc94:	5100c083 	sub	w3, w4, #0x30
    cc98:	53001c63 	uxtb	w3, w3
    cc9c:	7100247f 	cmp	w3, #0x9
    cca0:	54fffec9 	b.ls	cc78 <_ZN9__gnu_cxx27__verbose_terminate_handlerEv@@Base+0x62d8>  // b.plast
    cca4:	ca060000 	eor	x0, x0, x6
    cca8:	8b0000e0 	add	x0, x7, x0
    ccac:	f9000440 	str	x0, [x2, #8]
    ccb0:	394000a0 	ldrb	w0, [x5]
    ccb4:	71017c1f 	cmp	w0, #0x5f
    ccb8:	54000120 	b.eq	ccdc <_ZN9__gnu_cxx27__verbose_terminate_handlerEv@@Base+0x633c>  // b.none
    ccbc:	a94153f3 	ldp	x19, x20, [sp, #16]
    ccc0:	a9425bf5 	ldp	x21, x22, [sp, #32]
    ccc4:	a94363f7 	ldp	x23, x24, [sp, #48]
    ccc8:	a9446bf9 	ldp	x25, x26, [sp, #64]
    cccc:	f9402bfb 	ldr	x27, [sp, #80]
    ccd0:	d2800000 	mov	x0, #0x0                   	// #0
    ccd4:	a8c77bfd 	ldp	x29, x30, [sp], #112
    ccd8:	d65f03c0 	ret
    ccdc:	910004a5 	add	x5, x5, #0x1
    cce0:	aa1303e0 	mov	x0, x19
    cce4:	f9000e65 	str	x5, [x19, #24]
    cce8:	f90037a2 	str	x2, [x29, #104]
    ccec:	97fff292 	bl	9734 <_ZN9__gnu_cxx27__verbose_terminate_handlerEv@@Base+0x2d94>
    ccf0:	f9402bfb 	ldr	x27, [sp, #80]
    ccf4:	f94037a2 	ldr	x2, [x29, #104]
    ccf8:	aa0003e3 	mov	x3, x0
    ccfc:	a9425bf5 	ldp	x21, x22, [sp, #32]
    cd00:	a94363f7 	ldp	x23, x24, [sp, #48]
    cd04:	a9446bf9 	ldp	x25, x26, [sp, #64]
    cd08:	aa1303e0 	mov	x0, x19
    cd0c:	528005a1 	mov	w1, #0x2d                  	// #45
    cd10:	a94153f3 	ldp	x19, x20, [sp, #16]
    cd14:	a8c77bfd 	ldp	x29, x30, [sp], #112
    cd18:	17ffe786 	b	6b30 <_ZN9__gnu_cxx27__verbose_terminate_handlerEv@@Base+0x190>
    cd1c:	910004a3 	add	x3, x5, #0x1
    cd20:	b9405414 	ldr	w20, [x0, #84]
    cd24:	f9000c03 	str	x3, [x0, #24]
    cd28:	52800035 	mov	w21, #0x1                   	// #1
    cd2c:	b9005415 	str	w21, [x0, #84]
    cd30:	394004a1 	ldrb	w1, [x5, #1]
    cd34:	7101303f 	cmp	w1, #0x4c
    cd38:	540029c0 	b.eq	d270 <_ZN9__gnu_cxx27__verbose_terminate_handlerEv@@Base+0x68d0>  // b.none
    cd3c:	7101503f 	cmp	w1, #0x54
    cd40:	540029e0 	b.eq	d27c <_ZN9__gnu_cxx27__verbose_terminate_handlerEv@@Base+0x68dc>  // b.none
    cd44:	7101cc3f 	cmp	w1, #0x73
    cd48:	54000500 	b.eq	cde8 <_ZN9__gnu_cxx27__verbose_terminate_handlerEv@@Base+0x6448>  // b.none
    cd4c:	7101983f 	cmp	w1, #0x66
    cd50:	540010c0 	b.eq	cf68 <_ZN9__gnu_cxx27__verbose_terminate_handlerEv@@Base+0x65c8>  // b.none
    cd54:	5100c020 	sub	w0, w1, #0x30
    cd58:	53001c00 	uxtb	w0, w0
    cd5c:	7100241f 	cmp	w0, #0x9
    cd60:	54000f09 	b.ls	cf40 <_ZN9__gnu_cxx27__verbose_terminate_handlerEv@@Base+0x65a0>  // b.plast
    cd64:	7101bc3f 	cmp	w1, #0x6f
    cd68:	54000e20 	b.eq	cf2c <_ZN9__gnu_cxx27__verbose_terminate_handlerEv@@Base+0x658c>  // b.none
    cd6c:	7101d03f 	cmp	w1, #0x74
    cd70:	1a9f17e4 	cset	w4, eq	// eq = none
    cd74:	3400c7e4 	cbz	w4, e670 <_ZN9__gnu_cxx27__verbose_terminate_handlerEv@@Base+0x7cd0>
    cd78:	394008a0 	ldrb	w0, [x5, #2]
    cd7c:	7101b01f 	cmp	w0, #0x6c
    cd80:	540003e1 	b.ne	cdfc <_ZN9__gnu_cxx27__verbose_terminate_handlerEv@@Base+0x645c>  // b.any
    cd84:	d2800002 	mov	x2, #0x0                   	// #0
    cd88:	35003604 	cbnz	w4, d448 <_ZN9__gnu_cxx27__verbose_terminate_handlerEv@@Base+0x6aa8>
    cd8c:	91000863 	add	x3, x3, #0x2
    cd90:	528008a1 	mov	w1, #0x45                  	// #69
    cd94:	f9000e63 	str	x3, [x19, #24]
    cd98:	aa1303e0 	mov	x0, x19
    cd9c:	f90037a2 	str	x2, [x29, #104]
    cda0:	97fff090 	bl	8fe0 <_ZN9__gnu_cxx27__verbose_terminate_handlerEv@@Base+0x2640>
    cda4:	aa0003e3 	mov	x3, x0
    cda8:	f94037a2 	ldr	x2, [x29, #104]
    cdac:	aa1303e0 	mov	x0, x19
    cdb0:	52800601 	mov	w1, #0x30                  	// #48
    cdb4:	97ffe75f 	bl	6b30 <_ZN9__gnu_cxx27__verbose_terminate_handlerEv@@Base+0x190>
    cdb8:	aa0003e2 	mov	x2, x0
    cdbc:	b9005674 	str	w20, [x19, #84]
    cdc0:	b4fff7e2 	cbz	x2, ccbc <_ZN9__gnu_cxx27__verbose_terminate_handlerEv@@Base+0x631c>
    cdc4:	f9400e65 	ldr	x5, [x19, #24]
    cdc8:	17ffffba 	b	ccb0 <_ZN9__gnu_cxx27__verbose_terminate_handlerEv@@Base+0x6310>
    cdcc:	910004a0 	add	x0, x5, #0x1
    cdd0:	f9000e60 	str	x0, [x19, #24]
    cdd4:	92800006 	mov	x6, #0xffffffffffffffff    	// #-1
    cdd8:	d2800027 	mov	x7, #0x1                   	// #1
    cddc:	394004a4 	ldrb	w4, [x5, #1]
    cde0:	aa0003e5 	mov	x5, x0
    cde4:	17ffff9f 	b	cc60 <_ZN9__gnu_cxx27__verbose_terminate_handlerEv@@Base+0x62c0>
    cde8:	394008a1 	ldrb	w1, [x5, #2]
    cdec:	7101c83f 	cmp	w1, #0x72
    cdf0:	54002a80 	b.eq	d340 <_ZN9__gnu_cxx27__verbose_terminate_handlerEv@@Base+0x69a0>  // b.none
    cdf4:	7101c03f 	cmp	w1, #0x70
    cdf8:	54002c80 	b.eq	d388 <_ZN9__gnu_cxx27__verbose_terminate_handlerEv@@Base+0x69e8>  // b.none
    cdfc:	aa1303e0 	mov	x0, x19
    ce00:	97fff83b 	bl	aeec <_ZN9__gnu_cxx27__verbose_terminate_handlerEv@@Base+0x454c>
    ce04:	aa0003f5 	mov	x21, x0
    ce08:	b40026a0 	cbz	x0, d2dc <_ZN9__gnu_cxx27__verbose_terminate_handlerEv@@Base+0x693c>
    ce0c:	b9400016 	ldr	w22, [x0]
    ce10:	7100c6df 	cmp	w22, #0x31
    ce14:	540023a0 	b.eq	d288 <_ZN9__gnu_cxx27__verbose_terminate_handlerEv@@Base+0x68e8>  // b.none
    ce18:	7100cadf 	cmp	w22, #0x32
    ce1c:	54000e00 	b.eq	cfdc <_ZN9__gnu_cxx27__verbose_terminate_handlerEv@@Base+0x663c>  // b.none
    ce20:	7100cedf 	cmp	w22, #0x33
    ce24:	540025c1 	b.ne	d2dc <_ZN9__gnu_cxx27__verbose_terminate_handlerEv@@Base+0x693c>  // b.any
    ce28:	7100cedf 	cmp	w22, #0x33
    ce2c:	f9400e60 	ldr	x0, [x19, #24]
    ce30:	54002821 	b.ne	d334 <_ZN9__gnu_cxx27__verbose_terminate_handlerEv@@Base+0x6994>  // b.any
    ce34:	39400001 	ldrb	w1, [x0]
    ce38:	52800016 	mov	w22, #0x0                   	// #0
    ce3c:	71017c3f 	cmp	w1, #0x5f
    ce40:	54002b80 	b.eq	d3b0 <_ZN9__gnu_cxx27__verbose_terminate_handlerEv@@Base+0x6a10>  // b.none
    ce44:	7101303f 	cmp	w1, #0x4c
    ce48:	54006880 	b.eq	db58 <_ZN9__gnu_cxx27__verbose_terminate_handlerEv@@Base+0x71b8>  // b.none
    ce4c:	7101503f 	cmp	w1, #0x54
    ce50:	540065e0 	b.eq	db0c <_ZN9__gnu_cxx27__verbose_terminate_handlerEv@@Base+0x716c>  // b.none
    ce54:	7101cc3f 	cmp	w1, #0x73
    ce58:	540045e0 	b.eq	d714 <_ZN9__gnu_cxx27__verbose_terminate_handlerEv@@Base+0x6d74>  // b.none
    ce5c:	7101983f 	cmp	w1, #0x66
    ce60:	540047a0 	b.eq	d754 <_ZN9__gnu_cxx27__verbose_terminate_handlerEv@@Base+0x6db4>  // b.none
    ce64:	5100c022 	sub	w2, w1, #0x30
    ce68:	53001c42 	uxtb	w2, w2
    ce6c:	7100245f 	cmp	w2, #0x9
    ce70:	54002ca9 	b.ls	d404 <_ZN9__gnu_cxx27__verbose_terminate_handlerEv@@Base+0x6a64>  // b.plast
    ce74:	7101bc3f 	cmp	w1, #0x6f
    ce78:	54002bc0 	b.eq	d3f0 <_ZN9__gnu_cxx27__verbose_terminate_handlerEv@@Base+0x6a50>  // b.none
    ce7c:	7101d03f 	cmp	w1, #0x74
    ce80:	1a9f17e3 	cset	w3, eq	// eq = none
    ce84:	35000063 	cbnz	w3, ce90 <_ZN9__gnu_cxx27__verbose_terminate_handlerEv@@Base+0x64f0>
    ce88:	7101a43f 	cmp	w1, #0x69
    ce8c:	54000081 	b.ne	ce9c <_ZN9__gnu_cxx27__verbose_terminate_handlerEv@@Base+0x64fc>  // b.any
    ce90:	39400401 	ldrb	w1, [x0, #1]
    ce94:	7101b03f 	cmp	w1, #0x6c
    ce98:	54006420 	b.eq	db1c <_ZN9__gnu_cxx27__verbose_terminate_handlerEv@@Base+0x717c>  // b.none
    ce9c:	aa1303e0 	mov	x0, x19
    cea0:	97fff813 	bl	aeec <_ZN9__gnu_cxx27__verbose_terminate_handlerEv@@Base+0x454c>
    cea4:	aa0003f8 	mov	x24, x0
    cea8:	b4007780 	cbz	x0, dd98 <_ZN9__gnu_cxx27__verbose_terminate_handlerEv@@Base+0x73f8>
    ceac:	b9400000 	ldr	w0, [x0]
    ceb0:	7100c41f 	cmp	w0, #0x31
    ceb4:	540073e0 	b.eq	dd30 <_ZN9__gnu_cxx27__verbose_terminate_handlerEv@@Base+0x7390>  // b.none
    ceb8:	7100c81f 	cmp	w0, #0x32
    cebc:	54007260 	b.eq	dd08 <_ZN9__gnu_cxx27__verbose_terminate_handlerEv@@Base+0x7368>  // b.none
    cec0:	7100cc1f 	cmp	w0, #0x33
    cec4:	540076a1 	b.ne	dd98 <_ZN9__gnu_cxx27__verbose_terminate_handlerEv@@Base+0x73f8>  // b.any
    cec8:	f9400e60 	ldr	x0, [x19, #24]
    cecc:	39400001 	ldrb	w1, [x0]
    ced0:	71017c3f 	cmp	w1, #0x5f
    ced4:	5400bae0 	b.eq	e630 <_ZN9__gnu_cxx27__verbose_terminate_handlerEv@@Base+0x7c90>  // b.none
    ced8:	aa1303e0 	mov	x0, x19
    cedc:	97fffd5c 	bl	c44c <_ZN9__gnu_cxx27__verbose_terminate_handlerEv@@Base+0x5aac>
    cee0:	aa0003e3 	mov	x3, x0
    cee4:	aa1303e0 	mov	x0, x19
    cee8:	528006c1 	mov	w1, #0x36                  	// #54
    ceec:	aa1803e2 	mov	x2, x24
    cef0:	97ffe710 	bl	6b30 <_ZN9__gnu_cxx27__verbose_terminate_handlerEv@@Base+0x190>
    cef4:	aa0003f7 	mov	x23, x0
    cef8:	34002696 	cbz	w22, d3c8 <_ZN9__gnu_cxx27__verbose_terminate_handlerEv@@Base+0x6a28>
    cefc:	52800701 	mov	w1, #0x38                  	// #56
    cf00:	aa1703e2 	mov	x2, x23
    cf04:	aa1703e3 	mov	x3, x23
    cf08:	aa1303e0 	mov	x0, x19
    cf0c:	97ffe709 	bl	6b30 <_ZN9__gnu_cxx27__verbose_terminate_handlerEv@@Base+0x190>
    cf10:	aa0003e3 	mov	x3, x0
    cf14:	aa1503e2 	mov	x2, x21
    cf18:	aa1303e0 	mov	x0, x19
    cf1c:	528006c1 	mov	w1, #0x36                  	// #54
    cf20:	97ffe704 	bl	6b30 <_ZN9__gnu_cxx27__verbose_terminate_handlerEv@@Base+0x190>
    cf24:	aa0003e2 	mov	x2, x0
    cf28:	17ffffa5 	b	cdbc <_ZN9__gnu_cxx27__verbose_terminate_handlerEv@@Base+0x641c>
    cf2c:	394008a0 	ldrb	w0, [x5, #2]
    cf30:	7101b81f 	cmp	w0, #0x6e
    cf34:	54fff641 	b.ne	cdfc <_ZN9__gnu_cxx27__verbose_terminate_handlerEv@@Base+0x645c>  // b.any
    cf38:	91000ca5 	add	x5, x5, #0x3
    cf3c:	f9000e65 	str	x5, [x19, #24]
    cf40:	aa1303e0 	mov	x0, x19
    cf44:	97fff867 	bl	b0e0 <_ZN9__gnu_cxx27__verbose_terminate_handlerEv@@Base+0x4740>
    cf48:	aa0003e2 	mov	x2, x0
    cf4c:	b4001c80 	cbz	x0, d2dc <_ZN9__gnu_cxx27__verbose_terminate_handlerEv@@Base+0x693c>
    cf50:	f9400e65 	ldr	x5, [x19, #24]
    cf54:	394000a0 	ldrb	w0, [x5]
    cf58:	7101241f 	cmp	w0, #0x49
    cf5c:	54000520 	b.eq	d000 <_ZN9__gnu_cxx27__verbose_terminate_handlerEv@@Base+0x6660>  // b.none
    cf60:	b9005674 	str	w20, [x19, #84]
    cf64:	17ffff53 	b	ccb0 <_ZN9__gnu_cxx27__verbose_terminate_handlerEv@@Base+0x6310>
    cf68:	394008a1 	ldrb	w1, [x5, #2]
    cf6c:	7101c03f 	cmp	w1, #0x70
    cf70:	54fff461 	b.ne	cdfc <_ZN9__gnu_cxx27__verbose_terminate_handlerEv@@Base+0x645c>  // b.any
    cf74:	91000ca1 	add	x1, x5, #0x3
    cf78:	f9000c01 	str	x1, [x0, #24]
    cf7c:	39400ca1 	ldrb	w1, [x5, #3]
    cf80:	7101503f 	cmp	w1, #0x54
    cf84:	54001b01 	b.ne	d2e4 <_ZN9__gnu_cxx27__verbose_terminate_handlerEv@@Base+0x6944>  // b.any
    cf88:	910010a5 	add	x5, x5, #0x4
    cf8c:	d2800000 	mov	x0, #0x0                   	// #0
    cf90:	f9000e65 	str	x5, [x19, #24]
    cf94:	b9402a62 	ldr	w2, [x19, #40]
    cf98:	b9402e61 	ldr	w1, [x19, #44]
    cf9c:	6b01005f 	cmp	w2, w1
    cfa0:	540019ea 	b.ge	d2dc <_ZN9__gnu_cxx27__verbose_terminate_handlerEv@@Base+0x693c>  // b.tcont
    cfa4:	93407c41 	sxtw	x1, w2
    cfa8:	f9401263 	ldr	x3, [x19, #32]
    cfac:	d37be824 	lsl	x4, x1, #5
    cfb0:	11000442 	add	w2, w2, #0x1
    cfb4:	cb010c81 	sub	x1, x4, x1, lsl #3
    cfb8:	b9002a62 	str	w2, [x19, #40]
    cfbc:	ab010062 	adds	x2, x3, x1
    cfc0:	540018e0 	b.eq	d2dc <_ZN9__gnu_cxx27__verbose_terminate_handlerEv@@Base+0x693c>  // b.none
    cfc4:	528000c4 	mov	w4, #0x6                   	// #6
    cfc8:	b8216864 	str	w4, [x3, x1]
    cfcc:	f9000440 	str	x0, [x2, #8]
    cfd0:	b9005674 	str	w20, [x19, #84]
    cfd4:	f9400e65 	ldr	x5, [x19, #24]
    cfd8:	17ffff36 	b	ccb0 <_ZN9__gnu_cxx27__verbose_terminate_handlerEv@@Base+0x6310>
    cfdc:	b9400aa0 	ldr	w0, [x21, #8]
    cfe0:	71000c1f 	cmp	w0, #0x3
    cfe4:	540017c8 	b.hi	d2dc <_ZN9__gnu_cxx27__verbose_terminate_handlerEv@@Base+0x693c>  // b.pmore
    cfe8:	90000061 	adrp	x1, 18000 <_ZTSN10__cxxabiv117__class_type_infoE@@Base>
    cfec:	910f9021 	add	x1, x1, #0x3e4
    cff0:	38604820 	ldrb	w0, [x1, w0, uxtw]
    cff4:	10000061 	adr	x1, d000 <_ZN9__gnu_cxx27__verbose_terminate_handlerEv@@Base+0x6660>
    cff8:	8b208820 	add	x0, x1, w0, sxtb #2
    cffc:	d61f0000 	br	x0
    d000:	aa1303e0 	mov	x0, x19
    d004:	f90037a2 	str	x2, [x29, #104]
    d008:	97ffeabb 	bl	7af4 <_ZN9__gnu_cxx27__verbose_terminate_handlerEv@@Base+0x1154>
    d00c:	aa0003e3 	mov	x3, x0
    d010:	f94037a2 	ldr	x2, [x29, #104]
    d014:	aa1303e0 	mov	x0, x19
    d018:	52800081 	mov	w1, #0x4                   	// #4
    d01c:	97ffe6c5 	bl	6b30 <_ZN9__gnu_cxx27__verbose_terminate_handlerEv@@Base+0x190>
    d020:	aa0003e2 	mov	x2, x0
    d024:	17ffff66 	b	cdbc <_ZN9__gnu_cxx27__verbose_terminate_handlerEv@@Base+0x641c>
    d028:	aa1503e2 	mov	x2, x21
    d02c:	aa1303e0 	mov	x0, x19
    d030:	528006a1 	mov	w1, #0x35                  	// #53
    d034:	d2800003 	mov	x3, #0x0                   	// #0
    d038:	97ffe6be 	bl	6b30 <_ZN9__gnu_cxx27__verbose_terminate_handlerEv@@Base+0x190>
    d03c:	aa0003e2 	mov	x2, x0
    d040:	17ffff5f 	b	cdbc <_ZN9__gnu_cxx27__verbose_terminate_handlerEv@@Base+0x641c>
    d044:	d2800017 	mov	x23, #0x0                   	// #0
    d048:	f0000058 	adrp	x24, 18000 <_ZTSN10__cxxabiv117__class_type_infoE@@Base>
    d04c:	aa1703e0 	mov	x0, x23
    d050:	91166301 	add	x1, x24, #0x598
    d054:	97ffde73 	bl	4a20 <strcmp@plt>
    d058:	34002280 	cbz	w0, d4a8 <_ZN9__gnu_cxx27__verbose_terminate_handlerEv@@Base+0x6b08>
    d05c:	394002e0 	ldrb	w0, [x23]
    d060:	7101b81f 	cmp	w0, #0x6e
    d064:	540013c1 	b.ne	d2dc <_ZN9__gnu_cxx27__verbose_terminate_handlerEv@@Base+0x693c>  // b.any
    d068:	394006e0 	ldrb	w0, [x23, #1]
    d06c:	7101841f 	cmp	w0, #0x61
    d070:	54000060 	b.eq	d07c <_ZN9__gnu_cxx27__verbose_terminate_handlerEv@@Base+0x66dc>  // b.none
    d074:	7101dc1f 	cmp	w0, #0x77
    d078:	54001321 	b.ne	d2dc <_ZN9__gnu_cxx27__verbose_terminate_handlerEv@@Base+0x693c>  // b.any
    d07c:	52800be1 	mov	w1, #0x5f                  	// #95
    d080:	aa1303e0 	mov	x0, x19
    d084:	97ffefd7 	bl	8fe0 <_ZN9__gnu_cxx27__verbose_terminate_handlerEv@@Base+0x2640>
    d088:	aa0003f6 	mov	x22, x0
    d08c:	aa1303e0 	mov	x0, x19
    d090:	97fff1a9 	bl	9734 <_ZN9__gnu_cxx27__verbose_terminate_handlerEv@@Base+0x2d94>
    d094:	aa0003f9 	mov	x25, x0
    d098:	f9400e60 	ldr	x0, [x19, #24]
    d09c:	39400001 	ldrb	w1, [x0]
    d0a0:	7101143f 	cmp	w1, #0x45
    d0a4:	54004400 	b.eq	d924 <_ZN9__gnu_cxx27__verbose_terminate_handlerEv@@Base+0x6f84>  // b.none
    d0a8:	7101c03f 	cmp	w1, #0x70
    d0ac:	54005f60 	b.eq	dc98 <_ZN9__gnu_cxx27__verbose_terminate_handlerEv@@Base+0x72f8>  // b.none
    d0b0:	7101a43f 	cmp	w1, #0x69
    d0b4:	54001141 	b.ne	d2dc <_ZN9__gnu_cxx27__verbose_terminate_handlerEv@@Base+0x693c>  // b.any
    d0b8:	39400400 	ldrb	w0, [x0, #1]
    d0bc:	7101b01f 	cmp	w0, #0x6c
    d0c0:	540010e1 	b.ne	d2dc <_ZN9__gnu_cxx27__verbose_terminate_handlerEv@@Base+0x693c>  // b.any
    d0c4:	aa1303e0 	mov	x0, x19
    d0c8:	97fffce1 	bl	c44c <_ZN9__gnu_cxx27__verbose_terminate_handlerEv@@Base+0x5aac>
    d0cc:	aa0003f7 	mov	x23, x0
    d0d0:	52800761 	mov	w1, #0x3b                  	// #59
    d0d4:	aa1903e2 	mov	x2, x25
    d0d8:	aa1703e3 	mov	x3, x23
    d0dc:	aa1303e0 	mov	x0, x19
    d0e0:	97ffe694 	bl	6b30 <_ZN9__gnu_cxx27__verbose_terminate_handlerEv@@Base+0x190>
    d0e4:	aa0003e3 	mov	x3, x0
    d0e8:	52800741 	mov	w1, #0x3a                  	// #58
    d0ec:	aa1603e2 	mov	x2, x22
    d0f0:	aa1303e0 	mov	x0, x19
    d0f4:	97ffe68f 	bl	6b30 <_ZN9__gnu_cxx27__verbose_terminate_handlerEv@@Base+0x190>
    d0f8:	aa0003e3 	mov	x3, x0
    d0fc:	aa1503e2 	mov	x2, x21
    d100:	aa1303e0 	mov	x0, x19
    d104:	52800721 	mov	w1, #0x39                  	// #57
    d108:	97ffe68a 	bl	6b30 <_ZN9__gnu_cxx27__verbose_terminate_handlerEv@@Base+0x190>
    d10c:	aa0003e2 	mov	x2, x0
    d110:	17ffff2b 	b	cdbc <_ZN9__gnu_cxx27__verbose_terminate_handlerEv@@Base+0x641c>
    d114:	d2800017 	mov	x23, #0x0                   	// #0
    d118:	f94006a0 	ldr	x0, [x21, #8]
    d11c:	f9400000 	ldr	x0, [x0]
    d120:	39400401 	ldrb	w1, [x0, #1]
    d124:	71018c3f 	cmp	w1, #0x63
    d128:	54001a40 	b.eq	d470 <_ZN9__gnu_cxx27__verbose_terminate_handlerEv@@Base+0x6ad0>  // b.none
    d12c:	f9400e60 	ldr	x0, [x19, #24]
    d130:	39400001 	ldrb	w1, [x0]
    d134:	7101303f 	cmp	w1, #0x4c
    d138:	540074a0 	b.eq	dfcc <_ZN9__gnu_cxx27__verbose_terminate_handlerEv@@Base+0x762c>  // b.none
    d13c:	7101503f 	cmp	w1, #0x54
    d140:	540073c0 	b.eq	dfb8 <_ZN9__gnu_cxx27__verbose_terminate_handlerEv@@Base+0x7618>  // b.none
    d144:	7101cc3f 	cmp	w1, #0x73
    d148:	54004400 	b.eq	d9c8 <_ZN9__gnu_cxx27__verbose_terminate_handlerEv@@Base+0x7028>  // b.none
    d14c:	7101983f 	cmp	w1, #0x66
    d150:	54004040 	b.eq	d958 <_ZN9__gnu_cxx27__verbose_terminate_handlerEv@@Base+0x6fb8>  // b.none
    d154:	5100c022 	sub	w2, w1, #0x30
    d158:	53001c42 	uxtb	w2, w2
    d15c:	7100245f 	cmp	w2, #0x9
    d160:	540033c9 	b.ls	d7d8 <_ZN9__gnu_cxx27__verbose_terminate_handlerEv@@Base+0x6e38>  // b.plast
    d164:	7101bc3f 	cmp	w1, #0x6f
    d168:	540032e0 	b.eq	d7c4 <_ZN9__gnu_cxx27__verbose_terminate_handlerEv@@Base+0x6e24>  // b.none
    d16c:	7101d03f 	cmp	w1, #0x74
    d170:	1a9f17e3 	cset	w3, eq	// eq = none
    d174:	35000063 	cbnz	w3, d180 <_ZN9__gnu_cxx27__verbose_terminate_handlerEv@@Base+0x67e0>
    d178:	7101a43f 	cmp	w1, #0x69
    d17c:	54000081 	b.ne	d18c <_ZN9__gnu_cxx27__verbose_terminate_handlerEv@@Base+0x67ec>  // b.any
    d180:	39400401 	ldrb	w1, [x0, #1]
    d184:	7101b03f 	cmp	w1, #0x6c
    d188:	540072c0 	b.eq	dfe0 <_ZN9__gnu_cxx27__verbose_terminate_handlerEv@@Base+0x7640>  // b.none
    d18c:	aa1303e0 	mov	x0, x19
    d190:	97fff757 	bl	aeec <_ZN9__gnu_cxx27__verbose_terminate_handlerEv@@Base+0x454c>
    d194:	aa0003f6 	mov	x22, x0
    d198:	b4006fe0 	cbz	x0, df94 <_ZN9__gnu_cxx27__verbose_terminate_handlerEv@@Base+0x75f4>
    d19c:	b9400000 	ldr	w0, [x0]
    d1a0:	7100c41f 	cmp	w0, #0x31
    d1a4:	54006da0 	b.eq	df58 <_ZN9__gnu_cxx27__verbose_terminate_handlerEv@@Base+0x75b8>  // b.none
    d1a8:	7100c81f 	cmp	w0, #0x32
    d1ac:	5400ea20 	b.eq	eef0 <_ZN9__gnu_cxx27__verbose_terminate_handlerEv@@Base+0x8550>  // b.none
    d1b0:	7100cc1f 	cmp	w0, #0x33
    d1b4:	54006f01 	b.ne	df94 <_ZN9__gnu_cxx27__verbose_terminate_handlerEv@@Base+0x75f4>  // b.any
    d1b8:	f9400e60 	ldr	x0, [x19, #24]
    d1bc:	39400001 	ldrb	w1, [x0]
    d1c0:	71017c3f 	cmp	w1, #0x5f
    d1c4:	5400e880 	b.eq	eed4 <_ZN9__gnu_cxx27__verbose_terminate_handlerEv@@Base+0x8534>  // b.none
    d1c8:	aa1303e0 	mov	x0, x19
    d1cc:	97fffca0 	bl	c44c <_ZN9__gnu_cxx27__verbose_terminate_handlerEv@@Base+0x5aac>
    d1d0:	aa0003e3 	mov	x3, x0
    d1d4:	aa1603e2 	mov	x2, x22
    d1d8:	aa1303e0 	mov	x0, x19
    d1dc:	528006c1 	mov	w1, #0x36                  	// #54
    d1e0:	f0000058 	adrp	x24, 18000 <_ZTSN10__cxxabiv117__class_type_infoE@@Base>
    d1e4:	97ffe653 	bl	6b30 <_ZN9__gnu_cxx27__verbose_terminate_handlerEv@@Base+0x190>
    d1e8:	aa0003f6 	mov	x22, x0
    d1ec:	aa1703e0 	mov	x0, x23
    d1f0:	91160301 	add	x1, x24, #0x580
    d1f4:	97ffde0b 	bl	4a20 <strcmp@plt>
    d1f8:	34001320 	cbz	w0, d45c <_ZN9__gnu_cxx27__verbose_terminate_handlerEv@@Base+0x6abc>
    d1fc:	f0000041 	adrp	x1, 18000 <_ZTSN10__cxxabiv117__class_type_infoE@@Base>
    d200:	aa1703e0 	mov	x0, x23
    d204:	91162021 	add	x1, x1, #0x588
    d208:	97ffde06 	bl	4a20 <strcmp@plt>
    d20c:	340000c0 	cbz	w0, d224 <_ZN9__gnu_cxx27__verbose_terminate_handlerEv@@Base+0x6884>
    d210:	f0000041 	adrp	x1, 18000 <_ZTSN10__cxxabiv117__class_type_infoE@@Base>
    d214:	aa1703e0 	mov	x0, x23
    d218:	91164021 	add	x1, x1, #0x590
    d21c:	97ffde01 	bl	4a20 <strcmp@plt>
    d220:	35003f60 	cbnz	w0, da0c <_ZN9__gnu_cxx27__verbose_terminate_handlerEv@@Base+0x706c>
    d224:	aa1303e0 	mov	x0, x19
    d228:	97fff7ae 	bl	b0e0 <_ZN9__gnu_cxx27__verbose_terminate_handlerEv@@Base+0x4740>
    d22c:	aa0003f7 	mov	x23, x0
    d230:	f9400e60 	ldr	x0, [x19, #24]
    d234:	39400000 	ldrb	w0, [x0]
    d238:	7101241f 	cmp	w0, #0x49
    d23c:	540037c0 	b.eq	d934 <_ZN9__gnu_cxx27__verbose_terminate_handlerEv@@Base+0x6f94>  // b.none
    d240:	52800701 	mov	w1, #0x38                  	// #56
    d244:	aa1603e2 	mov	x2, x22
    d248:	aa1703e3 	mov	x3, x23
    d24c:	aa1303e0 	mov	x0, x19
    d250:	97ffe638 	bl	6b30 <_ZN9__gnu_cxx27__verbose_terminate_handlerEv@@Base+0x190>
    d254:	aa0003e3 	mov	x3, x0
    d258:	aa1503e2 	mov	x2, x21
    d25c:	aa1303e0 	mov	x0, x19
    d260:	528006e1 	mov	w1, #0x37                  	// #55
    d264:	97ffe633 	bl	6b30 <_ZN9__gnu_cxx27__verbose_terminate_handlerEv@@Base+0x190>
    d268:	aa0003e2 	mov	x2, x0
    d26c:	17fffed4 	b	cdbc <_ZN9__gnu_cxx27__verbose_terminate_handlerEv@@Base+0x641c>
    d270:	97fffc19 	bl	c2d4 <_ZN9__gnu_cxx27__verbose_terminate_handlerEv@@Base+0x5934>
    d274:	aa0003e2 	mov	x2, x0
    d278:	17fffed1 	b	cdbc <_ZN9__gnu_cxx27__verbose_terminate_handlerEv@@Base+0x641c>
    d27c:	97ffe9a8 	bl	791c <_ZN9__gnu_cxx27__verbose_terminate_handlerEv@@Base+0xf7c>
    d280:	aa0003e2 	mov	x2, x0
    d284:	17fffece 	b	cdbc <_ZN9__gnu_cxx27__verbose_terminate_handlerEv@@Base+0x641c>
    d288:	f9400418 	ldr	x24, [x0, #8]
    d28c:	f0000041 	adrp	x1, 18000 <_ZTSN10__cxxabiv117__class_type_infoE@@Base>
    d290:	b9405262 	ldr	w2, [x19, #80]
    d294:	912c0021 	add	x1, x1, #0xb00
    d298:	b9401300 	ldr	w0, [x24, #16]
    d29c:	f9400317 	ldr	x23, [x24]
    d2a0:	51000800 	sub	w0, w0, #0x2
    d2a4:	0b000042 	add	w2, w2, w0
    d2a8:	aa1703e0 	mov	x0, x23
    d2ac:	b9005262 	str	w2, [x19, #80]
    d2b0:	97ffdddc 	bl	4a20 <strcmp@plt>
    d2b4:	34000980 	cbz	w0, d3e4 <_ZN9__gnu_cxx27__verbose_terminate_handlerEv@@Base+0x6a44>
    d2b8:	b9401700 	ldr	w0, [x24, #20]
    d2bc:	71000c1f 	cmp	w0, #0x3
    d2c0:	540000e8 	b.hi	d2dc <_ZN9__gnu_cxx27__verbose_terminate_handlerEv@@Base+0x693c>  // b.pmore
    d2c4:	f0000041 	adrp	x1, 18000 <_ZTSN10__cxxabiv117__class_type_infoE@@Base>
    d2c8:	910fa021 	add	x1, x1, #0x3e8
    d2cc:	78605820 	ldrh	w0, [x1, w0, uxtw #1]
    d2d0:	10000061 	adr	x1, d2dc <_ZN9__gnu_cxx27__verbose_terminate_handlerEv@@Base+0x693c>
    d2d4:	8b20a820 	add	x0, x1, w0, sxth #2
    d2d8:	d61f0000 	br	x0
    d2dc:	b9005674 	str	w20, [x19, #84]
    d2e0:	17fffe77 	b	ccbc <_ZN9__gnu_cxx27__verbose_terminate_handlerEv@@Base+0x631c>
    d2e4:	97ffe942 	bl	77ec <_ZN9__gnu_cxx27__verbose_terminate_handlerEv@@Base+0xe4c>
    d2e8:	31000400 	adds	w0, w0, #0x1
    d2ec:	54ffff80 	b.eq	d2dc <_ZN9__gnu_cxx27__verbose_terminate_handlerEv@@Base+0x693c>  // b.none
    d2f0:	93407c00 	sxtw	x0, w0
    d2f4:	17ffff28 	b	cf94 <_ZN9__gnu_cxx27__verbose_terminate_handlerEv@@Base+0x65f4>
    d2f8:	394002e0 	ldrb	w0, [x23]
    d2fc:	7101b41f 	cmp	w0, #0x6d
    d300:	54000060 	b.eq	d30c <_ZN9__gnu_cxx27__verbose_terminate_handlerEv@@Base+0x696c>  // b.none
    d304:	7101c01f 	cmp	w0, #0x70
    d308:	54ffd901 	b.ne	ce28 <_ZN9__gnu_cxx27__verbose_terminate_handlerEv@@Base+0x6488>  // b.any
    d30c:	394006e1 	ldrb	w1, [x23, #1]
    d310:	6b00003f 	cmp	w1, w0
    d314:	54ffd8a1 	b.ne	ce28 <_ZN9__gnu_cxx27__verbose_terminate_handlerEv@@Base+0x6488>  // b.any
    d318:	f9400e60 	ldr	x0, [x19, #24]
    d31c:	52800036 	mov	w22, #0x1                   	// #1
    d320:	39400001 	ldrb	w1, [x0]
    d324:	71017c3f 	cmp	w1, #0x5f
    d328:	54ffd8e1 	b.ne	ce44 <_ZN9__gnu_cxx27__verbose_terminate_handlerEv@@Base+0x64a4>  // b.any
    d32c:	91000400 	add	x0, x0, #0x1
    d330:	f9000e60 	str	x0, [x19, #24]
    d334:	39400001 	ldrb	w1, [x0]
    d338:	52800016 	mov	w22, #0x0                   	// #0
    d33c:	17fffec2 	b	ce44 <_ZN9__gnu_cxx27__verbose_terminate_handlerEv@@Base+0x64a4>
    d340:	91000ca5 	add	x5, x5, #0x3
    d344:	f9000c05 	str	x5, [x0, #24]
    d348:	97fff0fb 	bl	9734 <_ZN9__gnu_cxx27__verbose_terminate_handlerEv@@Base+0x2d94>
    d34c:	aa0003f6 	mov	x22, x0
    d350:	aa1303e0 	mov	x0, x19
    d354:	97fff763 	bl	b0e0 <_ZN9__gnu_cxx27__verbose_terminate_handlerEv@@Base+0x4740>
    d358:	aa0003f7 	mov	x23, x0
    d35c:	f9400e60 	ldr	x0, [x19, #24]
    d360:	39400000 	ldrb	w0, [x0]
    d364:	7101241f 	cmp	w0, #0x49
    d368:	aa1303e0 	mov	x0, x19
    d36c:	54001ba0 	b.eq	d6e0 <_ZN9__gnu_cxx27__verbose_terminate_handlerEv@@Base+0x6d40>  // b.none
    d370:	aa1603e2 	mov	x2, x22
    d374:	2a1503e1 	mov	w1, w21
    d378:	aa1703e3 	mov	x3, x23
    d37c:	97ffe5ed 	bl	6b30 <_ZN9__gnu_cxx27__verbose_terminate_handlerEv@@Base+0x190>
    d380:	aa0003e2 	mov	x2, x0
    d384:	17fffe8e 	b	cdbc <_ZN9__gnu_cxx27__verbose_terminate_handlerEv@@Base+0x641c>
    d388:	91000ca5 	add	x5, x5, #0x3
    d38c:	f9000c05 	str	x5, [x0, #24]
    d390:	97fffc2f 	bl	c44c <_ZN9__gnu_cxx27__verbose_terminate_handlerEv@@Base+0x5aac>
    d394:	aa0003e2 	mov	x2, x0
    d398:	52800941 	mov	w1, #0x4a                  	// #74
    d39c:	aa1303e0 	mov	x0, x19
    d3a0:	d2800003 	mov	x3, #0x0                   	// #0
    d3a4:	97ffe5e3 	bl	6b30 <_ZN9__gnu_cxx27__verbose_terminate_handlerEv@@Base+0x190>
    d3a8:	aa0003e2 	mov	x2, x0
    d3ac:	17fffe84 	b	cdbc <_ZN9__gnu_cxx27__verbose_terminate_handlerEv@@Base+0x641c>
    d3b0:	91000401 	add	x1, x0, #0x1
    d3b4:	aa1303e0 	mov	x0, x19
    d3b8:	f9000e61 	str	x1, [x19, #24]
    d3bc:	528008a1 	mov	w1, #0x45                  	// #69
    d3c0:	97ffef08 	bl	8fe0 <_ZN9__gnu_cxx27__verbose_terminate_handlerEv@@Base+0x2640>
    d3c4:	aa0003f7 	mov	x23, x0
    d3c8:	aa1503e2 	mov	x2, x21
    d3cc:	aa1303e0 	mov	x0, x19
    d3d0:	528006c1 	mov	w1, #0x36                  	// #54
    d3d4:	aa1703e3 	mov	x3, x23
    d3d8:	97ffe5d6 	bl	6b30 <_ZN9__gnu_cxx27__verbose_terminate_handlerEv@@Base+0x190>
    d3dc:	aa0003e2 	mov	x2, x0
    d3e0:	17fffe77 	b	cdbc <_ZN9__gnu_cxx27__verbose_terminate_handlerEv@@Base+0x641c>
    d3e4:	aa1303e0 	mov	x0, x19
    d3e8:	97fff0d3 	bl	9734 <_ZN9__gnu_cxx27__verbose_terminate_handlerEv@@Base+0x2d94>
    d3ec:	17fffec9 	b	cf10 <_ZN9__gnu_cxx27__verbose_terminate_handlerEv@@Base+0x6570>
    d3f0:	39400401 	ldrb	w1, [x0, #1]
    d3f4:	7101b83f 	cmp	w1, #0x6e
    d3f8:	54ffd521 	b.ne	ce9c <_ZN9__gnu_cxx27__verbose_terminate_handlerEv@@Base+0x64fc>  // b.any
    d3fc:	91000800 	add	x0, x0, #0x2
    d400:	f9000e60 	str	x0, [x19, #24]
    d404:	aa1303e0 	mov	x0, x19
    d408:	97fff736 	bl	b0e0 <_ZN9__gnu_cxx27__verbose_terminate_handlerEv@@Base+0x4740>
    d40c:	aa0003f7 	mov	x23, x0
    d410:	b4ffd740 	cbz	x0, cef8 <_ZN9__gnu_cxx27__verbose_terminate_handlerEv@@Base+0x6558>
    d414:	f9400e60 	ldr	x0, [x19, #24]
    d418:	39400000 	ldrb	w0, [x0]
    d41c:	7101241f 	cmp	w0, #0x49
    d420:	54ffd6c1 	b.ne	cef8 <_ZN9__gnu_cxx27__verbose_terminate_handlerEv@@Base+0x6558>  // b.any
    d424:	aa1303e0 	mov	x0, x19
    d428:	97ffe9b3 	bl	7af4 <_ZN9__gnu_cxx27__verbose_terminate_handlerEv@@Base+0x1154>
    d42c:	aa0003e3 	mov	x3, x0
    d430:	aa1703e2 	mov	x2, x23
    d434:	aa1303e0 	mov	x0, x19
    d438:	52800081 	mov	w1, #0x4                   	// #4
    d43c:	97ffe5bd 	bl	6b30 <_ZN9__gnu_cxx27__verbose_terminate_handlerEv@@Base+0x190>
    d440:	aa0003f7 	mov	x23, x0
    d444:	17fffead 	b	cef8 <_ZN9__gnu_cxx27__verbose_terminate_handlerEv@@Base+0x6558>
    d448:	aa1303e0 	mov	x0, x19
    d44c:	97fff0ba 	bl	9734 <_ZN9__gnu_cxx27__verbose_terminate_handlerEv@@Base+0x2d94>
    d450:	aa0003e2 	mov	x2, x0
    d454:	f9400e63 	ldr	x3, [x19, #24]
    d458:	17fffe4d 	b	cd8c <_ZN9__gnu_cxx27__verbose_terminate_handlerEv@@Base+0x63ec>
    d45c:	aa1303e0 	mov	x0, x19
    d460:	528008a1 	mov	w1, #0x45                  	// #69
    d464:	97ffeedf 	bl	8fe0 <_ZN9__gnu_cxx27__verbose_terminate_handlerEv@@Base+0x2640>
    d468:	aa0003f7 	mov	x23, x0
    d46c:	17ffff75 	b	d240 <_ZN9__gnu_cxx27__verbose_terminate_handlerEv@@Base+0x68a0>
    d470:	39400000 	ldrb	w0, [x0]
    d474:	5101c801 	sub	w1, w0, #0x72
    d478:	53001c21 	uxtb	w1, w1
    d47c:	7100043f 	cmp	w1, #0x1
    d480:	540000a9 	b.ls	d494 <_ZN9__gnu_cxx27__verbose_terminate_handlerEv@@Base+0x6af4>  // b.plast
    d484:	51018c00 	sub	w0, w0, #0x63
    d488:	53001c00 	uxtb	w0, w0
    d48c:	7100041f 	cmp	w0, #0x1
    d490:	54ffe4e8 	b.hi	d12c <_ZN9__gnu_cxx27__verbose_terminate_handlerEv@@Base+0x678c>  // b.pmore
    d494:	aa1303e0 	mov	x0, x19
    d498:	f0000058 	adrp	x24, 18000 <_ZTSN10__cxxabiv117__class_type_infoE@@Base>
    d49c:	97fff0a6 	bl	9734 <_ZN9__gnu_cxx27__verbose_terminate_handlerEv@@Base+0x2d94>
    d4a0:	aa0003f6 	mov	x22, x0
    d4a4:	17ffff52 	b	d1ec <_ZN9__gnu_cxx27__verbose_terminate_handlerEv@@Base+0x684c>
    d4a8:	f9400e60 	ldr	x0, [x19, #24]
    d4ac:	39400001 	ldrb	w1, [x0]
    d4b0:	7101303f 	cmp	w1, #0x4c
    d4b4:	540090a0 	b.eq	e6c8 <_ZN9__gnu_cxx27__verbose_terminate_handlerEv@@Base+0x7d28>  // b.none
    d4b8:	7101503f 	cmp	w1, #0x54
    d4bc:	54008840 	b.eq	e5c4 <_ZN9__gnu_cxx27__verbose_terminate_handlerEv@@Base+0x7c24>  // b.none
    d4c0:	7101cc3f 	cmp	w1, #0x73
    d4c4:	54003fe0 	b.eq	dcc0 <_ZN9__gnu_cxx27__verbose_terminate_handlerEv@@Base+0x7320>  // b.none
    d4c8:	7101983f 	cmp	w1, #0x66
    d4cc:	54003ac0 	b.eq	dc24 <_ZN9__gnu_cxx27__verbose_terminate_handlerEv@@Base+0x7284>  // b.none
    d4d0:	5100c022 	sub	w2, w1, #0x30
    d4d4:	53001c42 	uxtb	w2, w2
    d4d8:	7100245f 	cmp	w2, #0x9
    d4dc:	54002089 	b.ls	d8ec <_ZN9__gnu_cxx27__verbose_terminate_handlerEv@@Base+0x6f4c>  // b.plast
    d4e0:	7101bc3f 	cmp	w1, #0x6f
    d4e4:	54001fa0 	b.eq	d8d8 <_ZN9__gnu_cxx27__verbose_terminate_handlerEv@@Base+0x6f38>  // b.none
    d4e8:	7101d03f 	cmp	w1, #0x74
    d4ec:	1a9f17e3 	cset	w3, eq	// eq = none
    d4f0:	35000063 	cbnz	w3, d4fc <_ZN9__gnu_cxx27__verbose_terminate_handlerEv@@Base+0x6b5c>
    d4f4:	7101a43f 	cmp	w1, #0x69
    d4f8:	54000081 	b.ne	d508 <_ZN9__gnu_cxx27__verbose_terminate_handlerEv@@Base+0x6b68>  // b.any
    d4fc:	39400401 	ldrb	w1, [x0, #1]
    d500:	7101b03f 	cmp	w1, #0x6c
    d504:	5400af60 	b.eq	eaf0 <_ZN9__gnu_cxx27__verbose_terminate_handlerEv@@Base+0x8150>  // b.none
    d508:	aa1303e0 	mov	x0, x19
    d50c:	97fff678 	bl	aeec <_ZN9__gnu_cxx27__verbose_terminate_handlerEv@@Base+0x454c>
    d510:	aa0003f6 	mov	x22, x0
    d514:	b4003f40 	cbz	x0, dcfc <_ZN9__gnu_cxx27__verbose_terminate_handlerEv@@Base+0x735c>
    d518:	b9400000 	ldr	w0, [x0]
    d51c:	7100c41f 	cmp	w0, #0x31
    d520:	5400abc0 	b.eq	ea98 <_ZN9__gnu_cxx27__verbose_terminate_handlerEv@@Base+0x80f8>  // b.none
    d524:	7100c81f 	cmp	w0, #0x32
    d528:	54009100 	b.eq	e748 <_ZN9__gnu_cxx27__verbose_terminate_handlerEv@@Base+0x7da8>  // b.none
    d52c:	7100cc1f 	cmp	w0, #0x33
    d530:	54002d61 	b.ne	dadc <_ZN9__gnu_cxx27__verbose_terminate_handlerEv@@Base+0x713c>  // b.any
    d534:	f9400e60 	ldr	x0, [x19, #24]
    d538:	39400001 	ldrb	w1, [x0]
    d53c:	71017c3f 	cmp	w1, #0x5f
    d540:	54008f60 	b.eq	e72c <_ZN9__gnu_cxx27__verbose_terminate_handlerEv@@Base+0x7d8c>  // b.none
    d544:	aa1303e0 	mov	x0, x19
    d548:	97fffbc1 	bl	c44c <_ZN9__gnu_cxx27__verbose_terminate_handlerEv@@Base+0x5aac>
    d54c:	aa0003e3 	mov	x3, x0
    d550:	aa1303e0 	mov	x0, x19
    d554:	528006c1 	mov	w1, #0x36                  	// #54
    d558:	aa1603e2 	mov	x2, x22
    d55c:	97ffe575 	bl	6b30 <_ZN9__gnu_cxx27__verbose_terminate_handlerEv@@Base+0x190>
    d560:	aa0003f6 	mov	x22, x0
    d564:	f9400e60 	ldr	x0, [x19, #24]
    d568:	39400001 	ldrb	w1, [x0]
    d56c:	7101303f 	cmp	w1, #0x4c
    d570:	54008d20 	b.eq	e714 <_ZN9__gnu_cxx27__verbose_terminate_handlerEv@@Base+0x7d74>  // b.none
    d574:	7101503f 	cmp	w1, #0x54
    d578:	54005c80 	b.eq	e108 <_ZN9__gnu_cxx27__verbose_terminate_handlerEv@@Base+0x7768>  // b.none
    d57c:	7101cc3f 	cmp	w1, #0x73
    d580:	540032e0 	b.eq	dbdc <_ZN9__gnu_cxx27__verbose_terminate_handlerEv@@Base+0x723c>  // b.none
    d584:	7101983f 	cmp	w1, #0x66
    d588:	54002f00 	b.eq	db68 <_ZN9__gnu_cxx27__verbose_terminate_handlerEv@@Base+0x71c8>  // b.none
    d58c:	5100c022 	sub	w2, w1, #0x30
    d590:	53001c42 	uxtb	w2, w2
    d594:	7100245f 	cmp	w2, #0x9
    d598:	540017a9 	b.ls	d88c <_ZN9__gnu_cxx27__verbose_terminate_handlerEv@@Base+0x6eec>  // b.plast
    d59c:	7101bc3f 	cmp	w1, #0x6f
    d5a0:	540016c0 	b.eq	d878 <_ZN9__gnu_cxx27__verbose_terminate_handlerEv@@Base+0x6ed8>  // b.none
    d5a4:	7101d03f 	cmp	w1, #0x74
    d5a8:	1a9f17e3 	cset	w3, eq	// eq = none
    d5ac:	35000063 	cbnz	w3, d5b8 <_ZN9__gnu_cxx27__verbose_terminate_handlerEv@@Base+0x6c18>
    d5b0:	7101a43f 	cmp	w1, #0x69
    d5b4:	54000081 	b.ne	d5c4 <_ZN9__gnu_cxx27__verbose_terminate_handlerEv@@Base+0x6c24>  // b.any
    d5b8:	39400401 	ldrb	w1, [x0, #1]
    d5bc:	7101b03f 	cmp	w1, #0x6c
    d5c0:	54007d80 	b.eq	e570 <_ZN9__gnu_cxx27__verbose_terminate_handlerEv@@Base+0x7bd0>  // b.none
    d5c4:	aa1303e0 	mov	x0, x19
    d5c8:	97fff649 	bl	aeec <_ZN9__gnu_cxx27__verbose_terminate_handlerEv@@Base+0x454c>
    d5cc:	aa0003f7 	mov	x23, x0
    d5d0:	b4002960 	cbz	x0, dafc <_ZN9__gnu_cxx27__verbose_terminate_handlerEv@@Base+0x715c>
    d5d4:	b9400000 	ldr	w0, [x0]
    d5d8:	7100c41f 	cmp	w0, #0x31
    d5dc:	5400e2c0 	b.eq	f234 <_ZN9__gnu_cxx27__verbose_terminate_handlerEv@@Base+0x8894>  // b.none
    d5e0:	7100c81f 	cmp	w0, #0x32
    d5e4:	5400a480 	b.eq	ea74 <_ZN9__gnu_cxx27__verbose_terminate_handlerEv@@Base+0x80d4>  // b.none
    d5e8:	7100cc1f 	cmp	w0, #0x33
    d5ec:	54002881 	b.ne	dafc <_ZN9__gnu_cxx27__verbose_terminate_handlerEv@@Base+0x715c>  // b.any
    d5f0:	f9400e60 	ldr	x0, [x19, #24]
    d5f4:	39400001 	ldrb	w1, [x0]
    d5f8:	71017c3f 	cmp	w1, #0x5f
    d5fc:	5400a2e0 	b.eq	ea58 <_ZN9__gnu_cxx27__verbose_terminate_handlerEv@@Base+0x80b8>  // b.none
    d600:	aa1303e0 	mov	x0, x19
    d604:	97fffb92 	bl	c44c <_ZN9__gnu_cxx27__verbose_terminate_handlerEv@@Base+0x5aac>
    d608:	aa0003e3 	mov	x3, x0
    d60c:	aa1303e0 	mov	x0, x19
    d610:	528006c1 	mov	w1, #0x36                  	// #54
    d614:	aa1703e2 	mov	x2, x23
    d618:	97ffe546 	bl	6b30 <_ZN9__gnu_cxx27__verbose_terminate_handlerEv@@Base+0x190>
    d61c:	aa0003f9 	mov	x25, x0
    d620:	f9400e60 	ldr	x0, [x19, #24]
    d624:	39400001 	ldrb	w1, [x0]
    d628:	7101303f 	cmp	w1, #0x4c
    d62c:	5400a0e0 	b.eq	ea48 <_ZN9__gnu_cxx27__verbose_terminate_handlerEv@@Base+0x80a8>  // b.none
    d630:	7101503f 	cmp	w1, #0x54
    d634:	5400a020 	b.eq	ea38 <_ZN9__gnu_cxx27__verbose_terminate_handlerEv@@Base+0x8098>  // b.none
    d638:	7101cc3f 	cmp	w1, #0x73
    d63c:	54002280 	b.eq	da8c <_ZN9__gnu_cxx27__verbose_terminate_handlerEv@@Base+0x70ec>  // b.none
    d640:	7101983f 	cmp	w1, #0x66
    d644:	54001ec0 	b.eq	da1c <_ZN9__gnu_cxx27__verbose_terminate_handlerEv@@Base+0x707c>  // b.none
    d648:	5100c022 	sub	w2, w1, #0x30
    d64c:	53001c42 	uxtb	w2, w2
    d650:	7100245f 	cmp	w2, #0x9
    d654:	54000f09 	b.ls	d834 <_ZN9__gnu_cxx27__verbose_terminate_handlerEv@@Base+0x6e94>  // b.plast
    d658:	7101bc3f 	cmp	w1, #0x6f
    d65c:	54000e20 	b.eq	d820 <_ZN9__gnu_cxx27__verbose_terminate_handlerEv@@Base+0x6e80>  // b.none
    d660:	7101d03f 	cmp	w1, #0x74
    d664:	1a9f17e3 	cset	w3, eq	// eq = none
    d668:	35000063 	cbnz	w3, d674 <_ZN9__gnu_cxx27__verbose_terminate_handlerEv@@Base+0x6cd4>
    d66c:	7101a43f 	cmp	w1, #0x69
    d670:	54000081 	b.ne	d680 <_ZN9__gnu_cxx27__verbose_terminate_handlerEv@@Base+0x6ce0>  // b.any
    d674:	39400401 	ldrb	w1, [x0, #1]
    d678:	7101b03f 	cmp	w1, #0x6c
    d67c:	54007540 	b.eq	e524 <_ZN9__gnu_cxx27__verbose_terminate_handlerEv@@Base+0x7b84>  // b.none
    d680:	aa1303e0 	mov	x0, x19
    d684:	97fff61a 	bl	aeec <_ZN9__gnu_cxx27__verbose_terminate_handlerEv@@Base+0x454c>
    d688:	aa0003fa 	mov	x26, x0
    d68c:	b4005a20 	cbz	x0, e1d0 <_ZN9__gnu_cxx27__verbose_terminate_handlerEv@@Base+0x7830>
    d690:	b9400000 	ldr	w0, [x0]
    d694:	7100c41f 	cmp	w0, #0x31
    d698:	54005660 	b.eq	e164 <_ZN9__gnu_cxx27__verbose_terminate_handlerEv@@Base+0x77c4>  // b.none
    d69c:	7100c81f 	cmp	w0, #0x32
    d6a0:	540054e0 	b.eq	e13c <_ZN9__gnu_cxx27__verbose_terminate_handlerEv@@Base+0x779c>  // b.none
    d6a4:	7100cc1f 	cmp	w0, #0x33
    d6a8:	54005941 	b.ne	e1d0 <_ZN9__gnu_cxx27__verbose_terminate_handlerEv@@Base+0x7830>  // b.any
    d6ac:	f9400e60 	ldr	x0, [x19, #24]
    d6b0:	39400001 	ldrb	w1, [x0]
    d6b4:	71017c3f 	cmp	w1, #0x5f
    d6b8:	54005340 	b.eq	e120 <_ZN9__gnu_cxx27__verbose_terminate_handlerEv@@Base+0x7780>  // b.none
    d6bc:	aa1303e0 	mov	x0, x19
    d6c0:	97fffb63 	bl	c44c <_ZN9__gnu_cxx27__verbose_terminate_handlerEv@@Base+0x5aac>
    d6c4:	aa0003e3 	mov	x3, x0
    d6c8:	aa1303e0 	mov	x0, x19
    d6cc:	528006c1 	mov	w1, #0x36                  	// #54
    d6d0:	aa1a03e2 	mov	x2, x26
    d6d4:	97ffe517 	bl	6b30 <_ZN9__gnu_cxx27__verbose_terminate_handlerEv@@Base+0x190>
    d6d8:	aa0003f7 	mov	x23, x0
    d6dc:	17fffe7d 	b	d0d0 <_ZN9__gnu_cxx27__verbose_terminate_handlerEv@@Base+0x6730>
    d6e0:	97ffe905 	bl	7af4 <_ZN9__gnu_cxx27__verbose_terminate_handlerEv@@Base+0x1154>
    d6e4:	aa0003e3 	mov	x3, x0
    d6e8:	52800081 	mov	w1, #0x4                   	// #4
    d6ec:	aa1703e2 	mov	x2, x23
    d6f0:	aa1303e0 	mov	x0, x19
    d6f4:	97ffe50f 	bl	6b30 <_ZN9__gnu_cxx27__verbose_terminate_handlerEv@@Base+0x190>
    d6f8:	aa0003e3 	mov	x3, x0
    d6fc:	aa1603e2 	mov	x2, x22
    d700:	aa1303e0 	mov	x0, x19
    d704:	2a1503e1 	mov	w1, w21
    d708:	97ffe50a 	bl	6b30 <_ZN9__gnu_cxx27__verbose_terminate_handlerEv@@Base+0x190>
    d70c:	aa0003e2 	mov	x2, x0
    d710:	17fffdab 	b	cdbc <_ZN9__gnu_cxx27__verbose_terminate_handlerEv@@Base+0x641c>
    d714:	39400401 	ldrb	w1, [x0, #1]
    d718:	7101c83f 	cmp	w1, #0x72
    d71c:	54007b00 	b.eq	e67c <_ZN9__gnu_cxx27__verbose_terminate_handlerEv@@Base+0x7cdc>  // b.none
    d720:	7101c03f 	cmp	w1, #0x70
    d724:	54ffbbc1 	b.ne	ce9c <_ZN9__gnu_cxx27__verbose_terminate_handlerEv@@Base+0x64fc>  // b.any
    d728:	91000801 	add	x1, x0, #0x2
    d72c:	aa1303e0 	mov	x0, x19
    d730:	f9000e61 	str	x1, [x19, #24]
    d734:	97fffb46 	bl	c44c <_ZN9__gnu_cxx27__verbose_terminate_handlerEv@@Base+0x5aac>
    d738:	aa0003e2 	mov	x2, x0
    d73c:	52800941 	mov	w1, #0x4a                  	// #74
    d740:	aa1303e0 	mov	x0, x19
    d744:	d2800003 	mov	x3, #0x0                   	// #0
    d748:	97ffe4fa 	bl	6b30 <_ZN9__gnu_cxx27__verbose_terminate_handlerEv@@Base+0x190>
    d74c:	aa0003f7 	mov	x23, x0
    d750:	17fffdea 	b	cef8 <_ZN9__gnu_cxx27__verbose_terminate_handlerEv@@Base+0x6558>
    d754:	39400401 	ldrb	w1, [x0, #1]
    d758:	7101c03f 	cmp	w1, #0x70
    d75c:	54ffba01 	b.ne	ce9c <_ZN9__gnu_cxx27__verbose_terminate_handlerEv@@Base+0x64fc>  // b.any
    d760:	91000801 	add	x1, x0, #0x2
    d764:	f9000e61 	str	x1, [x19, #24]
    d768:	39400801 	ldrb	w1, [x0, #2]
    d76c:	7101503f 	cmp	w1, #0x54
    d770:	540030c1 	b.ne	dd88 <_ZN9__gnu_cxx27__verbose_terminate_handlerEv@@Base+0x73e8>  // b.any
    d774:	91000c00 	add	x0, x0, #0x3
    d778:	52800001 	mov	w1, #0x0                   	// #0
    d77c:	f9000e60 	str	x0, [x19, #24]
    d780:	b9402a60 	ldr	w0, [x19, #40]
    d784:	93407c21 	sxtw	x1, w1
    d788:	b9402e62 	ldr	w2, [x19, #44]
    d78c:	d2800017 	mov	x23, #0x0                   	// #0
    d790:	6b02001f 	cmp	w0, w2
    d794:	54ffbb2a 	b.ge	cef8 <_ZN9__gnu_cxx27__verbose_terminate_handlerEv@@Base+0x6558>  // b.tcont
    d798:	11000403 	add	w3, w0, #0x1
    d79c:	b9002a63 	str	w3, [x19, #40]
    d7a0:	52800303 	mov	w3, #0x18                  	// #24
    d7a4:	f9401262 	ldr	x2, [x19, #32]
    d7a8:	9b237c00 	smull	x0, w0, w3
    d7ac:	ab000057 	adds	x23, x2, x0
    d7b0:	54ffba40 	b.eq	cef8 <_ZN9__gnu_cxx27__verbose_terminate_handlerEv@@Base+0x6558>  // b.none
    d7b4:	528000c3 	mov	w3, #0x6                   	// #6
    d7b8:	b8206843 	str	w3, [x2, x0]
    d7bc:	f90006e1 	str	x1, [x23, #8]
    d7c0:	17fffdce 	b	cef8 <_ZN9__gnu_cxx27__verbose_terminate_handlerEv@@Base+0x6558>
    d7c4:	39400401 	ldrb	w1, [x0, #1]
    d7c8:	7101b83f 	cmp	w1, #0x6e
    d7cc:	54ffce01 	b.ne	d18c <_ZN9__gnu_cxx27__verbose_terminate_handlerEv@@Base+0x67ec>  // b.any
    d7d0:	91000800 	add	x0, x0, #0x2
    d7d4:	f9000e60 	str	x0, [x19, #24]
    d7d8:	aa1303e0 	mov	x0, x19
    d7dc:	97fff641 	bl	b0e0 <_ZN9__gnu_cxx27__verbose_terminate_handlerEv@@Base+0x4740>
    d7e0:	aa0003f6 	mov	x22, x0
    d7e4:	b4003d80 	cbz	x0, df94 <_ZN9__gnu_cxx27__verbose_terminate_handlerEv@@Base+0x75f4>
    d7e8:	f9400e60 	ldr	x0, [x19, #24]
    d7ec:	f0000058 	adrp	x24, 18000 <_ZTSN10__cxxabiv117__class_type_infoE@@Base>
    d7f0:	39400000 	ldrb	w0, [x0]
    d7f4:	7101241f 	cmp	w0, #0x49
    d7f8:	54ffcfa1 	b.ne	d1ec <_ZN9__gnu_cxx27__verbose_terminate_handlerEv@@Base+0x684c>  // b.any
    d7fc:	aa1303e0 	mov	x0, x19
    d800:	97ffe8bd 	bl	7af4 <_ZN9__gnu_cxx27__verbose_terminate_handlerEv@@Base+0x1154>
    d804:	aa0003e3 	mov	x3, x0
    d808:	aa1603e2 	mov	x2, x22
    d80c:	aa1303e0 	mov	x0, x19
    d810:	52800081 	mov	w1, #0x4                   	// #4
    d814:	97ffe4c7 	bl	6b30 <_ZN9__gnu_cxx27__verbose_terminate_handlerEv@@Base+0x190>
    d818:	aa0003f6 	mov	x22, x0
    d81c:	17fffe74 	b	d1ec <_ZN9__gnu_cxx27__verbose_terminate_handlerEv@@Base+0x684c>
    d820:	39400401 	ldrb	w1, [x0, #1]
    d824:	7101b83f 	cmp	w1, #0x6e
    d828:	54fff2c1 	b.ne	d680 <_ZN9__gnu_cxx27__verbose_terminate_handlerEv@@Base+0x6ce0>  // b.any
    d82c:	91000800 	add	x0, x0, #0x2
    d830:	f9000e60 	str	x0, [x19, #24]
    d834:	aa1303e0 	mov	x0, x19
    d838:	97fff62a 	bl	b0e0 <_ZN9__gnu_cxx27__verbose_terminate_handlerEv@@Base+0x4740>
    d83c:	aa0003f7 	mov	x23, x0
    d840:	b4ffc480 	cbz	x0, d0d0 <_ZN9__gnu_cxx27__verbose_terminate_handlerEv@@Base+0x6730>
    d844:	f9400e60 	ldr	x0, [x19, #24]
    d848:	39400000 	ldrb	w0, [x0]
    d84c:	7101241f 	cmp	w0, #0x49
    d850:	54ffc401 	b.ne	d0d0 <_ZN9__gnu_cxx27__verbose_terminate_handlerEv@@Base+0x6730>  // b.any
    d854:	aa1303e0 	mov	x0, x19
    d858:	97ffe8a7 	bl	7af4 <_ZN9__gnu_cxx27__verbose_terminate_handlerEv@@Base+0x1154>
    d85c:	aa0003e3 	mov	x3, x0
    d860:	aa1703e2 	mov	x2, x23
    d864:	aa1303e0 	mov	x0, x19
    d868:	52800081 	mov	w1, #0x4                   	// #4
    d86c:	97ffe4b1 	bl	6b30 <_ZN9__gnu_cxx27__verbose_terminate_handlerEv@@Base+0x190>
    d870:	aa0003f7 	mov	x23, x0
    d874:	17fffe17 	b	d0d0 <_ZN9__gnu_cxx27__verbose_terminate_handlerEv@@Base+0x6730>
    d878:	39400401 	ldrb	w1, [x0, #1]
    d87c:	7101b83f 	cmp	w1, #0x6e
    d880:	54ffea21 	b.ne	d5c4 <_ZN9__gnu_cxx27__verbose_terminate_handlerEv@@Base+0x6c24>  // b.any
    d884:	91000800 	add	x0, x0, #0x2
    d888:	f9000e60 	str	x0, [x19, #24]
    d88c:	aa1303e0 	mov	x0, x19
    d890:	97fff614 	bl	b0e0 <_ZN9__gnu_cxx27__verbose_terminate_handlerEv@@Base+0x4740>
    d894:	aa0003f9 	mov	x25, x0
    d898:	f9400e60 	ldr	x0, [x19, #24]
    d89c:	39400001 	ldrb	w1, [x0]
    d8a0:	b4ffec59 	cbz	x25, d628 <_ZN9__gnu_cxx27__verbose_terminate_handlerEv@@Base+0x6c88>
    d8a4:	7101243f 	cmp	w1, #0x49
    d8a8:	54ffec01 	b.ne	d628 <_ZN9__gnu_cxx27__verbose_terminate_handlerEv@@Base+0x6c88>  // b.any
    d8ac:	aa1303e0 	mov	x0, x19
    d8b0:	97ffe891 	bl	7af4 <_ZN9__gnu_cxx27__verbose_terminate_handlerEv@@Base+0x1154>
    d8b4:	aa0003e3 	mov	x3, x0
    d8b8:	52800081 	mov	w1, #0x4                   	// #4
    d8bc:	aa1903e2 	mov	x2, x25
    d8c0:	aa1303e0 	mov	x0, x19
    d8c4:	97ffe49b 	bl	6b30 <_ZN9__gnu_cxx27__verbose_terminate_handlerEv@@Base+0x190>
    d8c8:	aa0003f9 	mov	x25, x0
    d8cc:	f9400e60 	ldr	x0, [x19, #24]
    d8d0:	39400001 	ldrb	w1, [x0]
    d8d4:	17ffff55 	b	d628 <_ZN9__gnu_cxx27__verbose_terminate_handlerEv@@Base+0x6c88>
    d8d8:	39400401 	ldrb	w1, [x0, #1]
    d8dc:	7101b83f 	cmp	w1, #0x6e
    d8e0:	54ffe141 	b.ne	d508 <_ZN9__gnu_cxx27__verbose_terminate_handlerEv@@Base+0x6b68>  // b.any
    d8e4:	91000800 	add	x0, x0, #0x2
    d8e8:	f9000e60 	str	x0, [x19, #24]
    d8ec:	aa1303e0 	mov	x0, x19
    d8f0:	97fff5fc 	bl	b0e0 <_ZN9__gnu_cxx27__verbose_terminate_handlerEv@@Base+0x4740>
    d8f4:	aa0003f6 	mov	x22, x0
    d8f8:	f9400e60 	ldr	x0, [x19, #24]
    d8fc:	39400001 	ldrb	w1, [x0]
    d900:	b4ffe376 	cbz	x22, d56c <_ZN9__gnu_cxx27__verbose_terminate_handlerEv@@Base+0x6bcc>
    d904:	7101243f 	cmp	w1, #0x49
    d908:	54ffe321 	b.ne	d56c <_ZN9__gnu_cxx27__verbose_terminate_handlerEv@@Base+0x6bcc>  // b.any
    d90c:	aa1303e0 	mov	x0, x19
    d910:	97ffe879 	bl	7af4 <_ZN9__gnu_cxx27__verbose_terminate_handlerEv@@Base+0x1154>
    d914:	aa0003e3 	mov	x3, x0
    d918:	52800081 	mov	w1, #0x4                   	// #4
    d91c:	aa1303e0 	mov	x0, x19
    d920:	17ffff0e 	b	d558 <_ZN9__gnu_cxx27__verbose_terminate_handlerEv@@Base+0x6bb8>
    d924:	91000400 	add	x0, x0, #0x1
    d928:	d2800017 	mov	x23, #0x0                   	// #0
    d92c:	f9000e60 	str	x0, [x19, #24]
    d930:	17fffde8 	b	d0d0 <_ZN9__gnu_cxx27__verbose_terminate_handlerEv@@Base+0x6730>
    d934:	aa1303e0 	mov	x0, x19
    d938:	97ffe86f 	bl	7af4 <_ZN9__gnu_cxx27__verbose_terminate_handlerEv@@Base+0x1154>
    d93c:	aa0003e3 	mov	x3, x0
    d940:	aa1703e2 	mov	x2, x23
    d944:	aa1303e0 	mov	x0, x19
    d948:	52800081 	mov	w1, #0x4                   	// #4
    d94c:	97ffe479 	bl	6b30 <_ZN9__gnu_cxx27__verbose_terminate_handlerEv@@Base+0x190>
    d950:	aa0003f7 	mov	x23, x0
    d954:	17fffe3b 	b	d240 <_ZN9__gnu_cxx27__verbose_terminate_handlerEv@@Base+0x68a0>
    d958:	39400401 	ldrb	w1, [x0, #1]
    d95c:	7101c03f 	cmp	w1, #0x70
    d960:	54ffc161 	b.ne	d18c <_ZN9__gnu_cxx27__verbose_terminate_handlerEv@@Base+0x67ec>  // b.any
    d964:	91000801 	add	x1, x0, #0x2
    d968:	f9000e61 	str	x1, [x19, #24]
    d96c:	39400801 	ldrb	w1, [x0, #2]
    d970:	7101503f 	cmp	w1, #0x54
    d974:	5400a761 	b.ne	ee60 <_ZN9__gnu_cxx27__verbose_terminate_handlerEv@@Base+0x84c0>  // b.any
    d978:	91000c16 	add	x22, x0, #0x3
    d97c:	52800000 	mov	w0, #0x0                   	// #0
    d980:	f9000e76 	str	x22, [x19, #24]
    d984:	b9402a61 	ldr	w1, [x19, #40]
    d988:	93407c00 	sxtw	x0, w0
    d98c:	b9402e62 	ldr	w2, [x19, #44]
    d990:	6b02003f 	cmp	w1, w2
    d994:	5400300a 	b.ge	df94 <_ZN9__gnu_cxx27__verbose_terminate_handlerEv@@Base+0x75f4>  // b.tcont
    d998:	11000423 	add	w3, w1, #0x1
    d99c:	b9002a63 	str	w3, [x19, #40]
    d9a0:	52800303 	mov	w3, #0x18                  	// #24
    d9a4:	f9401262 	ldr	x2, [x19, #32]
    d9a8:	9b237c21 	smull	x1, w1, w3
    d9ac:	ab010056 	adds	x22, x2, x1
    d9b0:	54002f40 	b.eq	df98 <_ZN9__gnu_cxx27__verbose_terminate_handlerEv@@Base+0x75f8>  // b.none
    d9b4:	528000c3 	mov	w3, #0x6                   	// #6
    d9b8:	b8216843 	str	w3, [x2, x1]
    d9bc:	f90006c0 	str	x0, [x22, #8]
    d9c0:	f0000058 	adrp	x24, 18000 <_ZTSN10__cxxabiv117__class_type_infoE@@Base>
    d9c4:	17fffe0a 	b	d1ec <_ZN9__gnu_cxx27__verbose_terminate_handlerEv@@Base+0x684c>
    d9c8:	39400401 	ldrb	w1, [x0, #1]
    d9cc:	7101c83f 	cmp	w1, #0x72
    d9d0:	5400a200 	b.eq	ee10 <_ZN9__gnu_cxx27__verbose_terminate_handlerEv@@Base+0x8470>  // b.none
    d9d4:	7101c03f 	cmp	w1, #0x70
    d9d8:	54ffbda1 	b.ne	d18c <_ZN9__gnu_cxx27__verbose_terminate_handlerEv@@Base+0x67ec>  // b.any
    d9dc:	91000801 	add	x1, x0, #0x2
    d9e0:	aa1303e0 	mov	x0, x19
    d9e4:	f9000e61 	str	x1, [x19, #24]
    d9e8:	f0000058 	adrp	x24, 18000 <_ZTSN10__cxxabiv117__class_type_infoE@@Base>
    d9ec:	97fffa98 	bl	c44c <_ZN9__gnu_cxx27__verbose_terminate_handlerEv@@Base+0x5aac>
    d9f0:	aa0003e2 	mov	x2, x0
    d9f4:	52800941 	mov	w1, #0x4a                  	// #74
    d9f8:	aa1303e0 	mov	x0, x19
    d9fc:	d2800003 	mov	x3, #0x0                   	// #0
    da00:	97ffe44c 	bl	6b30 <_ZN9__gnu_cxx27__verbose_terminate_handlerEv@@Base+0x190>
    da04:	aa0003f6 	mov	x22, x0
    da08:	17fffdf9 	b	d1ec <_ZN9__gnu_cxx27__verbose_terminate_handlerEv@@Base+0x684c>
    da0c:	aa1303e0 	mov	x0, x19
    da10:	97fffa8f 	bl	c44c <_ZN9__gnu_cxx27__verbose_terminate_handlerEv@@Base+0x5aac>
    da14:	aa0003f7 	mov	x23, x0
    da18:	17fffe0a 	b	d240 <_ZN9__gnu_cxx27__verbose_terminate_handlerEv@@Base+0x68a0>
    da1c:	39400401 	ldrb	w1, [x0, #1]
    da20:	7101c03f 	cmp	w1, #0x70
    da24:	54ffe2e1 	b.ne	d680 <_ZN9__gnu_cxx27__verbose_terminate_handlerEv@@Base+0x6ce0>  // b.any
    da28:	91000801 	add	x1, x0, #0x2
    da2c:	f9000e61 	str	x1, [x19, #24]
    da30:	39400801 	ldrb	w1, [x0, #2]
    da34:	7101503f 	cmp	w1, #0x54
    da38:	54003c41 	b.ne	e1c0 <_ZN9__gnu_cxx27__verbose_terminate_handlerEv@@Base+0x7820>  // b.any
    da3c:	91000c01 	add	x1, x0, #0x3
    da40:	52800000 	mov	w0, #0x0                   	// #0
    da44:	f9000e61 	str	x1, [x19, #24]
    da48:	b9402a61 	ldr	w1, [x19, #40]
    da4c:	93407c00 	sxtw	x0, w0
    da50:	b9402e62 	ldr	w2, [x19, #44]
    da54:	d2800017 	mov	x23, #0x0                   	// #0
    da58:	6b02003f 	cmp	w1, w2
    da5c:	54ffb3aa 	b.ge	d0d0 <_ZN9__gnu_cxx27__verbose_terminate_handlerEv@@Base+0x6730>  // b.tcont
    da60:	11000423 	add	w3, w1, #0x1
    da64:	b9002a63 	str	w3, [x19, #40]
    da68:	52800303 	mov	w3, #0x18                  	// #24
    da6c:	f9401262 	ldr	x2, [x19, #32]
    da70:	9b237c21 	smull	x1, w1, w3
    da74:	ab010057 	adds	x23, x2, x1
    da78:	54ffb2c0 	b.eq	d0d0 <_ZN9__gnu_cxx27__verbose_terminate_handlerEv@@Base+0x6730>  // b.none
    da7c:	528000c3 	mov	w3, #0x6                   	// #6
    da80:	b8216843 	str	w3, [x2, x1]
    da84:	f90006e0 	str	x0, [x23, #8]
    da88:	17fffd92 	b	d0d0 <_ZN9__gnu_cxx27__verbose_terminate_handlerEv@@Base+0x6730>
    da8c:	39400401 	ldrb	w1, [x0, #1]
    da90:	7101c83f 	cmp	w1, #0x72
    da94:	540066c0 	b.eq	e76c <_ZN9__gnu_cxx27__verbose_terminate_handlerEv@@Base+0x7dcc>  // b.none
    da98:	7101c03f 	cmp	w1, #0x70
    da9c:	54ffdf21 	b.ne	d680 <_ZN9__gnu_cxx27__verbose_terminate_handlerEv@@Base+0x6ce0>  // b.any
    daa0:	91000801 	add	x1, x0, #0x2
    daa4:	aa1303e0 	mov	x0, x19
    daa8:	f9000e61 	str	x1, [x19, #24]
    daac:	97fffa68 	bl	c44c <_ZN9__gnu_cxx27__verbose_terminate_handlerEv@@Base+0x5aac>
    dab0:	aa0003e2 	mov	x2, x0
    dab4:	52800941 	mov	w1, #0x4a                  	// #74
    dab8:	aa1303e0 	mov	x0, x19
    dabc:	d2800003 	mov	x3, #0x0                   	// #0
    dac0:	97ffe41c 	bl	6b30 <_ZN9__gnu_cxx27__verbose_terminate_handlerEv@@Base+0x190>
    dac4:	aa0003f7 	mov	x23, x0
    dac8:	17fffd82 	b	d0d0 <_ZN9__gnu_cxx27__verbose_terminate_handlerEv@@Base+0x6730>
    dacc:	aa1303e0 	mov	x0, x19
    dad0:	97ffe747 	bl	77ec <_ZN9__gnu_cxx27__verbose_terminate_handlerEv@@Base+0xe4c>
    dad4:	31000400 	adds	w0, w0, #0x1
    dad8:	54000bc1 	b.ne	dc50 <_ZN9__gnu_cxx27__verbose_terminate_handlerEv@@Base+0x72b0>  // b.any
    dadc:	f9400e60 	ldr	x0, [x19, #24]
    dae0:	d2800016 	mov	x22, #0x0                   	// #0
    dae4:	39400001 	ldrb	w1, [x0]
    dae8:	17fffea1 	b	d56c <_ZN9__gnu_cxx27__verbose_terminate_handlerEv@@Base+0x6bcc>
    daec:	aa1303e0 	mov	x0, x19
    daf0:	97ffe73f 	bl	77ec <_ZN9__gnu_cxx27__verbose_terminate_handlerEv@@Base+0xe4c>
    daf4:	31000400 	adds	w0, w0, #0x1
    daf8:	540004e1 	b.ne	db94 <_ZN9__gnu_cxx27__verbose_terminate_handlerEv@@Base+0x71f4>  // b.any
    dafc:	f9400e60 	ldr	x0, [x19, #24]
    db00:	d2800019 	mov	x25, #0x0                   	// #0
    db04:	39400001 	ldrb	w1, [x0]
    db08:	17fffec8 	b	d628 <_ZN9__gnu_cxx27__verbose_terminate_handlerEv@@Base+0x6c88>
    db0c:	aa1303e0 	mov	x0, x19
    db10:	97ffe783 	bl	791c <_ZN9__gnu_cxx27__verbose_terminate_handlerEv@@Base+0xf7c>
    db14:	aa0003f7 	mov	x23, x0
    db18:	17fffcf8 	b	cef8 <_ZN9__gnu_cxx27__verbose_terminate_handlerEv@@Base+0x6558>
    db1c:	d2800002 	mov	x2, #0x0                   	// #0
    db20:	3500b763 	cbnz	w3, f20c <_ZN9__gnu_cxx27__verbose_terminate_handlerEv@@Base+0x886c>
    db24:	91000800 	add	x0, x0, #0x2
    db28:	528008a1 	mov	w1, #0x45                  	// #69
    db2c:	f9000e60 	str	x0, [x19, #24]
    db30:	aa1303e0 	mov	x0, x19
    db34:	f90037a2 	str	x2, [x29, #104]
    db38:	97ffed2a 	bl	8fe0 <_ZN9__gnu_cxx27__verbose_terminate_handlerEv@@Base+0x2640>
    db3c:	aa0003e3 	mov	x3, x0
    db40:	f94037a2 	ldr	x2, [x29, #104]
    db44:	aa1303e0 	mov	x0, x19
    db48:	52800601 	mov	w1, #0x30                  	// #48
    db4c:	97ffe3f9 	bl	6b30 <_ZN9__gnu_cxx27__verbose_terminate_handlerEv@@Base+0x190>
    db50:	aa0003f7 	mov	x23, x0
    db54:	17fffce9 	b	cef8 <_ZN9__gnu_cxx27__verbose_terminate_handlerEv@@Base+0x6558>
    db58:	aa1303e0 	mov	x0, x19
    db5c:	97fff9de 	bl	c2d4 <_ZN9__gnu_cxx27__verbose_terminate_handlerEv@@Base+0x5934>
    db60:	aa0003f7 	mov	x23, x0
    db64:	17fffce5 	b	cef8 <_ZN9__gnu_cxx27__verbose_terminate_handlerEv@@Base+0x6558>
    db68:	39400401 	ldrb	w1, [x0, #1]
    db6c:	7101c03f 	cmp	w1, #0x70
    db70:	54ffd2a1 	b.ne	d5c4 <_ZN9__gnu_cxx27__verbose_terminate_handlerEv@@Base+0x6c24>  // b.any
    db74:	91000801 	add	x1, x0, #0x2
    db78:	f9000e61 	str	x1, [x19, #24]
    db7c:	39400801 	ldrb	w1, [x0, #2]
    db80:	7101503f 	cmp	w1, #0x54
    db84:	54fffb41 	b.ne	daec <_ZN9__gnu_cxx27__verbose_terminate_handlerEv@@Base+0x714c>  // b.any
    db88:	91000c01 	add	x1, x0, #0x3
    db8c:	52800000 	mov	w0, #0x0                   	// #0
    db90:	f9000e61 	str	x1, [x19, #24]
    db94:	b9402a61 	ldr	w1, [x19, #40]
    db98:	93407c00 	sxtw	x0, w0
    db9c:	b9402e62 	ldr	w2, [x19, #44]
    dba0:	6b02003f 	cmp	w1, w2
    dba4:	54fffaca 	b.ge	dafc <_ZN9__gnu_cxx27__verbose_terminate_handlerEv@@Base+0x715c>  // b.tcont
    dba8:	11000423 	add	w3, w1, #0x1
    dbac:	b9002a63 	str	w3, [x19, #40]
    dbb0:	52800303 	mov	w3, #0x18                  	// #24
    dbb4:	f9401262 	ldr	x2, [x19, #32]
    dbb8:	9b237c21 	smull	x1, w1, w3
    dbbc:	ab010059 	adds	x25, x2, x1
    dbc0:	540002c0 	b.eq	dc18 <_ZN9__gnu_cxx27__verbose_terminate_handlerEv@@Base+0x7278>  // b.none
    dbc4:	528000c3 	mov	w3, #0x6                   	// #6
    dbc8:	b8216843 	str	w3, [x2, x1]
    dbcc:	f9000720 	str	x0, [x25, #8]
    dbd0:	f9400e60 	ldr	x0, [x19, #24]
    dbd4:	39400001 	ldrb	w1, [x0]
    dbd8:	17fffe94 	b	d628 <_ZN9__gnu_cxx27__verbose_terminate_handlerEv@@Base+0x6c88>
    dbdc:	39400401 	ldrb	w1, [x0, #1]
    dbe0:	7101c83f 	cmp	w1, #0x72
    dbe4:	54004620 	b.eq	e4a8 <_ZN9__gnu_cxx27__verbose_terminate_handlerEv@@Base+0x7b08>  // b.none
    dbe8:	7101c03f 	cmp	w1, #0x70
    dbec:	54ffcec1 	b.ne	d5c4 <_ZN9__gnu_cxx27__verbose_terminate_handlerEv@@Base+0x6c24>  // b.any
    dbf0:	91000801 	add	x1, x0, #0x2
    dbf4:	aa1303e0 	mov	x0, x19
    dbf8:	f9000e61 	str	x1, [x19, #24]
    dbfc:	97fffa14 	bl	c44c <_ZN9__gnu_cxx27__verbose_terminate_handlerEv@@Base+0x5aac>
    dc00:	aa0003e2 	mov	x2, x0
    dc04:	52800941 	mov	w1, #0x4a                  	// #74
    dc08:	aa1303e0 	mov	x0, x19
    dc0c:	d2800003 	mov	x3, #0x0                   	// #0
    dc10:	97ffe3c8 	bl	6b30 <_ZN9__gnu_cxx27__verbose_terminate_handlerEv@@Base+0x190>
    dc14:	aa0003f9 	mov	x25, x0
    dc18:	f9400e60 	ldr	x0, [x19, #24]
    dc1c:	39400001 	ldrb	w1, [x0]
    dc20:	17fffe82 	b	d628 <_ZN9__gnu_cxx27__verbose_terminate_handlerEv@@Base+0x6c88>
    dc24:	39400401 	ldrb	w1, [x0, #1]
    dc28:	7101c03f 	cmp	w1, #0x70
    dc2c:	54ffc6e1 	b.ne	d508 <_ZN9__gnu_cxx27__verbose_terminate_handlerEv@@Base+0x6b68>  // b.any
    dc30:	91000801 	add	x1, x0, #0x2
    dc34:	f9000e61 	str	x1, [x19, #24]
    dc38:	39400801 	ldrb	w1, [x0, #2]
    dc3c:	7101503f 	cmp	w1, #0x54
    dc40:	54fff461 	b.ne	dacc <_ZN9__gnu_cxx27__verbose_terminate_handlerEv@@Base+0x712c>  // b.any
    dc44:	91000c01 	add	x1, x0, #0x3
    dc48:	52800000 	mov	w0, #0x0                   	// #0
    dc4c:	f9000e61 	str	x1, [x19, #24]
    dc50:	b9402a61 	ldr	w1, [x19, #40]
    dc54:	93407c00 	sxtw	x0, w0
    dc58:	b9402e62 	ldr	w2, [x19, #44]
    dc5c:	6b02003f 	cmp	w1, w2
    dc60:	54fff3ea 	b.ge	dadc <_ZN9__gnu_cxx27__verbose_terminate_handlerEv@@Base+0x713c>  // b.tcont
    dc64:	11000423 	add	w3, w1, #0x1
    dc68:	b9002a63 	str	w3, [x19, #40]
    dc6c:	52800303 	mov	w3, #0x18                  	// #24
    dc70:	f9401262 	ldr	x2, [x19, #32]
    dc74:	9b237c21 	smull	x1, w1, w3
    dc78:	ab010056 	adds	x22, x2, x1
    dc7c:	54000400 	b.eq	dcfc <_ZN9__gnu_cxx27__verbose_terminate_handlerEv@@Base+0x735c>  // b.none
    dc80:	528000c3 	mov	w3, #0x6                   	// #6
    dc84:	b8216843 	str	w3, [x2, x1]
    dc88:	f90006c0 	str	x0, [x22, #8]
    dc8c:	f9400e60 	ldr	x0, [x19, #24]
    dc90:	39400001 	ldrb	w1, [x0]
    dc94:	17fffe36 	b	d56c <_ZN9__gnu_cxx27__verbose_terminate_handlerEv@@Base+0x6bcc>
    dc98:	39400401 	ldrb	w1, [x0, #1]
    dc9c:	7101a43f 	cmp	w1, #0x69
    dca0:	54ffb1e1 	b.ne	d2dc <_ZN9__gnu_cxx27__verbose_terminate_handlerEv@@Base+0x693c>  // b.any
    dca4:	91000801 	add	x1, x0, #0x2
    dca8:	aa1303e0 	mov	x0, x19
    dcac:	f9000e61 	str	x1, [x19, #24]
    dcb0:	528008a1 	mov	w1, #0x45                  	// #69
    dcb4:	97ffeccb 	bl	8fe0 <_ZN9__gnu_cxx27__verbose_terminate_handlerEv@@Base+0x2640>
    dcb8:	aa0003f7 	mov	x23, x0
    dcbc:	17fffd05 	b	d0d0 <_ZN9__gnu_cxx27__verbose_terminate_handlerEv@@Base+0x6730>
    dcc0:	39400401 	ldrb	w1, [x0, #1]
    dcc4:	7101c83f 	cmp	w1, #0x72
    dcc8:	540048a0 	b.eq	e5dc <_ZN9__gnu_cxx27__verbose_terminate_handlerEv@@Base+0x7c3c>  // b.none
    dccc:	7101c03f 	cmp	w1, #0x70
    dcd0:	54ffc1c1 	b.ne	d508 <_ZN9__gnu_cxx27__verbose_terminate_handlerEv@@Base+0x6b68>  // b.any
    dcd4:	91000801 	add	x1, x0, #0x2
    dcd8:	aa1303e0 	mov	x0, x19
    dcdc:	f9000e61 	str	x1, [x19, #24]
    dce0:	97fff9db 	bl	c44c <_ZN9__gnu_cxx27__verbose_terminate_handlerEv@@Base+0x5aac>
    dce4:	aa0003e2 	mov	x2, x0
    dce8:	52800941 	mov	w1, #0x4a                  	// #74
    dcec:	aa1303e0 	mov	x0, x19
    dcf0:	d2800003 	mov	x3, #0x0                   	// #0
    dcf4:	97ffe38f 	bl	6b30 <_ZN9__gnu_cxx27__verbose_terminate_handlerEv@@Base+0x190>
    dcf8:	aa0003f6 	mov	x22, x0
    dcfc:	f9400e60 	ldr	x0, [x19, #24]
    dd00:	39400001 	ldrb	w1, [x0]
    dd04:	17fffe1a 	b	d56c <_ZN9__gnu_cxx27__verbose_terminate_handlerEv@@Base+0x6bcc>
    dd08:	b9400b01 	ldr	w1, [x24, #8]
    dd0c:	d2800017 	mov	x23, #0x0                   	// #0
    dd10:	71000c3f 	cmp	w1, #0x3
    dd14:	54ff8f28 	b.hi	cef8 <_ZN9__gnu_cxx27__verbose_terminate_handlerEv@@Base+0x6558>  // b.pmore
    dd18:	f0000040 	adrp	x0, 18000 <_ZTSN10__cxxabiv117__class_type_infoE@@Base>
    dd1c:	910fc000 	add	x0, x0, #0x3f0
    dd20:	78615800 	ldrh	w0, [x0, w1, uxtw #1]
    dd24:	10000061 	adr	x1, dd30 <_ZN9__gnu_cxx27__verbose_terminate_handlerEv@@Base+0x7390>
    dd28:	8b20a820 	add	x0, x1, w0, sxth #2
    dd2c:	d61f0000 	br	x0
    dd30:	f9400717 	ldr	x23, [x24, #8]
    dd34:	f0000041 	adrp	x1, 18000 <_ZTSN10__cxxabiv117__class_type_infoE@@Base>
    dd38:	b9405262 	ldr	w2, [x19, #80]
    dd3c:	912c0021 	add	x1, x1, #0xb00
    dd40:	b94012e0 	ldr	w0, [x23, #16]
    dd44:	f94002f9 	ldr	x25, [x23]
    dd48:	51000800 	sub	w0, w0, #0x2
    dd4c:	0b000042 	add	w2, w2, w0
    dd50:	aa1903e0 	mov	x0, x25
    dd54:	b9005262 	str	w2, [x19, #80]
    dd58:	97ffdb32 	bl	4a20 <strcmp@plt>
    dd5c:	34001740 	cbz	w0, e044 <_ZN9__gnu_cxx27__verbose_terminate_handlerEv@@Base+0x76a4>
    dd60:	b94016e1 	ldr	w1, [x23, #20]
    dd64:	d2800017 	mov	x23, #0x0                   	// #0
    dd68:	71000c3f 	cmp	w1, #0x3
    dd6c:	54ff8c68 	b.hi	cef8 <_ZN9__gnu_cxx27__verbose_terminate_handlerEv@@Base+0x6558>  // b.pmore
    dd70:	f0000040 	adrp	x0, 18000 <_ZTSN10__cxxabiv117__class_type_infoE@@Base>
    dd74:	910fe000 	add	x0, x0, #0x3f8
    dd78:	78615800 	ldrh	w0, [x0, w1, uxtw #1]
    dd7c:	10000061 	adr	x1, dd88 <_ZN9__gnu_cxx27__verbose_terminate_handlerEv@@Base+0x73e8>
    dd80:	8b20a820 	add	x0, x1, w0, sxth #2
    dd84:	d61f0000 	br	x0
    dd88:	aa1303e0 	mov	x0, x19
    dd8c:	97ffe698 	bl	77ec <_ZN9__gnu_cxx27__verbose_terminate_handlerEv@@Base+0xe4c>
    dd90:	31000401 	adds	w1, w0, #0x1
    dd94:	54ffcf61 	b.ne	d780 <_ZN9__gnu_cxx27__verbose_terminate_handlerEv@@Base+0x6de0>  // b.any
    dd98:	d2800017 	mov	x23, #0x0                   	// #0
    dd9c:	17fffc57 	b	cef8 <_ZN9__gnu_cxx27__verbose_terminate_handlerEv@@Base+0x6558>
    dda0:	aa1303e0 	mov	x0, x19
    dda4:	528006a1 	mov	w1, #0x35                  	// #53
    dda8:	aa1803e2 	mov	x2, x24
    ddac:	d2800003 	mov	x3, #0x0                   	// #0
    ddb0:	97ffe360 	bl	6b30 <_ZN9__gnu_cxx27__verbose_terminate_handlerEv@@Base+0x190>
    ddb4:	aa0003f7 	mov	x23, x0
    ddb8:	17fffc50 	b	cef8 <_ZN9__gnu_cxx27__verbose_terminate_handlerEv@@Base+0x6558>
    ddbc:	d2800019 	mov	x25, #0x0                   	// #0
    ddc0:	f9400700 	ldr	x0, [x24, #8]
    ddc4:	f9400000 	ldr	x0, [x0]
    ddc8:	39400401 	ldrb	w1, [x0, #1]
    ddcc:	71018c3f 	cmp	w1, #0x63
    ddd0:	540014c0 	b.eq	e068 <_ZN9__gnu_cxx27__verbose_terminate_handlerEv@@Base+0x76c8>  // b.none
    ddd4:	aa1303e0 	mov	x0, x19
    ddd8:	97fff99d 	bl	c44c <_ZN9__gnu_cxx27__verbose_terminate_handlerEv@@Base+0x5aac>
    dddc:	aa0003fa 	mov	x26, x0
    dde0:	f0000041 	adrp	x1, 18000 <_ZTSN10__cxxabiv117__class_type_infoE@@Base>
    dde4:	aa1903e0 	mov	x0, x25
    dde8:	91160021 	add	x1, x1, #0x580
    ddec:	97ffdb0d 	bl	4a20 <strcmp@plt>
    ddf0:	34001320 	cbz	w0, e054 <_ZN9__gnu_cxx27__verbose_terminate_handlerEv@@Base+0x76b4>
    ddf4:	f0000041 	adrp	x1, 18000 <_ZTSN10__cxxabiv117__class_type_infoE@@Base>
    ddf8:	aa1903e0 	mov	x0, x25
    ddfc:	91162021 	add	x1, x1, #0x588
    de00:	97ffdb08 	bl	4a20 <strcmp@plt>
    de04:	340000c0 	cbz	w0, de1c <_ZN9__gnu_cxx27__verbose_terminate_handlerEv@@Base+0x747c>
    de08:	f0000041 	adrp	x1, 18000 <_ZTSN10__cxxabiv117__class_type_infoE@@Base>
    de0c:	aa1903e0 	mov	x0, x25
    de10:	91164021 	add	x1, x1, #0x590
    de14:	97ffdb03 	bl	4a20 <strcmp@plt>
    de18:	350016a0 	cbnz	w0, e0ec <_ZN9__gnu_cxx27__verbose_terminate_handlerEv@@Base+0x774c>
    de1c:	aa1303e0 	mov	x0, x19
    de20:	97fff4b0 	bl	b0e0 <_ZN9__gnu_cxx27__verbose_terminate_handlerEv@@Base+0x4740>
    de24:	aa0003f7 	mov	x23, x0
    de28:	f9400e60 	ldr	x0, [x19, #24]
    de2c:	39400000 	ldrb	w0, [x0]
    de30:	7101241f 	cmp	w0, #0x49
    de34:	54000121 	b.ne	de58 <_ZN9__gnu_cxx27__verbose_terminate_handlerEv@@Base+0x74b8>  // b.any
    de38:	aa1303e0 	mov	x0, x19
    de3c:	97ffe72e 	bl	7af4 <_ZN9__gnu_cxx27__verbose_terminate_handlerEv@@Base+0x1154>
    de40:	aa0003e3 	mov	x3, x0
    de44:	aa1703e2 	mov	x2, x23
    de48:	aa1303e0 	mov	x0, x19
    de4c:	52800081 	mov	w1, #0x4                   	// #4
    de50:	97ffe338 	bl	6b30 <_ZN9__gnu_cxx27__verbose_terminate_handlerEv@@Base+0x190>
    de54:	aa0003f7 	mov	x23, x0
    de58:	aa1703e3 	mov	x3, x23
    de5c:	52800701 	mov	w1, #0x38                  	// #56
    de60:	aa1a03e2 	mov	x2, x26
    de64:	aa1303e0 	mov	x0, x19
    de68:	97ffe332 	bl	6b30 <_ZN9__gnu_cxx27__verbose_terminate_handlerEv@@Base+0x190>
    de6c:	aa0003e3 	mov	x3, x0
    de70:	528006e1 	mov	w1, #0x37                  	// #55
    de74:	aa1303e0 	mov	x0, x19
    de78:	aa1803e2 	mov	x2, x24
    de7c:	97ffe32d 	bl	6b30 <_ZN9__gnu_cxx27__verbose_terminate_handlerEv@@Base+0x190>
    de80:	aa0003f7 	mov	x23, x0
    de84:	17fffc1d 	b	cef8 <_ZN9__gnu_cxx27__verbose_terminate_handlerEv@@Base+0x6558>
    de88:	d2800019 	mov	x25, #0x0                   	// #0
    de8c:	f0000041 	adrp	x1, 18000 <_ZTSN10__cxxabiv117__class_type_infoE@@Base>
    de90:	aa1903e0 	mov	x0, x25
    de94:	91166021 	add	x1, x1, #0x598
    de98:	97ffdae2 	bl	4a20 <strcmp@plt>
    de9c:	34000c20 	cbz	w0, e020 <_ZN9__gnu_cxx27__verbose_terminate_handlerEv@@Base+0x7680>
    dea0:	39400320 	ldrb	w0, [x25]
    dea4:	7101b81f 	cmp	w0, #0x6e
    dea8:	54fff781 	b.ne	dd98 <_ZN9__gnu_cxx27__verbose_terminate_handlerEv@@Base+0x73f8>  // b.any
    deac:	39400720 	ldrb	w0, [x25, #1]
    deb0:	7101841f 	cmp	w0, #0x61
    deb4:	54000060 	b.eq	dec0 <_ZN9__gnu_cxx27__verbose_terminate_handlerEv@@Base+0x7520>  // b.none
    deb8:	7101dc1f 	cmp	w0, #0x77
    debc:	54fff6e1 	b.ne	dd98 <_ZN9__gnu_cxx27__verbose_terminate_handlerEv@@Base+0x73f8>  // b.any
    dec0:	52800be1 	mov	w1, #0x5f                  	// #95
    dec4:	aa1303e0 	mov	x0, x19
    dec8:	97ffec46 	bl	8fe0 <_ZN9__gnu_cxx27__verbose_terminate_handlerEv@@Base+0x2640>
    decc:	aa0003f9 	mov	x25, x0
    ded0:	aa1303e0 	mov	x0, x19
    ded4:	97ffee18 	bl	9734 <_ZN9__gnu_cxx27__verbose_terminate_handlerEv@@Base+0x2d94>
    ded8:	aa0003fa 	mov	x26, x0
    dedc:	f9400e60 	ldr	x0, [x19, #24]
    dee0:	39400001 	ldrb	w1, [x0]
    dee4:	7101143f 	cmp	w1, #0x45
    dee8:	540082a0 	b.eq	ef3c <_ZN9__gnu_cxx27__verbose_terminate_handlerEv@@Base+0x859c>  // b.none
    deec:	7101c03f 	cmp	w1, #0x70
    def0:	54008120 	b.eq	ef14 <_ZN9__gnu_cxx27__verbose_terminate_handlerEv@@Base+0x8574>  // b.none
    def4:	7101a43f 	cmp	w1, #0x69
    def8:	54fff501 	b.ne	dd98 <_ZN9__gnu_cxx27__verbose_terminate_handlerEv@@Base+0x73f8>  // b.any
    defc:	39400400 	ldrb	w0, [x0, #1]
    df00:	d2800017 	mov	x23, #0x0                   	// #0
    df04:	7101b01f 	cmp	w0, #0x6c
    df08:	54ff7f81 	b.ne	cef8 <_ZN9__gnu_cxx27__verbose_terminate_handlerEv@@Base+0x6558>  // b.any
    df0c:	aa1303e0 	mov	x0, x19
    df10:	97fff94f 	bl	c44c <_ZN9__gnu_cxx27__verbose_terminate_handlerEv@@Base+0x5aac>
    df14:	aa0003e3 	mov	x3, x0
    df18:	52800761 	mov	w1, #0x3b                  	// #59
    df1c:	aa1a03e2 	mov	x2, x26
    df20:	aa1303e0 	mov	x0, x19
    df24:	97ffe303 	bl	6b30 <_ZN9__gnu_cxx27__verbose_terminate_handlerEv@@Base+0x190>
    df28:	aa0003e3 	mov	x3, x0
    df2c:	52800741 	mov	w1, #0x3a                  	// #58
    df30:	aa1903e2 	mov	x2, x25
    df34:	aa1303e0 	mov	x0, x19
    df38:	97ffe2fe 	bl	6b30 <_ZN9__gnu_cxx27__verbose_terminate_handlerEv@@Base+0x190>
    df3c:	aa0003e3 	mov	x3, x0
    df40:	52800721 	mov	w1, #0x39                  	// #57
    df44:	aa1303e0 	mov	x0, x19
    df48:	aa1803e2 	mov	x2, x24
    df4c:	97ffe2f9 	bl	6b30 <_ZN9__gnu_cxx27__verbose_terminate_handlerEv@@Base+0x190>
    df50:	aa0003f7 	mov	x23, x0
    df54:	17fffbe9 	b	cef8 <_ZN9__gnu_cxx27__verbose_terminate_handlerEv@@Base+0x6558>
    df58:	f94006d8 	ldr	x24, [x22, #8]
    df5c:	f0000041 	adrp	x1, 18000 <_ZTSN10__cxxabiv117__class_type_infoE@@Base>
    df60:	b9405262 	ldr	w2, [x19, #80]
    df64:	912c0021 	add	x1, x1, #0xb00
    df68:	b9401300 	ldr	w0, [x24, #16]
    df6c:	f9400319 	ldr	x25, [x24]
    df70:	51000800 	sub	w0, w0, #0x2
    df74:	0b000042 	add	w2, w2, w0
    df78:	aa1903e0 	mov	x0, x25
    df7c:	b9005262 	str	w2, [x19, #80]
    df80:	97ffdaa8 	bl	4a20 <strcmp@plt>
    df84:	34007780 	cbz	w0, ee74 <_ZN9__gnu_cxx27__verbose_terminate_handlerEv@@Base+0x84d4>
    df88:	b9401701 	ldr	w1, [x24, #20]
    df8c:	71000c3f 	cmp	w1, #0x3
    df90:	54000089 	b.ls	dfa0 <_ZN9__gnu_cxx27__verbose_terminate_handlerEv@@Base+0x7600>  // b.plast
    df94:	d2800016 	mov	x22, #0x0                   	// #0
    df98:	f0000058 	adrp	x24, 18000 <_ZTSN10__cxxabiv117__class_type_infoE@@Base>
    df9c:	17fffc94 	b	d1ec <_ZN9__gnu_cxx27__verbose_terminate_handlerEv@@Base+0x684c>
    dfa0:	f0000040 	adrp	x0, 18000 <_ZTSN10__cxxabiv117__class_type_infoE@@Base>
    dfa4:	91100000 	add	x0, x0, #0x400
    dfa8:	78615800 	ldrh	w0, [x0, w1, uxtw #1]
    dfac:	10000061 	adr	x1, dfb8 <_ZN9__gnu_cxx27__verbose_terminate_handlerEv@@Base+0x7618>
    dfb0:	8b20a820 	add	x0, x1, w0, sxth #2
    dfb4:	d61f0000 	br	x0
    dfb8:	aa1303e0 	mov	x0, x19
    dfbc:	f0000058 	adrp	x24, 18000 <_ZTSN10__cxxabiv117__class_type_infoE@@Base>
    dfc0:	97ffe657 	bl	791c <_ZN9__gnu_cxx27__verbose_terminate_handlerEv@@Base+0xf7c>
    dfc4:	aa0003f6 	mov	x22, x0
    dfc8:	17fffc89 	b	d1ec <_ZN9__gnu_cxx27__verbose_terminate_handlerEv@@Base+0x684c>
    dfcc:	aa1303e0 	mov	x0, x19
    dfd0:	f0000058 	adrp	x24, 18000 <_ZTSN10__cxxabiv117__class_type_infoE@@Base>
    dfd4:	97fff8c0 	bl	c2d4 <_ZN9__gnu_cxx27__verbose_terminate_handlerEv@@Base+0x5934>
    dfd8:	aa0003f6 	mov	x22, x0
    dfdc:	17fffc84 	b	d1ec <_ZN9__gnu_cxx27__verbose_terminate_handlerEv@@Base+0x684c>
    dfe0:	d2800002 	mov	x2, #0x0                   	// #0
    dfe4:	350091e3 	cbnz	w3, f220 <_ZN9__gnu_cxx27__verbose_terminate_handlerEv@@Base+0x8880>
    dfe8:	91000800 	add	x0, x0, #0x2
    dfec:	528008a1 	mov	w1, #0x45                  	// #69
    dff0:	f9000e60 	str	x0, [x19, #24]
    dff4:	aa1303e0 	mov	x0, x19
    dff8:	f90037a2 	str	x2, [x29, #104]
    dffc:	f0000058 	adrp	x24, 18000 <_ZTSN10__cxxabiv117__class_type_infoE@@Base>
    e000:	97ffebf8 	bl	8fe0 <_ZN9__gnu_cxx27__verbose_terminate_handlerEv@@Base+0x2640>
    e004:	aa0003e3 	mov	x3, x0
    e008:	f94037a2 	ldr	x2, [x29, #104]
    e00c:	aa1303e0 	mov	x0, x19
    e010:	52800601 	mov	w1, #0x30                  	// #48
    e014:	97ffe2c7 	bl	6b30 <_ZN9__gnu_cxx27__verbose_terminate_handlerEv@@Base+0x190>
    e018:	aa0003f6 	mov	x22, x0
    e01c:	17fffc74 	b	d1ec <_ZN9__gnu_cxx27__verbose_terminate_handlerEv@@Base+0x684c>
    e020:	aa1303e0 	mov	x0, x19
    e024:	97fff90a 	bl	c44c <_ZN9__gnu_cxx27__verbose_terminate_handlerEv@@Base+0x5aac>
    e028:	aa0003f9 	mov	x25, x0
    e02c:	aa1303e0 	mov	x0, x19
    e030:	97fff907 	bl	c44c <_ZN9__gnu_cxx27__verbose_terminate_handlerEv@@Base+0x5aac>
    e034:	aa0003fa 	mov	x26, x0
    e038:	aa1303e0 	mov	x0, x19
    e03c:	97fff904 	bl	c44c <_ZN9__gnu_cxx27__verbose_terminate_handlerEv@@Base+0x5aac>
    e040:	17ffffb5 	b	df14 <_ZN9__gnu_cxx27__verbose_terminate_handlerEv@@Base+0x7574>
    e044:	aa1303e0 	mov	x0, x19
    e048:	97ffedbb 	bl	9734 <_ZN9__gnu_cxx27__verbose_terminate_handlerEv@@Base+0x2d94>
    e04c:	aa0003e3 	mov	x3, x0
    e050:	17fffba5 	b	cee4 <_ZN9__gnu_cxx27__verbose_terminate_handlerEv@@Base+0x6544>
    e054:	aa1303e0 	mov	x0, x19
    e058:	528008a1 	mov	w1, #0x45                  	// #69
    e05c:	97ffebe1 	bl	8fe0 <_ZN9__gnu_cxx27__verbose_terminate_handlerEv@@Base+0x2640>
    e060:	aa0003f7 	mov	x23, x0
    e064:	17ffff7d 	b	de58 <_ZN9__gnu_cxx27__verbose_terminate_handlerEv@@Base+0x74b8>
    e068:	39400000 	ldrb	w0, [x0]
    e06c:	5101c801 	sub	w1, w0, #0x72
    e070:	53001c21 	uxtb	w1, w1
    e074:	7100043f 	cmp	w1, #0x1
    e078:	540000a9 	b.ls	e08c <_ZN9__gnu_cxx27__verbose_terminate_handlerEv@@Base+0x76ec>  // b.plast
    e07c:	51018c00 	sub	w0, w0, #0x63
    e080:	53001c00 	uxtb	w0, w0
    e084:	7100041f 	cmp	w0, #0x1
    e088:	54ffea68 	b.hi	ddd4 <_ZN9__gnu_cxx27__verbose_terminate_handlerEv@@Base+0x7434>  // b.pmore
    e08c:	aa1303e0 	mov	x0, x19
    e090:	97ffeda9 	bl	9734 <_ZN9__gnu_cxx27__verbose_terminate_handlerEv@@Base+0x2d94>
    e094:	aa0003fa 	mov	x26, x0
    e098:	17ffff52 	b	dde0 <_ZN9__gnu_cxx27__verbose_terminate_handlerEv@@Base+0x7440>
    e09c:	39400320 	ldrb	w0, [x25]
    e0a0:	7101b41f 	cmp	w0, #0x6d
    e0a4:	54000060 	b.eq	e0b0 <_ZN9__gnu_cxx27__verbose_terminate_handlerEv@@Base+0x7710>  // b.none
    e0a8:	7101c01f 	cmp	w0, #0x70
    e0ac:	54ff7161 	b.ne	ced8 <_ZN9__gnu_cxx27__verbose_terminate_handlerEv@@Base+0x6538>  // b.any
    e0b0:	39400721 	ldrb	w1, [x25, #1]
    e0b4:	6b00003f 	cmp	w1, w0
    e0b8:	54ff7101 	b.ne	ced8 <_ZN9__gnu_cxx27__verbose_terminate_handlerEv@@Base+0x6538>  // b.any
    e0bc:	f9400e60 	ldr	x0, [x19, #24]
    e0c0:	39400001 	ldrb	w1, [x0]
    e0c4:	71017c3f 	cmp	w1, #0x5f
    e0c8:	540001a0 	b.eq	e0fc <_ZN9__gnu_cxx27__verbose_terminate_handlerEv@@Base+0x775c>  // b.none
    e0cc:	aa1303e0 	mov	x0, x19
    e0d0:	97fff8df 	bl	c44c <_ZN9__gnu_cxx27__verbose_terminate_handlerEv@@Base+0x5aac>
    e0d4:	aa0003e2 	mov	x2, x0
    e0d8:	52800701 	mov	w1, #0x38                  	// #56
    e0dc:	aa1303e0 	mov	x0, x19
    e0e0:	aa0203e3 	mov	x3, x2
    e0e4:	97ffe293 	bl	6b30 <_ZN9__gnu_cxx27__verbose_terminate_handlerEv@@Base+0x190>
    e0e8:	17ffffd9 	b	e04c <_ZN9__gnu_cxx27__verbose_terminate_handlerEv@@Base+0x76ac>
    e0ec:	aa1303e0 	mov	x0, x19
    e0f0:	97fff8d7 	bl	c44c <_ZN9__gnu_cxx27__verbose_terminate_handlerEv@@Base+0x5aac>
    e0f4:	aa0003f7 	mov	x23, x0
    e0f8:	17ffff58 	b	de58 <_ZN9__gnu_cxx27__verbose_terminate_handlerEv@@Base+0x74b8>
    e0fc:	91000400 	add	x0, x0, #0x1
    e100:	f9000e60 	str	x0, [x19, #24]
    e104:	17fffb75 	b	ced8 <_ZN9__gnu_cxx27__verbose_terminate_handlerEv@@Base+0x6538>
    e108:	aa1303e0 	mov	x0, x19
    e10c:	97ffe604 	bl	791c <_ZN9__gnu_cxx27__verbose_terminate_handlerEv@@Base+0xf7c>
    e110:	aa0003f9 	mov	x25, x0
    e114:	f9400e60 	ldr	x0, [x19, #24]
    e118:	39400001 	ldrb	w1, [x0]
    e11c:	17fffd43 	b	d628 <_ZN9__gnu_cxx27__verbose_terminate_handlerEv@@Base+0x6c88>
    e120:	91000401 	add	x1, x0, #0x1
    e124:	aa1303e0 	mov	x0, x19
    e128:	f9000e61 	str	x1, [x19, #24]
    e12c:	528008a1 	mov	w1, #0x45                  	// #69
    e130:	97ffebac 	bl	8fe0 <_ZN9__gnu_cxx27__verbose_terminate_handlerEv@@Base+0x2640>
    e134:	aa0003e3 	mov	x3, x0
    e138:	17fffd64 	b	d6c8 <_ZN9__gnu_cxx27__verbose_terminate_handlerEv@@Base+0x6d28>
    e13c:	b9400b41 	ldr	w1, [x26, #8]
    e140:	d2800017 	mov	x23, #0x0                   	// #0
    e144:	71000c3f 	cmp	w1, #0x3
    e148:	54ff7c48 	b.hi	d0d0 <_ZN9__gnu_cxx27__verbose_terminate_handlerEv@@Base+0x6730>  // b.pmore
    e14c:	d0000040 	adrp	x0, 18000 <_ZTSN10__cxxabiv117__class_type_infoE@@Base>
    e150:	91102000 	add	x0, x0, #0x408
    e154:	78615800 	ldrh	w0, [x0, w1, uxtw #1]
    e158:	10000061 	adr	x1, e164 <_ZN9__gnu_cxx27__verbose_terminate_handlerEv@@Base+0x77c4>
    e15c:	8b20a820 	add	x0, x1, w0, sxth #2
    e160:	d61f0000 	br	x0
    e164:	f9400743 	ldr	x3, [x26, #8]
    e168:	d0000041 	adrp	x1, 18000 <_ZTSN10__cxxabiv117__class_type_infoE@@Base>
    e16c:	b9405262 	ldr	w2, [x19, #80]
    e170:	912c0021 	add	x1, x1, #0xb00
    e174:	b9401060 	ldr	w0, [x3, #16]
    e178:	f940007b 	ldr	x27, [x3]
    e17c:	51000800 	sub	w0, w0, #0x2
    e180:	0b000042 	add	w2, w2, w0
    e184:	aa1b03e0 	mov	x0, x27
    e188:	b9005262 	str	w2, [x19, #80]
    e18c:	97ffda25 	bl	4a20 <strcmp@plt>
    e190:	340016a0 	cbz	w0, e464 <_ZN9__gnu_cxx27__verbose_terminate_handlerEv@@Base+0x7ac4>
    e194:	f9400740 	ldr	x0, [x26, #8]
    e198:	d2800017 	mov	x23, #0x0                   	// #0
    e19c:	b9401401 	ldr	w1, [x0, #20]
    e1a0:	71000c3f 	cmp	w1, #0x3
    e1a4:	54ff7968 	b.hi	d0d0 <_ZN9__gnu_cxx27__verbose_terminate_handlerEv@@Base+0x6730>  // b.pmore
    e1a8:	d0000040 	adrp	x0, 18000 <_ZTSN10__cxxabiv117__class_type_infoE@@Base>
    e1ac:	91104000 	add	x0, x0, #0x410
    e1b0:	38614800 	ldrb	w0, [x0, w1, uxtw]
    e1b4:	10000061 	adr	x1, e1c0 <_ZN9__gnu_cxx27__verbose_terminate_handlerEv@@Base+0x7820>
    e1b8:	8b208820 	add	x0, x1, w0, sxtb #2
    e1bc:	d61f0000 	br	x0
    e1c0:	aa1303e0 	mov	x0, x19
    e1c4:	97ffe58a 	bl	77ec <_ZN9__gnu_cxx27__verbose_terminate_handlerEv@@Base+0xe4c>
    e1c8:	31000400 	adds	w0, w0, #0x1
    e1cc:	54ffc3e1 	b.ne	da48 <_ZN9__gnu_cxx27__verbose_terminate_handlerEv@@Base+0x70a8>  // b.any
    e1d0:	d2800017 	mov	x23, #0x0                   	// #0
    e1d4:	17fffbbf 	b	d0d0 <_ZN9__gnu_cxx27__verbose_terminate_handlerEv@@Base+0x6730>
    e1d8:	d280001b 	mov	x27, #0x0                   	// #0
    e1dc:	f9400740 	ldr	x0, [x26, #8]
    e1e0:	f9400000 	ldr	x0, [x0]
    e1e4:	39400401 	ldrb	w1, [x0, #1]
    e1e8:	71018c3f 	cmp	w1, #0x63
    e1ec:	54000660 	b.eq	e2b8 <_ZN9__gnu_cxx27__verbose_terminate_handlerEv@@Base+0x7918>  // b.none
    e1f0:	aa1303e0 	mov	x0, x19
    e1f4:	97fff896 	bl	c44c <_ZN9__gnu_cxx27__verbose_terminate_handlerEv@@Base+0x5aac>
    e1f8:	aa0003f8 	mov	x24, x0
    e1fc:	d0000041 	adrp	x1, 18000 <_ZTSN10__cxxabiv117__class_type_infoE@@Base>
    e200:	aa1b03e0 	mov	x0, x27
    e204:	91160021 	add	x1, x1, #0x580
    e208:	97ffda06 	bl	4a20 <strcmp@plt>
    e20c:	340004c0 	cbz	w0, e2a4 <_ZN9__gnu_cxx27__verbose_terminate_handlerEv@@Base+0x7904>
    e210:	d0000041 	adrp	x1, 18000 <_ZTSN10__cxxabiv117__class_type_infoE@@Base>
    e214:	aa1b03e0 	mov	x0, x27
    e218:	91162021 	add	x1, x1, #0x588
    e21c:	97ffda01 	bl	4a20 <strcmp@plt>
    e220:	340000c0 	cbz	w0, e238 <_ZN9__gnu_cxx27__verbose_terminate_handlerEv@@Base+0x7898>
    e224:	d0000041 	adrp	x1, 18000 <_ZTSN10__cxxabiv117__class_type_infoE@@Base>
    e228:	aa1b03e0 	mov	x0, x27
    e22c:	91164021 	add	x1, x1, #0x590
    e230:	97ffd9fc 	bl	4a20 <strcmp@plt>
    e234:	35000840 	cbnz	w0, e33c <_ZN9__gnu_cxx27__verbose_terminate_handlerEv@@Base+0x799c>
    e238:	aa1303e0 	mov	x0, x19
    e23c:	97fff3a9 	bl	b0e0 <_ZN9__gnu_cxx27__verbose_terminate_handlerEv@@Base+0x4740>
    e240:	aa0003f7 	mov	x23, x0
    e244:	f9400e60 	ldr	x0, [x19, #24]
    e248:	39400000 	ldrb	w0, [x0]
    e24c:	7101241f 	cmp	w0, #0x49
    e250:	54000121 	b.ne	e274 <_ZN9__gnu_cxx27__verbose_terminate_handlerEv@@Base+0x78d4>  // b.any
    e254:	aa1303e0 	mov	x0, x19
    e258:	97ffe627 	bl	7af4 <_ZN9__gnu_cxx27__verbose_terminate_handlerEv@@Base+0x1154>
    e25c:	aa0003e3 	mov	x3, x0
    e260:	aa1703e2 	mov	x2, x23
    e264:	aa1303e0 	mov	x0, x19
    e268:	52800081 	mov	w1, #0x4                   	// #4
    e26c:	97ffe231 	bl	6b30 <_ZN9__gnu_cxx27__verbose_terminate_handlerEv@@Base+0x190>
    e270:	aa0003f7 	mov	x23, x0
    e274:	aa1703e3 	mov	x3, x23
    e278:	52800701 	mov	w1, #0x38                  	// #56
    e27c:	aa1803e2 	mov	x2, x24
    e280:	aa1303e0 	mov	x0, x19
    e284:	97ffe22b 	bl	6b30 <_ZN9__gnu_cxx27__verbose_terminate_handlerEv@@Base+0x190>
    e288:	aa0003e3 	mov	x3, x0
    e28c:	528006e1 	mov	w1, #0x37                  	// #55
    e290:	aa1303e0 	mov	x0, x19
    e294:	aa1a03e2 	mov	x2, x26
    e298:	97ffe226 	bl	6b30 <_ZN9__gnu_cxx27__verbose_terminate_handlerEv@@Base+0x190>
    e29c:	aa0003f7 	mov	x23, x0
    e2a0:	17fffb8c 	b	d0d0 <_ZN9__gnu_cxx27__verbose_terminate_handlerEv@@Base+0x6730>
    e2a4:	aa1303e0 	mov	x0, x19
    e2a8:	528008a1 	mov	w1, #0x45                  	// #69
    e2ac:	97ffeb4d 	bl	8fe0 <_ZN9__gnu_cxx27__verbose_terminate_handlerEv@@Base+0x2640>
    e2b0:	aa0003f7 	mov	x23, x0
    e2b4:	17fffff0 	b	e274 <_ZN9__gnu_cxx27__verbose_terminate_handlerEv@@Base+0x78d4>
    e2b8:	39400000 	ldrb	w0, [x0]
    e2bc:	5101c801 	sub	w1, w0, #0x72
    e2c0:	53001c21 	uxtb	w1, w1
    e2c4:	7100043f 	cmp	w1, #0x1
    e2c8:	540000a9 	b.ls	e2dc <_ZN9__gnu_cxx27__verbose_terminate_handlerEv@@Base+0x793c>  // b.plast
    e2cc:	51018c00 	sub	w0, w0, #0x63
    e2d0:	53001c00 	uxtb	w0, w0
    e2d4:	7100041f 	cmp	w0, #0x1
    e2d8:	54fff8c8 	b.hi	e1f0 <_ZN9__gnu_cxx27__verbose_terminate_handlerEv@@Base+0x7850>  // b.pmore
    e2dc:	aa1303e0 	mov	x0, x19
    e2e0:	97ffed15 	bl	9734 <_ZN9__gnu_cxx27__verbose_terminate_handlerEv@@Base+0x2d94>
    e2e4:	aa0003f8 	mov	x24, x0
    e2e8:	17ffffc5 	b	e1fc <_ZN9__gnu_cxx27__verbose_terminate_handlerEv@@Base+0x785c>
    e2ec:	39400360 	ldrb	w0, [x27]
    e2f0:	7101b41f 	cmp	w0, #0x6d
    e2f4:	54000060 	b.eq	e300 <_ZN9__gnu_cxx27__verbose_terminate_handlerEv@@Base+0x7960>  // b.none
    e2f8:	7101c01f 	cmp	w0, #0x70
    e2fc:	54ff9e01 	b.ne	d6bc <_ZN9__gnu_cxx27__verbose_terminate_handlerEv@@Base+0x6d1c>  // b.any
    e300:	39400761 	ldrb	w1, [x27, #1]
    e304:	6b00003f 	cmp	w1, w0
    e308:	54ff9da1 	b.ne	d6bc <_ZN9__gnu_cxx27__verbose_terminate_handlerEv@@Base+0x6d1c>  // b.any
    e30c:	f9400e60 	ldr	x0, [x19, #24]
    e310:	39400001 	ldrb	w1, [x0]
    e314:	71017c3f 	cmp	w1, #0x5f
    e318:	540001a0 	b.eq	e34c <_ZN9__gnu_cxx27__verbose_terminate_handlerEv@@Base+0x79ac>  // b.none
    e31c:	aa1303e0 	mov	x0, x19
    e320:	97fff84b 	bl	c44c <_ZN9__gnu_cxx27__verbose_terminate_handlerEv@@Base+0x5aac>
    e324:	aa0003e2 	mov	x2, x0
    e328:	52800701 	mov	w1, #0x38                  	// #56
    e32c:	aa1303e0 	mov	x0, x19
    e330:	aa0203e3 	mov	x3, x2
    e334:	97ffe1ff 	bl	6b30 <_ZN9__gnu_cxx27__verbose_terminate_handlerEv@@Base+0x190>
    e338:	17ffff7f 	b	e134 <_ZN9__gnu_cxx27__verbose_terminate_handlerEv@@Base+0x7794>
    e33c:	aa1303e0 	mov	x0, x19
    e340:	97fff843 	bl	c44c <_ZN9__gnu_cxx27__verbose_terminate_handlerEv@@Base+0x5aac>
    e344:	aa0003f7 	mov	x23, x0
    e348:	17ffffcb 	b	e274 <_ZN9__gnu_cxx27__verbose_terminate_handlerEv@@Base+0x78d4>
    e34c:	91000400 	add	x0, x0, #0x1
    e350:	f9000e60 	str	x0, [x19, #24]
    e354:	17fffcda 	b	d6bc <_ZN9__gnu_cxx27__verbose_terminate_handlerEv@@Base+0x6d1c>
    e358:	aa1303e0 	mov	x0, x19
    e35c:	528006a1 	mov	w1, #0x35                  	// #53
    e360:	aa1a03e2 	mov	x2, x26
    e364:	d2800003 	mov	x3, #0x0                   	// #0
    e368:	97ffe1f2 	bl	6b30 <_ZN9__gnu_cxx27__verbose_terminate_handlerEv@@Base+0x190>
    e36c:	aa0003f7 	mov	x23, x0
    e370:	17fffb58 	b	d0d0 <_ZN9__gnu_cxx27__verbose_terminate_handlerEv@@Base+0x6730>
    e374:	d280001b 	mov	x27, #0x0                   	// #0
    e378:	aa1b03e0 	mov	x0, x27
    e37c:	91166301 	add	x1, x24, #0x598
    e380:	97ffd9a8 	bl	4a20 <strcmp@plt>
    e384:	340005e0 	cbz	w0, e440 <_ZN9__gnu_cxx27__verbose_terminate_handlerEv@@Base+0x7aa0>
    e388:	39400360 	ldrb	w0, [x27]
    e38c:	7101b81f 	cmp	w0, #0x6e
    e390:	54fff201 	b.ne	e1d0 <_ZN9__gnu_cxx27__verbose_terminate_handlerEv@@Base+0x7830>  // b.any
    e394:	39400760 	ldrb	w0, [x27, #1]
    e398:	7101841f 	cmp	w0, #0x61
    e39c:	54000060 	b.eq	e3a8 <_ZN9__gnu_cxx27__verbose_terminate_handlerEv@@Base+0x7a08>  // b.none
    e3a0:	7101dc1f 	cmp	w0, #0x77
    e3a4:	54fff161 	b.ne	e1d0 <_ZN9__gnu_cxx27__verbose_terminate_handlerEv@@Base+0x7830>  // b.any
    e3a8:	52800be1 	mov	w1, #0x5f                  	// #95
    e3ac:	aa1303e0 	mov	x0, x19
    e3b0:	97ffeb0c 	bl	8fe0 <_ZN9__gnu_cxx27__verbose_terminate_handlerEv@@Base+0x2640>
    e3b4:	aa0003f8 	mov	x24, x0
    e3b8:	aa1303e0 	mov	x0, x19
    e3bc:	97ffecde 	bl	9734 <_ZN9__gnu_cxx27__verbose_terminate_handlerEv@@Base+0x2d94>
    e3c0:	aa0003fb 	mov	x27, x0
    e3c4:	f9400e60 	ldr	x0, [x19, #24]
    e3c8:	39400001 	ldrb	w1, [x0]
    e3cc:	7101143f 	cmp	w1, #0x45
    e3d0:	54000640 	b.eq	e498 <_ZN9__gnu_cxx27__verbose_terminate_handlerEv@@Base+0x7af8>  // b.none
    e3d4:	7101c03f 	cmp	w1, #0x70
    e3d8:	540004c0 	b.eq	e470 <_ZN9__gnu_cxx27__verbose_terminate_handlerEv@@Base+0x7ad0>  // b.none
    e3dc:	7101a43f 	cmp	w1, #0x69
    e3e0:	54ffef81 	b.ne	e1d0 <_ZN9__gnu_cxx27__verbose_terminate_handlerEv@@Base+0x7830>  // b.any
    e3e4:	39400400 	ldrb	w0, [x0, #1]
    e3e8:	d2800017 	mov	x23, #0x0                   	// #0
    e3ec:	7101b01f 	cmp	w0, #0x6c
    e3f0:	54ff6701 	b.ne	d0d0 <_ZN9__gnu_cxx27__verbose_terminate_handlerEv@@Base+0x6730>  // b.any
    e3f4:	aa1303e0 	mov	x0, x19
    e3f8:	97fff815 	bl	c44c <_ZN9__gnu_cxx27__verbose_terminate_handlerEv@@Base+0x5aac>
    e3fc:	aa0003e3 	mov	x3, x0
    e400:	52800761 	mov	w1, #0x3b                  	// #59
    e404:	aa1b03e2 	mov	x2, x27
    e408:	aa1303e0 	mov	x0, x19
    e40c:	97ffe1c9 	bl	6b30 <_ZN9__gnu_cxx27__verbose_terminate_handlerEv@@Base+0x190>
    e410:	aa0003e3 	mov	x3, x0
    e414:	52800741 	mov	w1, #0x3a                  	// #58
    e418:	aa1803e2 	mov	x2, x24
    e41c:	aa1303e0 	mov	x0, x19
    e420:	97ffe1c4 	bl	6b30 <_ZN9__gnu_cxx27__verbose_terminate_handlerEv@@Base+0x190>
    e424:	aa0003e3 	mov	x3, x0
    e428:	52800721 	mov	w1, #0x39                  	// #57
    e42c:	aa1303e0 	mov	x0, x19
    e430:	aa1a03e2 	mov	x2, x26
    e434:	97ffe1bf 	bl	6b30 <_ZN9__gnu_cxx27__verbose_terminate_handlerEv@@Base+0x190>
    e438:	aa0003f7 	mov	x23, x0
    e43c:	17fffb25 	b	d0d0 <_ZN9__gnu_cxx27__verbose_terminate_handlerEv@@Base+0x6730>
    e440:	aa1303e0 	mov	x0, x19
    e444:	97fff802 	bl	c44c <_ZN9__gnu_cxx27__verbose_terminate_handlerEv@@Base+0x5aac>
    e448:	aa0003f8 	mov	x24, x0
    e44c:	aa1303e0 	mov	x0, x19
    e450:	97fff7ff 	bl	c44c <_ZN9__gnu_cxx27__verbose_terminate_handlerEv@@Base+0x5aac>
    e454:	aa0003fb 	mov	x27, x0
    e458:	aa1303e0 	mov	x0, x19
    e45c:	97fff7fc 	bl	c44c <_ZN9__gnu_cxx27__verbose_terminate_handlerEv@@Base+0x5aac>
    e460:	17ffffe7 	b	e3fc <_ZN9__gnu_cxx27__verbose_terminate_handlerEv@@Base+0x7a5c>
    e464:	aa1303e0 	mov	x0, x19
    e468:	97ffecb3 	bl	9734 <_ZN9__gnu_cxx27__verbose_terminate_handlerEv@@Base+0x2d94>
    e46c:	17ffff32 	b	e134 <_ZN9__gnu_cxx27__verbose_terminate_handlerEv@@Base+0x7794>
    e470:	39400401 	ldrb	w1, [x0, #1]
    e474:	d2800017 	mov	x23, #0x0                   	// #0
    e478:	7101a43f 	cmp	w1, #0x69
    e47c:	54ff62a1 	b.ne	d0d0 <_ZN9__gnu_cxx27__verbose_terminate_handlerEv@@Base+0x6730>  // b.any
    e480:	91000801 	add	x1, x0, #0x2
    e484:	aa1303e0 	mov	x0, x19
    e488:	f9000e61 	str	x1, [x19, #24]
    e48c:	528008a1 	mov	w1, #0x45                  	// #69
    e490:	97ffead4 	bl	8fe0 <_ZN9__gnu_cxx27__verbose_terminate_handlerEv@@Base+0x2640>
    e494:	17ffffda 	b	e3fc <_ZN9__gnu_cxx27__verbose_terminate_handlerEv@@Base+0x7a5c>
    e498:	91000401 	add	x1, x0, #0x1
    e49c:	d2800000 	mov	x0, #0x0                   	// #0
    e4a0:	f9000e61 	str	x1, [x19, #24]
    e4a4:	17ffffd6 	b	e3fc <_ZN9__gnu_cxx27__verbose_terminate_handlerEv@@Base+0x7a5c>
    e4a8:	91000801 	add	x1, x0, #0x2
    e4ac:	aa1303e0 	mov	x0, x19
    e4b0:	f9000e61 	str	x1, [x19, #24]
    e4b4:	97ffeca0 	bl	9734 <_ZN9__gnu_cxx27__verbose_terminate_handlerEv@@Base+0x2d94>
    e4b8:	aa0003f7 	mov	x23, x0
    e4bc:	aa1303e0 	mov	x0, x19
    e4c0:	97fff308 	bl	b0e0 <_ZN9__gnu_cxx27__verbose_terminate_handlerEv@@Base+0x4740>
    e4c4:	aa0003f9 	mov	x25, x0
    e4c8:	f9400e60 	ldr	x0, [x19, #24]
    e4cc:	39400000 	ldrb	w0, [x0]
    e4d0:	7101241f 	cmp	w0, #0x49
    e4d4:	aa1303e0 	mov	x0, x19
    e4d8:	54000120 	b.eq	e4fc <_ZN9__gnu_cxx27__verbose_terminate_handlerEv@@Base+0x7b5c>  // b.none
    e4dc:	52800021 	mov	w1, #0x1                   	// #1
    e4e0:	aa1903e3 	mov	x3, x25
    e4e4:	aa1703e2 	mov	x2, x23
    e4e8:	97ffe192 	bl	6b30 <_ZN9__gnu_cxx27__verbose_terminate_handlerEv@@Base+0x190>
    e4ec:	aa0003f9 	mov	x25, x0
    e4f0:	f9400e60 	ldr	x0, [x19, #24]
    e4f4:	39400001 	ldrb	w1, [x0]
    e4f8:	17fffc4c 	b	d628 <_ZN9__gnu_cxx27__verbose_terminate_handlerEv@@Base+0x6c88>
    e4fc:	97ffe57e 	bl	7af4 <_ZN9__gnu_cxx27__verbose_terminate_handlerEv@@Base+0x1154>
    e500:	aa0003e3 	mov	x3, x0
    e504:	52800081 	mov	w1, #0x4                   	// #4
    e508:	aa1303e0 	mov	x0, x19
    e50c:	aa1903e2 	mov	x2, x25
    e510:	97ffe188 	bl	6b30 <_ZN9__gnu_cxx27__verbose_terminate_handlerEv@@Base+0x190>
    e514:	aa0003e3 	mov	x3, x0
    e518:	52800021 	mov	w1, #0x1                   	// #1
    e51c:	aa1303e0 	mov	x0, x19
    e520:	17fffc3d 	b	d614 <_ZN9__gnu_cxx27__verbose_terminate_handlerEv@@Base+0x6c74>
    e524:	d2800002 	mov	x2, #0x0                   	// #0
    e528:	340000a3 	cbz	w3, e53c <_ZN9__gnu_cxx27__verbose_terminate_handlerEv@@Base+0x7b9c>
    e52c:	aa1303e0 	mov	x0, x19
    e530:	97ffec81 	bl	9734 <_ZN9__gnu_cxx27__verbose_terminate_handlerEv@@Base+0x2d94>
    e534:	aa0003e2 	mov	x2, x0
    e538:	f9400e60 	ldr	x0, [x19, #24]
    e53c:	91000800 	add	x0, x0, #0x2
    e540:	528008a1 	mov	w1, #0x45                  	// #69
    e544:	f9000e60 	str	x0, [x19, #24]
    e548:	aa1303e0 	mov	x0, x19
    e54c:	f90037a2 	str	x2, [x29, #104]
    e550:	97ffeaa4 	bl	8fe0 <_ZN9__gnu_cxx27__verbose_terminate_handlerEv@@Base+0x2640>
    e554:	aa0003e3 	mov	x3, x0
    e558:	f94037a2 	ldr	x2, [x29, #104]
    e55c:	aa1303e0 	mov	x0, x19
    e560:	52800601 	mov	w1, #0x30                  	// #48
    e564:	97ffe173 	bl	6b30 <_ZN9__gnu_cxx27__verbose_terminate_handlerEv@@Base+0x190>
    e568:	aa0003f7 	mov	x23, x0
    e56c:	17fffad9 	b	d0d0 <_ZN9__gnu_cxx27__verbose_terminate_handlerEv@@Base+0x6730>
    e570:	d2800002 	mov	x2, #0x0                   	// #0
    e574:	340000a3 	cbz	w3, e588 <_ZN9__gnu_cxx27__verbose_terminate_handlerEv@@Base+0x7be8>
    e578:	aa1303e0 	mov	x0, x19
    e57c:	97ffec6e 	bl	9734 <_ZN9__gnu_cxx27__verbose_terminate_handlerEv@@Base+0x2d94>
    e580:	aa0003e2 	mov	x2, x0
    e584:	f9400e60 	ldr	x0, [x19, #24]
    e588:	91000800 	add	x0, x0, #0x2
    e58c:	528008a1 	mov	w1, #0x45                  	// #69
    e590:	f9000e60 	str	x0, [x19, #24]
    e594:	aa1303e0 	mov	x0, x19
    e598:	f90037a2 	str	x2, [x29, #104]
    e59c:	97ffea91 	bl	8fe0 <_ZN9__gnu_cxx27__verbose_terminate_handlerEv@@Base+0x2640>
    e5a0:	aa0003e3 	mov	x3, x0
    e5a4:	f94037a2 	ldr	x2, [x29, #104]
    e5a8:	52800601 	mov	w1, #0x30                  	// #48
    e5ac:	aa1303e0 	mov	x0, x19
    e5b0:	97ffe160 	bl	6b30 <_ZN9__gnu_cxx27__verbose_terminate_handlerEv@@Base+0x190>
    e5b4:	aa0003f9 	mov	x25, x0
    e5b8:	f9400e60 	ldr	x0, [x19, #24]
    e5bc:	39400001 	ldrb	w1, [x0]
    e5c0:	17fffc1a 	b	d628 <_ZN9__gnu_cxx27__verbose_terminate_handlerEv@@Base+0x6c88>
    e5c4:	aa1303e0 	mov	x0, x19
    e5c8:	97ffe4d5 	bl	791c <_ZN9__gnu_cxx27__verbose_terminate_handlerEv@@Base+0xf7c>
    e5cc:	aa0003f6 	mov	x22, x0
    e5d0:	f9400e60 	ldr	x0, [x19, #24]
    e5d4:	39400001 	ldrb	w1, [x0]
    e5d8:	17fffbe5 	b	d56c <_ZN9__gnu_cxx27__verbose_terminate_handlerEv@@Base+0x6bcc>
    e5dc:	91000801 	add	x1, x0, #0x2
    e5e0:	aa1303e0 	mov	x0, x19
    e5e4:	f9000e61 	str	x1, [x19, #24]
    e5e8:	97ffec53 	bl	9734 <_ZN9__gnu_cxx27__verbose_terminate_handlerEv@@Base+0x2d94>
    e5ec:	aa0003f6 	mov	x22, x0
    e5f0:	aa1303e0 	mov	x0, x19
    e5f4:	97fff2bb 	bl	b0e0 <_ZN9__gnu_cxx27__verbose_terminate_handlerEv@@Base+0x4740>
    e5f8:	aa0003f7 	mov	x23, x0
    e5fc:	f9400e60 	ldr	x0, [x19, #24]
    e600:	39400000 	ldrb	w0, [x0]
    e604:	7101241f 	cmp	w0, #0x49
    e608:	aa1303e0 	mov	x0, x19
    e60c:	540001e0 	b.eq	e648 <_ZN9__gnu_cxx27__verbose_terminate_handlerEv@@Base+0x7ca8>  // b.none
    e610:	52800021 	mov	w1, #0x1                   	// #1
    e614:	aa1603e2 	mov	x2, x22
    e618:	aa1703e3 	mov	x3, x23
    e61c:	97ffe145 	bl	6b30 <_ZN9__gnu_cxx27__verbose_terminate_handlerEv@@Base+0x190>
    e620:	aa0003f6 	mov	x22, x0
    e624:	f9400e60 	ldr	x0, [x19, #24]
    e628:	39400001 	ldrb	w1, [x0]
    e62c:	17fffbd0 	b	d56c <_ZN9__gnu_cxx27__verbose_terminate_handlerEv@@Base+0x6bcc>
    e630:	91000401 	add	x1, x0, #0x1
    e634:	aa1303e0 	mov	x0, x19
    e638:	f9000e61 	str	x1, [x19, #24]
    e63c:	528008a1 	mov	w1, #0x45                  	// #69
    e640:	97ffea68 	bl	8fe0 <_ZN9__gnu_cxx27__verbose_terminate_handlerEv@@Base+0x2640>
    e644:	17fffe82 	b	e04c <_ZN9__gnu_cxx27__verbose_terminate_handlerEv@@Base+0x76ac>
    e648:	97ffe52b 	bl	7af4 <_ZN9__gnu_cxx27__verbose_terminate_handlerEv@@Base+0x1154>
    e64c:	aa0003e3 	mov	x3, x0
    e650:	52800081 	mov	w1, #0x4                   	// #4
    e654:	aa1303e0 	mov	x0, x19
    e658:	aa1703e2 	mov	x2, x23
    e65c:	97ffe135 	bl	6b30 <_ZN9__gnu_cxx27__verbose_terminate_handlerEv@@Base+0x190>
    e660:	aa0003e3 	mov	x3, x0
    e664:	52800021 	mov	w1, #0x1                   	// #1
    e668:	aa1303e0 	mov	x0, x19
    e66c:	17fffbbb 	b	d558 <_ZN9__gnu_cxx27__verbose_terminate_handlerEv@@Base+0x6bb8>
    e670:	7101a43f 	cmp	w1, #0x69
    e674:	54ff3820 	b.eq	cd78 <_ZN9__gnu_cxx27__verbose_terminate_handlerEv@@Base+0x63d8>  // b.none
    e678:	17fff9e1 	b	cdfc <_ZN9__gnu_cxx27__verbose_terminate_handlerEv@@Base+0x645c>
    e67c:	91000801 	add	x1, x0, #0x2
    e680:	aa1303e0 	mov	x0, x19
    e684:	f9000e61 	str	x1, [x19, #24]
    e688:	97ffec2b 	bl	9734 <_ZN9__gnu_cxx27__verbose_terminate_handlerEv@@Base+0x2d94>
    e68c:	aa0003f7 	mov	x23, x0
    e690:	aa1303e0 	mov	x0, x19
    e694:	97fff293 	bl	b0e0 <_ZN9__gnu_cxx27__verbose_terminate_handlerEv@@Base+0x4740>
    e698:	aa0003f8 	mov	x24, x0
    e69c:	f9400e60 	ldr	x0, [x19, #24]
    e6a0:	39400000 	ldrb	w0, [x0]
    e6a4:	7101241f 	cmp	w0, #0x49
    e6a8:	aa1303e0 	mov	x0, x19
    e6ac:	540001a0 	b.eq	e6e0 <_ZN9__gnu_cxx27__verbose_terminate_handlerEv@@Base+0x7d40>  // b.none
    e6b0:	aa1703e2 	mov	x2, x23
    e6b4:	52800021 	mov	w1, #0x1                   	// #1
    e6b8:	aa1803e3 	mov	x3, x24
    e6bc:	97ffe11d 	bl	6b30 <_ZN9__gnu_cxx27__verbose_terminate_handlerEv@@Base+0x190>
    e6c0:	aa0003f7 	mov	x23, x0
    e6c4:	17fffa0d 	b	cef8 <_ZN9__gnu_cxx27__verbose_terminate_handlerEv@@Base+0x6558>
    e6c8:	aa1303e0 	mov	x0, x19
    e6cc:	97fff702 	bl	c2d4 <_ZN9__gnu_cxx27__verbose_terminate_handlerEv@@Base+0x5934>
    e6d0:	aa0003f6 	mov	x22, x0
    e6d4:	f9400e60 	ldr	x0, [x19, #24]
    e6d8:	39400001 	ldrb	w1, [x0]
    e6dc:	17fffba4 	b	d56c <_ZN9__gnu_cxx27__verbose_terminate_handlerEv@@Base+0x6bcc>
    e6e0:	97ffe505 	bl	7af4 <_ZN9__gnu_cxx27__verbose_terminate_handlerEv@@Base+0x1154>
    e6e4:	aa0003e3 	mov	x3, x0
    e6e8:	52800081 	mov	w1, #0x4                   	// #4
    e6ec:	aa1803e2 	mov	x2, x24
    e6f0:	aa1303e0 	mov	x0, x19
    e6f4:	97ffe10f 	bl	6b30 <_ZN9__gnu_cxx27__verbose_terminate_handlerEv@@Base+0x190>
    e6f8:	aa0003e3 	mov	x3, x0
    e6fc:	aa1703e2 	mov	x2, x23
    e700:	aa1303e0 	mov	x0, x19
    e704:	52800021 	mov	w1, #0x1                   	// #1
    e708:	97ffe10a 	bl	6b30 <_ZN9__gnu_cxx27__verbose_terminate_handlerEv@@Base+0x190>
    e70c:	aa0003f7 	mov	x23, x0
    e710:	17fff9fa 	b	cef8 <_ZN9__gnu_cxx27__verbose_terminate_handlerEv@@Base+0x6558>
    e714:	aa1303e0 	mov	x0, x19
    e718:	97fff6ef 	bl	c2d4 <_ZN9__gnu_cxx27__verbose_terminate_handlerEv@@Base+0x5934>
    e71c:	aa0003f9 	mov	x25, x0
    e720:	f9400e60 	ldr	x0, [x19, #24]
    e724:	39400001 	ldrb	w1, [x0]
    e728:	17fffbc0 	b	d628 <_ZN9__gnu_cxx27__verbose_terminate_handlerEv@@Base+0x6c88>
    e72c:	91000401 	add	x1, x0, #0x1
    e730:	aa1303e0 	mov	x0, x19
    e734:	f9000e61 	str	x1, [x19, #24]
    e738:	528008a1 	mov	w1, #0x45                  	// #69
    e73c:	97ffea29 	bl	8fe0 <_ZN9__gnu_cxx27__verbose_terminate_handlerEv@@Base+0x2640>
    e740:	aa0003e3 	mov	x3, x0
    e744:	17fffb83 	b	d550 <_ZN9__gnu_cxx27__verbose_terminate_handlerEv@@Base+0x6bb0>
    e748:	b9400ac1 	ldr	w1, [x22, #8]
    e74c:	71000c3f 	cmp	w1, #0x3
    e750:	54ff9c68 	b.hi	dadc <_ZN9__gnu_cxx27__verbose_terminate_handlerEv@@Base+0x713c>  // b.pmore
    e754:	d0000040 	adrp	x0, 18000 <_ZTSN10__cxxabiv117__class_type_infoE@@Base>
    e758:	91105000 	add	x0, x0, #0x414
    e75c:	78615800 	ldrh	w0, [x0, w1, uxtw #1]
    e760:	10000061 	adr	x1, e76c <_ZN9__gnu_cxx27__verbose_terminate_handlerEv@@Base+0x7dcc>
    e764:	8b20a820 	add	x0, x1, w0, sxth #2
    e768:	d61f0000 	br	x0
    e76c:	91000801 	add	x1, x0, #0x2
    e770:	aa1303e0 	mov	x0, x19
    e774:	f9000e61 	str	x1, [x19, #24]
    e778:	97ffebef 	bl	9734 <_ZN9__gnu_cxx27__verbose_terminate_handlerEv@@Base+0x2d94>
    e77c:	aa0003f7 	mov	x23, x0
    e780:	aa1303e0 	mov	x0, x19
    e784:	97fff257 	bl	b0e0 <_ZN9__gnu_cxx27__verbose_terminate_handlerEv@@Base+0x4740>
    e788:	aa0003f8 	mov	x24, x0
    e78c:	f9400e60 	ldr	x0, [x19, #24]
    e790:	39400000 	ldrb	w0, [x0]
    e794:	7101241f 	cmp	w0, #0x49
    e798:	aa1303e0 	mov	x0, x19
    e79c:	540012c0 	b.eq	e9f4 <_ZN9__gnu_cxx27__verbose_terminate_handlerEv@@Base+0x8054>  // b.none
    e7a0:	aa1703e2 	mov	x2, x23
    e7a4:	52800021 	mov	w1, #0x1                   	// #1
    e7a8:	aa1803e3 	mov	x3, x24
    e7ac:	97ffe0e1 	bl	6b30 <_ZN9__gnu_cxx27__verbose_terminate_handlerEv@@Base+0x190>
    e7b0:	aa0003f7 	mov	x23, x0
    e7b4:	17fffa47 	b	d0d0 <_ZN9__gnu_cxx27__verbose_terminate_handlerEv@@Base+0x6730>
    e7b8:	d2800017 	mov	x23, #0x0                   	// #0
    e7bc:	f94006c0 	ldr	x0, [x22, #8]
    e7c0:	f9400000 	ldr	x0, [x0]
    e7c4:	39400401 	ldrb	w1, [x0, #1]
    e7c8:	71018c3f 	cmp	w1, #0x63
    e7cc:	54000600 	b.eq	e88c <_ZN9__gnu_cxx27__verbose_terminate_handlerEv@@Base+0x7eec>  // b.none
    e7d0:	aa1303e0 	mov	x0, x19
    e7d4:	97fff71e 	bl	c44c <_ZN9__gnu_cxx27__verbose_terminate_handlerEv@@Base+0x5aac>
    e7d8:	aa0003f9 	mov	x25, x0
    e7dc:	d0000041 	adrp	x1, 18000 <_ZTSN10__cxxabiv117__class_type_infoE@@Base>
    e7e0:	aa1703e0 	mov	x0, x23
    e7e4:	91160021 	add	x1, x1, #0x580
    e7e8:	97ffd88e 	bl	4a20 <strcmp@plt>
    e7ec:	34000460 	cbz	w0, e878 <_ZN9__gnu_cxx27__verbose_terminate_handlerEv@@Base+0x7ed8>
    e7f0:	d0000041 	adrp	x1, 18000 <_ZTSN10__cxxabiv117__class_type_infoE@@Base>
    e7f4:	aa1703e0 	mov	x0, x23
    e7f8:	91162021 	add	x1, x1, #0x588
    e7fc:	97ffd889 	bl	4a20 <strcmp@plt>
    e800:	340000c0 	cbz	w0, e818 <_ZN9__gnu_cxx27__verbose_terminate_handlerEv@@Base+0x7e78>
    e804:	d0000041 	adrp	x1, 18000 <_ZTSN10__cxxabiv117__class_type_infoE@@Base>
    e808:	aa1703e0 	mov	x0, x23
    e80c:	91164021 	add	x1, x1, #0x590
    e810:	97ffd884 	bl	4a20 <strcmp@plt>
    e814:	350010a0 	cbnz	w0, ea28 <_ZN9__gnu_cxx27__verbose_terminate_handlerEv@@Base+0x8088>
    e818:	aa1303e0 	mov	x0, x19
    e81c:	97fff231 	bl	b0e0 <_ZN9__gnu_cxx27__verbose_terminate_handlerEv@@Base+0x4740>
    e820:	aa0003f7 	mov	x23, x0
    e824:	f9400e60 	ldr	x0, [x19, #24]
    e828:	39400000 	ldrb	w0, [x0]
    e82c:	7101241f 	cmp	w0, #0x49
    e830:	54000121 	b.ne	e854 <_ZN9__gnu_cxx27__verbose_terminate_handlerEv@@Base+0x7eb4>  // b.any
    e834:	aa1303e0 	mov	x0, x19
    e838:	97ffe4af 	bl	7af4 <_ZN9__gnu_cxx27__verbose_terminate_handlerEv@@Base+0x1154>
    e83c:	aa0003e3 	mov	x3, x0
    e840:	aa1703e2 	mov	x2, x23
    e844:	aa1303e0 	mov	x0, x19
    e848:	52800081 	mov	w1, #0x4                   	// #4
    e84c:	97ffe0b9 	bl	6b30 <_ZN9__gnu_cxx27__verbose_terminate_handlerEv@@Base+0x190>
    e850:	aa0003f7 	mov	x23, x0
    e854:	52800701 	mov	w1, #0x38                  	// #56
    e858:	aa1703e3 	mov	x3, x23
    e85c:	aa1903e2 	mov	x2, x25
    e860:	aa1303e0 	mov	x0, x19
    e864:	97ffe0b3 	bl	6b30 <_ZN9__gnu_cxx27__verbose_terminate_handlerEv@@Base+0x190>
    e868:	aa0003e3 	mov	x3, x0
    e86c:	528006e1 	mov	w1, #0x37                  	// #55
    e870:	aa1303e0 	mov	x0, x19
    e874:	17fffb39 	b	d558 <_ZN9__gnu_cxx27__verbose_terminate_handlerEv@@Base+0x6bb8>
    e878:	aa1303e0 	mov	x0, x19
    e87c:	528008a1 	mov	w1, #0x45                  	// #69
    e880:	97ffe9d8 	bl	8fe0 <_ZN9__gnu_cxx27__verbose_terminate_handlerEv@@Base+0x2640>
    e884:	aa0003f7 	mov	x23, x0
    e888:	17fffff3 	b	e854 <_ZN9__gnu_cxx27__verbose_terminate_handlerEv@@Base+0x7eb4>
    e88c:	39400000 	ldrb	w0, [x0]
    e890:	5101c801 	sub	w1, w0, #0x72
    e894:	53001c21 	uxtb	w1, w1
    e898:	7100043f 	cmp	w1, #0x1
    e89c:	540000a9 	b.ls	e8b0 <_ZN9__gnu_cxx27__verbose_terminate_handlerEv@@Base+0x7f10>  // b.plast
    e8a0:	51018c00 	sub	w0, w0, #0x63
    e8a4:	53001c00 	uxtb	w0, w0
    e8a8:	7100041f 	cmp	w0, #0x1
    e8ac:	54fff928 	b.hi	e7d0 <_ZN9__gnu_cxx27__verbose_terminate_handlerEv@@Base+0x7e30>  // b.pmore
    e8b0:	aa1303e0 	mov	x0, x19
    e8b4:	97ffeba0 	bl	9734 <_ZN9__gnu_cxx27__verbose_terminate_handlerEv@@Base+0x2d94>
    e8b8:	aa0003f9 	mov	x25, x0
    e8bc:	17ffffc8 	b	e7dc <_ZN9__gnu_cxx27__verbose_terminate_handlerEv@@Base+0x7e3c>
    e8c0:	aa1303e0 	mov	x0, x19
    e8c4:	528006a1 	mov	w1, #0x35                  	// #53
    e8c8:	aa1603e2 	mov	x2, x22
    e8cc:	17fffd09 	b	dcf0 <_ZN9__gnu_cxx27__verbose_terminate_handlerEv@@Base+0x7350>
    e8d0:	d2800017 	mov	x23, #0x0                   	// #0
    e8d4:	aa1703e0 	mov	x0, x23
    e8d8:	91166301 	add	x1, x24, #0x598
    e8dc:	97ffd851 	bl	4a20 <strcmp@plt>
    e8e0:	34000560 	cbz	w0, e98c <_ZN9__gnu_cxx27__verbose_terminate_handlerEv@@Base+0x7fec>
    e8e4:	394002e0 	ldrb	w0, [x23]
    e8e8:	7101b81f 	cmp	w0, #0x6e
    e8ec:	54ff8f81 	b.ne	dadc <_ZN9__gnu_cxx27__verbose_terminate_handlerEv@@Base+0x713c>  // b.any
    e8f0:	394006e0 	ldrb	w0, [x23, #1]
    e8f4:	7101841f 	cmp	w0, #0x61
    e8f8:	54000060 	b.eq	e904 <_ZN9__gnu_cxx27__verbose_terminate_handlerEv@@Base+0x7f64>  // b.none
    e8fc:	7101dc1f 	cmp	w0, #0x77
    e900:	54ff8ee1 	b.ne	dadc <_ZN9__gnu_cxx27__verbose_terminate_handlerEv@@Base+0x713c>  // b.any
    e904:	52800be1 	mov	w1, #0x5f                  	// #95
    e908:	aa1303e0 	mov	x0, x19
    e90c:	97ffe9b5 	bl	8fe0 <_ZN9__gnu_cxx27__verbose_terminate_handlerEv@@Base+0x2640>
    e910:	aa0003f7 	mov	x23, x0
    e914:	aa1303e0 	mov	x0, x19
    e918:	97ffeb87 	bl	9734 <_ZN9__gnu_cxx27__verbose_terminate_handlerEv@@Base+0x2d94>
    e91c:	aa0003f9 	mov	x25, x0
    e920:	f9400e60 	ldr	x0, [x19, #24]
    e924:	39400001 	ldrb	w1, [x0]
    e928:	7101143f 	cmp	w1, #0x45
    e92c:	540005c0 	b.eq	e9e4 <_ZN9__gnu_cxx27__verbose_terminate_handlerEv@@Base+0x8044>  // b.none
    e930:	7101c03f 	cmp	w1, #0x70
    e934:	54000460 	b.eq	e9c0 <_ZN9__gnu_cxx27__verbose_terminate_handlerEv@@Base+0x8020>  // b.none
    e938:	7101a43f 	cmp	w1, #0x69
    e93c:	540003e1 	b.ne	e9b8 <_ZN9__gnu_cxx27__verbose_terminate_handlerEv@@Base+0x8018>  // b.any
    e940:	39400402 	ldrb	w2, [x0, #1]
    e944:	7101b05f 	cmp	w2, #0x6c
    e948:	54000341 	b.ne	e9b0 <_ZN9__gnu_cxx27__verbose_terminate_handlerEv@@Base+0x8010>  // b.any
    e94c:	aa1303e0 	mov	x0, x19
    e950:	97fff6bf 	bl	c44c <_ZN9__gnu_cxx27__verbose_terminate_handlerEv@@Base+0x5aac>
    e954:	aa0003e3 	mov	x3, x0
    e958:	52800761 	mov	w1, #0x3b                  	// #59
    e95c:	aa1903e2 	mov	x2, x25
    e960:	aa1303e0 	mov	x0, x19
    e964:	97ffe073 	bl	6b30 <_ZN9__gnu_cxx27__verbose_terminate_handlerEv@@Base+0x190>
    e968:	aa0003e3 	mov	x3, x0
    e96c:	52800741 	mov	w1, #0x3a                  	// #58
    e970:	aa1303e0 	mov	x0, x19
    e974:	aa1703e2 	mov	x2, x23
    e978:	97ffe06e 	bl	6b30 <_ZN9__gnu_cxx27__verbose_terminate_handlerEv@@Base+0x190>
    e97c:	aa0003e3 	mov	x3, x0
    e980:	52800721 	mov	w1, #0x39                  	// #57
    e984:	aa1303e0 	mov	x0, x19
    e988:	17fffaf4 	b	d558 <_ZN9__gnu_cxx27__verbose_terminate_handlerEv@@Base+0x6bb8>
    e98c:	aa1303e0 	mov	x0, x19
    e990:	97fff6af 	bl	c44c <_ZN9__gnu_cxx27__verbose_terminate_handlerEv@@Base+0x5aac>
    e994:	aa0003f7 	mov	x23, x0
    e998:	aa1303e0 	mov	x0, x19
    e99c:	97fff6ac 	bl	c44c <_ZN9__gnu_cxx27__verbose_terminate_handlerEv@@Base+0x5aac>
    e9a0:	aa0003f9 	mov	x25, x0
    e9a4:	aa1303e0 	mov	x0, x19
    e9a8:	97fff6a9 	bl	c44c <_ZN9__gnu_cxx27__verbose_terminate_handlerEv@@Base+0x5aac>
    e9ac:	17ffffea 	b	e954 <_ZN9__gnu_cxx27__verbose_terminate_handlerEv@@Base+0x7fb4>
    e9b0:	d2800016 	mov	x22, #0x0                   	// #0
    e9b4:	17fffafc 	b	d5a4 <_ZN9__gnu_cxx27__verbose_terminate_handlerEv@@Base+0x6c04>
    e9b8:	d2800016 	mov	x22, #0x0                   	// #0
    e9bc:	17fffaec 	b	d56c <_ZN9__gnu_cxx27__verbose_terminate_handlerEv@@Base+0x6bcc>
    e9c0:	39400402 	ldrb	w2, [x0, #1]
    e9c4:	7101a45f 	cmp	w2, #0x69
    e9c8:	54ffff41 	b.ne	e9b0 <_ZN9__gnu_cxx27__verbose_terminate_handlerEv@@Base+0x8010>  // b.any
    e9cc:	91000801 	add	x1, x0, #0x2
    e9d0:	aa1303e0 	mov	x0, x19
    e9d4:	f9000e61 	str	x1, [x19, #24]
    e9d8:	528008a1 	mov	w1, #0x45                  	// #69
    e9dc:	97ffe981 	bl	8fe0 <_ZN9__gnu_cxx27__verbose_terminate_handlerEv@@Base+0x2640>
    e9e0:	17ffffdd 	b	e954 <_ZN9__gnu_cxx27__verbose_terminate_handlerEv@@Base+0x7fb4>
    e9e4:	91000401 	add	x1, x0, #0x1
    e9e8:	d2800000 	mov	x0, #0x0                   	// #0
    e9ec:	f9000e61 	str	x1, [x19, #24]
    e9f0:	17ffffd9 	b	e954 <_ZN9__gnu_cxx27__verbose_terminate_handlerEv@@Base+0x7fb4>
    e9f4:	97ffe440 	bl	7af4 <_ZN9__gnu_cxx27__verbose_terminate_handlerEv@@Base+0x1154>
    e9f8:	aa0003e3 	mov	x3, x0
    e9fc:	52800081 	mov	w1, #0x4                   	// #4
    ea00:	aa1803e2 	mov	x2, x24
    ea04:	aa1303e0 	mov	x0, x19
    ea08:	97ffe04a 	bl	6b30 <_ZN9__gnu_cxx27__verbose_terminate_handlerEv@@Base+0x190>
    ea0c:	aa0003e3 	mov	x3, x0
    ea10:	aa1703e2 	mov	x2, x23
    ea14:	aa1303e0 	mov	x0, x19
    ea18:	52800021 	mov	w1, #0x1                   	// #1
    ea1c:	97ffe045 	bl	6b30 <_ZN9__gnu_cxx27__verbose_terminate_handlerEv@@Base+0x190>
    ea20:	aa0003f7 	mov	x23, x0
    ea24:	17fff9ab 	b	d0d0 <_ZN9__gnu_cxx27__verbose_terminate_handlerEv@@Base+0x6730>
    ea28:	aa1303e0 	mov	x0, x19
    ea2c:	97fff688 	bl	c44c <_ZN9__gnu_cxx27__verbose_terminate_handlerEv@@Base+0x5aac>
    ea30:	aa0003f7 	mov	x23, x0
    ea34:	17ffff88 	b	e854 <_ZN9__gnu_cxx27__verbose_terminate_handlerEv@@Base+0x7eb4>
    ea38:	aa1303e0 	mov	x0, x19
    ea3c:	97ffe3b8 	bl	791c <_ZN9__gnu_cxx27__verbose_terminate_handlerEv@@Base+0xf7c>
    ea40:	aa0003f7 	mov	x23, x0
    ea44:	17fff9a3 	b	d0d0 <_ZN9__gnu_cxx27__verbose_terminate_handlerEv@@Base+0x6730>
    ea48:	aa1303e0 	mov	x0, x19
    ea4c:	97fff622 	bl	c2d4 <_ZN9__gnu_cxx27__verbose_terminate_handlerEv@@Base+0x5934>
    ea50:	aa0003f7 	mov	x23, x0
    ea54:	17fff99f 	b	d0d0 <_ZN9__gnu_cxx27__verbose_terminate_handlerEv@@Base+0x6730>
    ea58:	91000401 	add	x1, x0, #0x1
    ea5c:	aa1303e0 	mov	x0, x19
    ea60:	f9000e61 	str	x1, [x19, #24]
    ea64:	528008a1 	mov	w1, #0x45                  	// #69
    ea68:	97ffe95e 	bl	8fe0 <_ZN9__gnu_cxx27__verbose_terminate_handlerEv@@Base+0x2640>
    ea6c:	aa0003e3 	mov	x3, x0
    ea70:	17fffae7 	b	d60c <_ZN9__gnu_cxx27__verbose_terminate_handlerEv@@Base+0x6c6c>
    ea74:	b9400ae1 	ldr	w1, [x23, #8]
    ea78:	71000c3f 	cmp	w1, #0x3
    ea7c:	54ff8408 	b.hi	dafc <_ZN9__gnu_cxx27__verbose_terminate_handlerEv@@Base+0x715c>  // b.pmore
    ea80:	d0000040 	adrp	x0, 18000 <_ZTSN10__cxxabiv117__class_type_infoE@@Base>
    ea84:	91107000 	add	x0, x0, #0x41c
    ea88:	78615800 	ldrh	w0, [x0, w1, uxtw #1]
    ea8c:	10000061 	adr	x1, ea98 <_ZN9__gnu_cxx27__verbose_terminate_handlerEv@@Base+0x80f8>
    ea90:	8b20a820 	add	x0, x1, w0, sxth #2
    ea94:	d61f0000 	br	x0
    ea98:	f94006c3 	ldr	x3, [x22, #8]
    ea9c:	d0000041 	adrp	x1, 18000 <_ZTSN10__cxxabiv117__class_type_infoE@@Base>
    eaa0:	b9405262 	ldr	w2, [x19, #80]
    eaa4:	912c0021 	add	x1, x1, #0xb00
    eaa8:	b9401060 	ldr	w0, [x3, #16]
    eaac:	f9400077 	ldr	x23, [x3]
    eab0:	51000800 	sub	w0, w0, #0x2
    eab4:	0b000042 	add	w2, w2, w0
    eab8:	aa1703e0 	mov	x0, x23
    eabc:	b9005262 	str	w2, [x19, #80]
    eac0:	97ffd7d8 	bl	4a20 <strcmp@plt>
    eac4:	34001940 	cbz	w0, edec <_ZN9__gnu_cxx27__verbose_terminate_handlerEv@@Base+0x844c>
    eac8:	f94006c0 	ldr	x0, [x22, #8]
    eacc:	b9401401 	ldr	w1, [x0, #20]
    ead0:	71000c3f 	cmp	w1, #0x3
    ead4:	54ff8048 	b.hi	dadc <_ZN9__gnu_cxx27__verbose_terminate_handlerEv@@Base+0x713c>  // b.pmore
    ead8:	d0000040 	adrp	x0, 18000 <_ZTSN10__cxxabiv117__class_type_infoE@@Base>
    eadc:	91109000 	add	x0, x0, #0x424
    eae0:	78615800 	ldrh	w0, [x0, w1, uxtw #1]
    eae4:	10000061 	adr	x1, eaf0 <_ZN9__gnu_cxx27__verbose_terminate_handlerEv@@Base+0x8150>
    eae8:	8b20a820 	add	x0, x1, w0, sxth #2
    eaec:	d61f0000 	br	x0
    eaf0:	d2800002 	mov	x2, #0x0                   	// #0
    eaf4:	340000a3 	cbz	w3, eb08 <_ZN9__gnu_cxx27__verbose_terminate_handlerEv@@Base+0x8168>
    eaf8:	aa1303e0 	mov	x0, x19
    eafc:	97ffeb0e 	bl	9734 <_ZN9__gnu_cxx27__verbose_terminate_handlerEv@@Base+0x2d94>
    eb00:	aa0003e2 	mov	x2, x0
    eb04:	f9400e60 	ldr	x0, [x19, #24]
    eb08:	91000800 	add	x0, x0, #0x2
    eb0c:	528008a1 	mov	w1, #0x45                  	// #69
    eb10:	f9000e60 	str	x0, [x19, #24]
    eb14:	aa1303e0 	mov	x0, x19
    eb18:	f90037a2 	str	x2, [x29, #104]
    eb1c:	97ffe931 	bl	8fe0 <_ZN9__gnu_cxx27__verbose_terminate_handlerEv@@Base+0x2640>
    eb20:	aa0003e3 	mov	x3, x0
    eb24:	f94037a2 	ldr	x2, [x29, #104]
    eb28:	52800601 	mov	w1, #0x30                  	// #48
    eb2c:	aa1303e0 	mov	x0, x19
    eb30:	97ffe000 	bl	6b30 <_ZN9__gnu_cxx27__verbose_terminate_handlerEv@@Base+0x190>
    eb34:	aa0003f6 	mov	x22, x0
    eb38:	f9400e60 	ldr	x0, [x19, #24]
    eb3c:	39400001 	ldrb	w1, [x0]
    eb40:	17fffa8b 	b	d56c <_ZN9__gnu_cxx27__verbose_terminate_handlerEv@@Base+0x6bcc>
    eb44:	d2800019 	mov	x25, #0x0                   	// #0
    eb48:	f94006e0 	ldr	x0, [x23, #8]
    eb4c:	f9400000 	ldr	x0, [x0]
    eb50:	39400401 	ldrb	w1, [x0, #1]
    eb54:	71018c3f 	cmp	w1, #0x63
    eb58:	54000600 	b.eq	ec18 <_ZN9__gnu_cxx27__verbose_terminate_handlerEv@@Base+0x8278>  // b.none
    eb5c:	aa1303e0 	mov	x0, x19
    eb60:	97fff63b 	bl	c44c <_ZN9__gnu_cxx27__verbose_terminate_handlerEv@@Base+0x5aac>
    eb64:	aa0003fa 	mov	x26, x0
    eb68:	d0000041 	adrp	x1, 18000 <_ZTSN10__cxxabiv117__class_type_infoE@@Base>
    eb6c:	aa1903e0 	mov	x0, x25
    eb70:	91160021 	add	x1, x1, #0x580
    eb74:	97ffd7ab 	bl	4a20 <strcmp@plt>
    eb78:	34000460 	cbz	w0, ec04 <_ZN9__gnu_cxx27__verbose_terminate_handlerEv@@Base+0x8264>
    eb7c:	d0000041 	adrp	x1, 18000 <_ZTSN10__cxxabiv117__class_type_infoE@@Base>
    eb80:	aa1903e0 	mov	x0, x25
    eb84:	91162021 	add	x1, x1, #0x588
    eb88:	97ffd7a6 	bl	4a20 <strcmp@plt>
    eb8c:	340000c0 	cbz	w0, eba4 <_ZN9__gnu_cxx27__verbose_terminate_handlerEv@@Base+0x8204>
    eb90:	d0000041 	adrp	x1, 18000 <_ZTSN10__cxxabiv117__class_type_infoE@@Base>
    eb94:	aa1903e0 	mov	x0, x25
    eb98:	91164021 	add	x1, x1, #0x590
    eb9c:	97ffd7a1 	bl	4a20 <strcmp@plt>
    eba0:	35000560 	cbnz	w0, ec4c <_ZN9__gnu_cxx27__verbose_terminate_handlerEv@@Base+0x82ac>
    eba4:	aa1303e0 	mov	x0, x19
    eba8:	97fff14e 	bl	b0e0 <_ZN9__gnu_cxx27__verbose_terminate_handlerEv@@Base+0x4740>
    ebac:	aa0003f9 	mov	x25, x0
    ebb0:	f9400e60 	ldr	x0, [x19, #24]
    ebb4:	39400000 	ldrb	w0, [x0]
    ebb8:	7101241f 	cmp	w0, #0x49
    ebbc:	54000121 	b.ne	ebe0 <_ZN9__gnu_cxx27__verbose_terminate_handlerEv@@Base+0x8240>  // b.any
    ebc0:	aa1303e0 	mov	x0, x19
    ebc4:	97ffe3cc 	bl	7af4 <_ZN9__gnu_cxx27__verbose_terminate_handlerEv@@Base+0x1154>
    ebc8:	aa0003e3 	mov	x3, x0
    ebcc:	aa1903e2 	mov	x2, x25
    ebd0:	aa1303e0 	mov	x0, x19
    ebd4:	52800081 	mov	w1, #0x4                   	// #4
    ebd8:	97ffdfd6 	bl	6b30 <_ZN9__gnu_cxx27__verbose_terminate_handlerEv@@Base+0x190>
    ebdc:	aa0003f9 	mov	x25, x0
    ebe0:	52800701 	mov	w1, #0x38                  	// #56
    ebe4:	aa1903e3 	mov	x3, x25
    ebe8:	aa1a03e2 	mov	x2, x26
    ebec:	aa1303e0 	mov	x0, x19
    ebf0:	97ffdfd0 	bl	6b30 <_ZN9__gnu_cxx27__verbose_terminate_handlerEv@@Base+0x190>
    ebf4:	aa0003e3 	mov	x3, x0
    ebf8:	528006e1 	mov	w1, #0x37                  	// #55
    ebfc:	aa1303e0 	mov	x0, x19
    ec00:	17fffa85 	b	d614 <_ZN9__gnu_cxx27__verbose_terminate_handlerEv@@Base+0x6c74>
    ec04:	aa1303e0 	mov	x0, x19
    ec08:	528008a1 	mov	w1, #0x45                  	// #69
    ec0c:	97ffe8f5 	bl	8fe0 <_ZN9__gnu_cxx27__verbose_terminate_handlerEv@@Base+0x2640>
    ec10:	aa0003f9 	mov	x25, x0
    ec14:	17fffff3 	b	ebe0 <_ZN9__gnu_cxx27__verbose_terminate_handlerEv@@Base+0x8240>
    ec18:	39400000 	ldrb	w0, [x0]
    ec1c:	5101c801 	sub	w1, w0, #0x72
    ec20:	53001c21 	uxtb	w1, w1
    ec24:	7100043f 	cmp	w1, #0x1
    ec28:	540000a9 	b.ls	ec3c <_ZN9__gnu_cxx27__verbose_terminate_handlerEv@@Base+0x829c>  // b.plast
    ec2c:	51018c00 	sub	w0, w0, #0x63
    ec30:	53001c00 	uxtb	w0, w0
    ec34:	7100041f 	cmp	w0, #0x1
    ec38:	54fff928 	b.hi	eb5c <_ZN9__gnu_cxx27__verbose_terminate_handlerEv@@Base+0x81bc>  // b.pmore
    ec3c:	aa1303e0 	mov	x0, x19
    ec40:	97ffeabd 	bl	9734 <_ZN9__gnu_cxx27__verbose_terminate_handlerEv@@Base+0x2d94>
    ec44:	aa0003fa 	mov	x26, x0
    ec48:	17ffffc8 	b	eb68 <_ZN9__gnu_cxx27__verbose_terminate_handlerEv@@Base+0x81c8>
    ec4c:	aa1303e0 	mov	x0, x19
    ec50:	97fff5ff 	bl	c44c <_ZN9__gnu_cxx27__verbose_terminate_handlerEv@@Base+0x5aac>
    ec54:	aa0003f9 	mov	x25, x0
    ec58:	17ffffe2 	b	ebe0 <_ZN9__gnu_cxx27__verbose_terminate_handlerEv@@Base+0x8240>
    ec5c:	aa1303e0 	mov	x0, x19
    ec60:	528006a1 	mov	w1, #0x35                  	// #53
    ec64:	aa1703e2 	mov	x2, x23
    ec68:	17fffbe9 	b	dc0c <_ZN9__gnu_cxx27__verbose_terminate_handlerEv@@Base+0x726c>
    ec6c:	d2800019 	mov	x25, #0x0                   	// #0
    ec70:	aa1903e0 	mov	x0, x25
    ec74:	91166301 	add	x1, x24, #0x598
    ec78:	97ffd76a 	bl	4a20 <strcmp@plt>
    ec7c:	34000560 	cbz	w0, ed28 <_ZN9__gnu_cxx27__verbose_terminate_handlerEv@@Base+0x8388>
    ec80:	39400320 	ldrb	w0, [x25]
    ec84:	7101b81f 	cmp	w0, #0x6e
    ec88:	54ff73a1 	b.ne	dafc <_ZN9__gnu_cxx27__verbose_terminate_handlerEv@@Base+0x715c>  // b.any
    ec8c:	39400720 	ldrb	w0, [x25, #1]
    ec90:	7101841f 	cmp	w0, #0x61
    ec94:	54000060 	b.eq	eca0 <_ZN9__gnu_cxx27__verbose_terminate_handlerEv@@Base+0x8300>  // b.none
    ec98:	7101dc1f 	cmp	w0, #0x77
    ec9c:	54ff7301 	b.ne	dafc <_ZN9__gnu_cxx27__verbose_terminate_handlerEv@@Base+0x715c>  // b.any
    eca0:	52800be1 	mov	w1, #0x5f                  	// #95
    eca4:	aa1303e0 	mov	x0, x19
    eca8:	97ffe8ce 	bl	8fe0 <_ZN9__gnu_cxx27__verbose_terminate_handlerEv@@Base+0x2640>
    ecac:	aa0003f9 	mov	x25, x0
    ecb0:	aa1303e0 	mov	x0, x19
    ecb4:	97ffeaa0 	bl	9734 <_ZN9__gnu_cxx27__verbose_terminate_handlerEv@@Base+0x2d94>
    ecb8:	aa0003fa 	mov	x26, x0
    ecbc:	f9400e60 	ldr	x0, [x19, #24]
    ecc0:	39400001 	ldrb	w1, [x0]
    ecc4:	7101143f 	cmp	w1, #0x45
    ecc8:	540005c0 	b.eq	ed80 <_ZN9__gnu_cxx27__verbose_terminate_handlerEv@@Base+0x83e0>  // b.none
    eccc:	7101c03f 	cmp	w1, #0x70
    ecd0:	54000460 	b.eq	ed5c <_ZN9__gnu_cxx27__verbose_terminate_handlerEv@@Base+0x83bc>  // b.none
    ecd4:	7101a43f 	cmp	w1, #0x69
    ecd8:	540003e1 	b.ne	ed54 <_ZN9__gnu_cxx27__verbose_terminate_handlerEv@@Base+0x83b4>  // b.any
    ecdc:	39400402 	ldrb	w2, [x0, #1]
    ece0:	7101b05f 	cmp	w2, #0x6c
    ece4:	54000341 	b.ne	ed4c <_ZN9__gnu_cxx27__verbose_terminate_handlerEv@@Base+0x83ac>  // b.any
    ece8:	aa1303e0 	mov	x0, x19
    ecec:	97fff5d8 	bl	c44c <_ZN9__gnu_cxx27__verbose_terminate_handlerEv@@Base+0x5aac>
    ecf0:	aa0003e3 	mov	x3, x0
    ecf4:	52800761 	mov	w1, #0x3b                  	// #59
    ecf8:	aa1a03e2 	mov	x2, x26
    ecfc:	aa1303e0 	mov	x0, x19
    ed00:	97ffdf8c 	bl	6b30 <_ZN9__gnu_cxx27__verbose_terminate_handlerEv@@Base+0x190>
    ed04:	aa0003e3 	mov	x3, x0
    ed08:	52800741 	mov	w1, #0x3a                  	// #58
    ed0c:	aa1303e0 	mov	x0, x19
    ed10:	aa1903e2 	mov	x2, x25
    ed14:	97ffdf87 	bl	6b30 <_ZN9__gnu_cxx27__verbose_terminate_handlerEv@@Base+0x190>
    ed18:	aa0003e3 	mov	x3, x0
    ed1c:	52800721 	mov	w1, #0x39                  	// #57
    ed20:	aa1303e0 	mov	x0, x19
    ed24:	17fffa3c 	b	d614 <_ZN9__gnu_cxx27__verbose_terminate_handlerEv@@Base+0x6c74>
    ed28:	aa1303e0 	mov	x0, x19
    ed2c:	97fff5c8 	bl	c44c <_ZN9__gnu_cxx27__verbose_terminate_handlerEv@@Base+0x5aac>
    ed30:	aa0003f9 	mov	x25, x0
    ed34:	aa1303e0 	mov	x0, x19
    ed38:	97fff5c5 	bl	c44c <_ZN9__gnu_cxx27__verbose_terminate_handlerEv@@Base+0x5aac>
    ed3c:	aa0003fa 	mov	x26, x0
    ed40:	aa1303e0 	mov	x0, x19
    ed44:	97fff5c2 	bl	c44c <_ZN9__gnu_cxx27__verbose_terminate_handlerEv@@Base+0x5aac>
    ed48:	17ffffea 	b	ecf0 <_ZN9__gnu_cxx27__verbose_terminate_handlerEv@@Base+0x8350>
    ed4c:	d2800019 	mov	x25, #0x0                   	// #0
    ed50:	17fffa44 	b	d660 <_ZN9__gnu_cxx27__verbose_terminate_handlerEv@@Base+0x6cc0>
    ed54:	d2800019 	mov	x25, #0x0                   	// #0
    ed58:	17fffa34 	b	d628 <_ZN9__gnu_cxx27__verbose_terminate_handlerEv@@Base+0x6c88>
    ed5c:	39400402 	ldrb	w2, [x0, #1]
    ed60:	7101a45f 	cmp	w2, #0x69
    ed64:	54ffff41 	b.ne	ed4c <_ZN9__gnu_cxx27__verbose_terminate_handlerEv@@Base+0x83ac>  // b.any
    ed68:	91000801 	add	x1, x0, #0x2
    ed6c:	aa1303e0 	mov	x0, x19
    ed70:	f9000e61 	str	x1, [x19, #24]
    ed74:	528008a1 	mov	w1, #0x45                  	// #69
    ed78:	97ffe89a 	bl	8fe0 <_ZN9__gnu_cxx27__verbose_terminate_handlerEv@@Base+0x2640>
    ed7c:	17ffffdd 	b	ecf0 <_ZN9__gnu_cxx27__verbose_terminate_handlerEv@@Base+0x8350>
    ed80:	91000401 	add	x1, x0, #0x1
    ed84:	d2800000 	mov	x0, #0x0                   	// #0
    ed88:	f9000e61 	str	x1, [x19, #24]
    ed8c:	17ffffd9 	b	ecf0 <_ZN9__gnu_cxx27__verbose_terminate_handlerEv@@Base+0x8350>
    ed90:	394002e0 	ldrb	w0, [x23]
    ed94:	7101b41f 	cmp	w0, #0x6d
    ed98:	54000060 	b.eq	eda4 <_ZN9__gnu_cxx27__verbose_terminate_handlerEv@@Base+0x8404>  // b.none
    ed9c:	7101c01f 	cmp	w0, #0x70
    eda0:	54ff3d21 	b.ne	d544 <_ZN9__gnu_cxx27__verbose_terminate_handlerEv@@Base+0x6ba4>  // b.any
    eda4:	394006e1 	ldrb	w1, [x23, #1]
    eda8:	6b00003f 	cmp	w1, w0
    edac:	54ff3cc1 	b.ne	d544 <_ZN9__gnu_cxx27__verbose_terminate_handlerEv@@Base+0x6ba4>  // b.any
    edb0:	f9400e60 	ldr	x0, [x19, #24]
    edb4:	39400001 	ldrb	w1, [x0]
    edb8:	71017c3f 	cmp	w1, #0x5f
    edbc:	54000240 	b.eq	ee04 <_ZN9__gnu_cxx27__verbose_terminate_handlerEv@@Base+0x8464>  // b.none
    edc0:	aa1303e0 	mov	x0, x19
    edc4:	97fff5a2 	bl	c44c <_ZN9__gnu_cxx27__verbose_terminate_handlerEv@@Base+0x5aac>
    edc8:	aa0003e2 	mov	x2, x0
    edcc:	52800701 	mov	w1, #0x38                  	// #56
    edd0:	aa0203e3 	mov	x3, x2
    edd4:	aa1303e0 	mov	x0, x19
    edd8:	97ffdf56 	bl	6b30 <_ZN9__gnu_cxx27__verbose_terminate_handlerEv@@Base+0x190>
    eddc:	aa0003e3 	mov	x3, x0
    ede0:	528006c1 	mov	w1, #0x36                  	// #54
    ede4:	aa1303e0 	mov	x0, x19
    ede8:	17fff9dc 	b	d558 <_ZN9__gnu_cxx27__verbose_terminate_handlerEv@@Base+0x6bb8>
    edec:	aa1303e0 	mov	x0, x19
    edf0:	97ffea51 	bl	9734 <_ZN9__gnu_cxx27__verbose_terminate_handlerEv@@Base+0x2d94>
    edf4:	aa0003e3 	mov	x3, x0
    edf8:	528006c1 	mov	w1, #0x36                  	// #54
    edfc:	aa1303e0 	mov	x0, x19
    ee00:	17fff9d6 	b	d558 <_ZN9__gnu_cxx27__verbose_terminate_handlerEv@@Base+0x6bb8>
    ee04:	91000400 	add	x0, x0, #0x1
    ee08:	f9000e60 	str	x0, [x19, #24]
    ee0c:	17fff9ce 	b	d544 <_ZN9__gnu_cxx27__verbose_terminate_handlerEv@@Base+0x6ba4>
    ee10:	91000801 	add	x1, x0, #0x2
    ee14:	aa1303e0 	mov	x0, x19
    ee18:	f9000e61 	str	x1, [x19, #24]
    ee1c:	97ffea46 	bl	9734 <_ZN9__gnu_cxx27__verbose_terminate_handlerEv@@Base+0x2d94>
    ee20:	aa0003f6 	mov	x22, x0
    ee24:	aa1303e0 	mov	x0, x19
    ee28:	97fff0ae 	bl	b0e0 <_ZN9__gnu_cxx27__verbose_terminate_handlerEv@@Base+0x4740>
    ee2c:	aa0003f9 	mov	x25, x0
    ee30:	f9400e60 	ldr	x0, [x19, #24]
    ee34:	39400000 	ldrb	w0, [x0]
    ee38:	7101241f 	cmp	w0, #0x49
    ee3c:	aa1303e0 	mov	x0, x19
    ee40:	540002e0 	b.eq	ee9c <_ZN9__gnu_cxx27__verbose_terminate_handlerEv@@Base+0x84fc>  // b.none
    ee44:	aa1603e2 	mov	x2, x22
    ee48:	52800021 	mov	w1, #0x1                   	// #1
    ee4c:	aa1903e3 	mov	x3, x25
    ee50:	d0000058 	adrp	x24, 18000 <_ZTSN10__cxxabiv117__class_type_infoE@@Base>
    ee54:	97ffdf37 	bl	6b30 <_ZN9__gnu_cxx27__verbose_terminate_handlerEv@@Base+0x190>
    ee58:	aa0003f6 	mov	x22, x0
    ee5c:	17fff8e4 	b	d1ec <_ZN9__gnu_cxx27__verbose_terminate_handlerEv@@Base+0x684c>
    ee60:	aa1303e0 	mov	x0, x19
    ee64:	97ffe262 	bl	77ec <_ZN9__gnu_cxx27__verbose_terminate_handlerEv@@Base+0xe4c>
    ee68:	31000400 	adds	w0, w0, #0x1
    ee6c:	54ff58c1 	b.ne	d984 <_ZN9__gnu_cxx27__verbose_terminate_handlerEv@@Base+0x6fe4>  // b.any
    ee70:	17fffc49 	b	df94 <_ZN9__gnu_cxx27__verbose_terminate_handlerEv@@Base+0x75f4>
    ee74:	aa1303e0 	mov	x0, x19
    ee78:	d0000058 	adrp	x24, 18000 <_ZTSN10__cxxabiv117__class_type_infoE@@Base>
    ee7c:	97ffea2e 	bl	9734 <_ZN9__gnu_cxx27__verbose_terminate_handlerEv@@Base+0x2d94>
    ee80:	aa0003e3 	mov	x3, x0
    ee84:	aa1603e2 	mov	x2, x22
    ee88:	aa1303e0 	mov	x0, x19
    ee8c:	528006c1 	mov	w1, #0x36                  	// #54
    ee90:	97ffdf28 	bl	6b30 <_ZN9__gnu_cxx27__verbose_terminate_handlerEv@@Base+0x190>
    ee94:	aa0003f6 	mov	x22, x0
    ee98:	17fff8d5 	b	d1ec <_ZN9__gnu_cxx27__verbose_terminate_handlerEv@@Base+0x684c>
    ee9c:	97ffe316 	bl	7af4 <_ZN9__gnu_cxx27__verbose_terminate_handlerEv@@Base+0x1154>
    eea0:	aa0003e3 	mov	x3, x0
    eea4:	52800081 	mov	w1, #0x4                   	// #4
    eea8:	aa1903e2 	mov	x2, x25
    eeac:	aa1303e0 	mov	x0, x19
    eeb0:	d0000058 	adrp	x24, 18000 <_ZTSN10__cxxabiv117__class_type_infoE@@Base>
    eeb4:	97ffdf1f 	bl	6b30 <_ZN9__gnu_cxx27__verbose_terminate_handlerEv@@Base+0x190>
    eeb8:	aa0003e3 	mov	x3, x0
    eebc:	aa1603e2 	mov	x2, x22
    eec0:	aa1303e0 	mov	x0, x19
    eec4:	52800021 	mov	w1, #0x1                   	// #1
    eec8:	97ffdf1a 	bl	6b30 <_ZN9__gnu_cxx27__verbose_terminate_handlerEv@@Base+0x190>
    eecc:	aa0003f6 	mov	x22, x0
    eed0:	17fff8c7 	b	d1ec <_ZN9__gnu_cxx27__verbose_terminate_handlerEv@@Base+0x684c>
    eed4:	91000401 	add	x1, x0, #0x1
    eed8:	aa1303e0 	mov	x0, x19
    eedc:	f9000e61 	str	x1, [x19, #24]
    eee0:	528008a1 	mov	w1, #0x45                  	// #69
    eee4:	97ffe83f 	bl	8fe0 <_ZN9__gnu_cxx27__verbose_terminate_handlerEv@@Base+0x2640>
    eee8:	aa0003e3 	mov	x3, x0
    eeec:	17fff8ba 	b	d1d4 <_ZN9__gnu_cxx27__verbose_terminate_handlerEv@@Base+0x6834>
    eef0:	b9400ac1 	ldr	w1, [x22, #8]
    eef4:	71000c3f 	cmp	w1, #0x3
    eef8:	54ff84e8 	b.hi	df94 <_ZN9__gnu_cxx27__verbose_terminate_handlerEv@@Base+0x75f4>  // b.pmore
    eefc:	d0000040 	adrp	x0, 18000 <_ZTSN10__cxxabiv117__class_type_infoE@@Base>
    ef00:	9110b000 	add	x0, x0, #0x42c
    ef04:	78615800 	ldrh	w0, [x0, w1, uxtw #1]
    ef08:	10000061 	adr	x1, ef14 <_ZN9__gnu_cxx27__verbose_terminate_handlerEv@@Base+0x8574>
    ef0c:	8b20a820 	add	x0, x1, w0, sxth #2
    ef10:	d61f0000 	br	x0
    ef14:	39400401 	ldrb	w1, [x0, #1]
    ef18:	d2800017 	mov	x23, #0x0                   	// #0
    ef1c:	7101a43f 	cmp	w1, #0x69
    ef20:	54fefec1 	b.ne	cef8 <_ZN9__gnu_cxx27__verbose_terminate_handlerEv@@Base+0x6558>  // b.any
    ef24:	91000801 	add	x1, x0, #0x2
    ef28:	aa1303e0 	mov	x0, x19
    ef2c:	f9000e61 	str	x1, [x19, #24]
    ef30:	528008a1 	mov	w1, #0x45                  	// #69
    ef34:	97ffe82b 	bl	8fe0 <_ZN9__gnu_cxx27__verbose_terminate_handlerEv@@Base+0x2640>
    ef38:	17fffbf7 	b	df14 <_ZN9__gnu_cxx27__verbose_terminate_handlerEv@@Base+0x7574>
    ef3c:	91000401 	add	x1, x0, #0x1
    ef40:	d2800000 	mov	x0, #0x0                   	// #0
    ef44:	f9000e61 	str	x1, [x19, #24]
    ef48:	17fffbf3 	b	df14 <_ZN9__gnu_cxx27__verbose_terminate_handlerEv@@Base+0x7574>
    ef4c:	d2800019 	mov	x25, #0x0                   	// #0
    ef50:	f94006c0 	ldr	x0, [x22, #8]
    ef54:	f9400000 	ldr	x0, [x0]
    ef58:	39400401 	ldrb	w1, [x0, #1]
    ef5c:	71018c3f 	cmp	w1, #0x63
    ef60:	54000660 	b.eq	f02c <_ZN9__gnu_cxx27__verbose_terminate_handlerEv@@Base+0x868c>  // b.none
    ef64:	aa1303e0 	mov	x0, x19
    ef68:	97fff539 	bl	c44c <_ZN9__gnu_cxx27__verbose_terminate_handlerEv@@Base+0x5aac>
    ef6c:	aa0003fa 	mov	x26, x0
    ef70:	d0000058 	adrp	x24, 18000 <_ZTSN10__cxxabiv117__class_type_infoE@@Base>
    ef74:	aa1903e0 	mov	x0, x25
    ef78:	91160301 	add	x1, x24, #0x580
    ef7c:	97ffd6a9 	bl	4a20 <strcmp@plt>
    ef80:	340004c0 	cbz	w0, f018 <_ZN9__gnu_cxx27__verbose_terminate_handlerEv@@Base+0x8678>
    ef84:	d0000041 	adrp	x1, 18000 <_ZTSN10__cxxabiv117__class_type_infoE@@Base>
    ef88:	aa1903e0 	mov	x0, x25
    ef8c:	91162021 	add	x1, x1, #0x588
    ef90:	97ffd6a4 	bl	4a20 <strcmp@plt>
    ef94:	340000c0 	cbz	w0, efac <_ZN9__gnu_cxx27__verbose_terminate_handlerEv@@Base+0x860c>
    ef98:	d0000041 	adrp	x1, 18000 <_ZTSN10__cxxabiv117__class_type_infoE@@Base>
    ef9c:	aa1903e0 	mov	x0, x25
    efa0:	91164021 	add	x1, x1, #0x590
    efa4:	97ffd69f 	bl	4a20 <strcmp@plt>
    efa8:	350005c0 	cbnz	w0, f060 <_ZN9__gnu_cxx27__verbose_terminate_handlerEv@@Base+0x86c0>
    efac:	aa1303e0 	mov	x0, x19
    efb0:	97fff04c 	bl	b0e0 <_ZN9__gnu_cxx27__verbose_terminate_handlerEv@@Base+0x4740>
    efb4:	aa0003f9 	mov	x25, x0
    efb8:	f9400e60 	ldr	x0, [x19, #24]
    efbc:	39400000 	ldrb	w0, [x0]
    efc0:	7101241f 	cmp	w0, #0x49
    efc4:	54000121 	b.ne	efe8 <_ZN9__gnu_cxx27__verbose_terminate_handlerEv@@Base+0x8648>  // b.any
    efc8:	aa1303e0 	mov	x0, x19
    efcc:	97ffe2ca 	bl	7af4 <_ZN9__gnu_cxx27__verbose_terminate_handlerEv@@Base+0x1154>
    efd0:	aa0003e3 	mov	x3, x0
    efd4:	aa1903e2 	mov	x2, x25
    efd8:	aa1303e0 	mov	x0, x19
    efdc:	52800081 	mov	w1, #0x4                   	// #4
    efe0:	97ffded4 	bl	6b30 <_ZN9__gnu_cxx27__verbose_terminate_handlerEv@@Base+0x190>
    efe4:	aa0003f9 	mov	x25, x0
    efe8:	52800701 	mov	w1, #0x38                  	// #56
    efec:	aa1a03e2 	mov	x2, x26
    eff0:	aa1903e3 	mov	x3, x25
    eff4:	aa1303e0 	mov	x0, x19
    eff8:	97ffdece 	bl	6b30 <_ZN9__gnu_cxx27__verbose_terminate_handlerEv@@Base+0x190>
    effc:	aa0003e3 	mov	x3, x0
    f000:	aa1603e2 	mov	x2, x22
    f004:	aa1303e0 	mov	x0, x19
    f008:	528006e1 	mov	w1, #0x37                  	// #55
    f00c:	97ffdec9 	bl	6b30 <_ZN9__gnu_cxx27__verbose_terminate_handlerEv@@Base+0x190>
    f010:	aa0003f6 	mov	x22, x0
    f014:	17fff876 	b	d1ec <_ZN9__gnu_cxx27__verbose_terminate_handlerEv@@Base+0x684c>
    f018:	aa1303e0 	mov	x0, x19
    f01c:	528008a1 	mov	w1, #0x45                  	// #69
    f020:	97ffe7f0 	bl	8fe0 <_ZN9__gnu_cxx27__verbose_terminate_handlerEv@@Base+0x2640>
    f024:	aa0003f9 	mov	x25, x0
    f028:	17fffff0 	b	efe8 <_ZN9__gnu_cxx27__verbose_terminate_handlerEv@@Base+0x8648>
    f02c:	39400000 	ldrb	w0, [x0]
    f030:	5101c801 	sub	w1, w0, #0x72
    f034:	53001c21 	uxtb	w1, w1
    f038:	7100043f 	cmp	w1, #0x1
    f03c:	540000a9 	b.ls	f050 <_ZN9__gnu_cxx27__verbose_terminate_handlerEv@@Base+0x86b0>  // b.plast
    f040:	51018c00 	sub	w0, w0, #0x63
    f044:	53001c00 	uxtb	w0, w0
    f048:	7100041f 	cmp	w0, #0x1
    f04c:	54fff8c8 	b.hi	ef64 <_ZN9__gnu_cxx27__verbose_terminate_handlerEv@@Base+0x85c4>  // b.pmore
    f050:	aa1303e0 	mov	x0, x19
    f054:	97ffe9b8 	bl	9734 <_ZN9__gnu_cxx27__verbose_terminate_handlerEv@@Base+0x2d94>
    f058:	aa0003fa 	mov	x26, x0
    f05c:	17ffffc5 	b	ef70 <_ZN9__gnu_cxx27__verbose_terminate_handlerEv@@Base+0x85d0>
    f060:	aa1303e0 	mov	x0, x19
    f064:	97fff4fa 	bl	c44c <_ZN9__gnu_cxx27__verbose_terminate_handlerEv@@Base+0x5aac>
    f068:	aa0003f9 	mov	x25, x0
    f06c:	17ffffdf 	b	efe8 <_ZN9__gnu_cxx27__verbose_terminate_handlerEv@@Base+0x8648>
    f070:	d2800019 	mov	x25, #0x0                   	// #0
    f074:	b0000041 	adrp	x1, 18000 <_ZTSN10__cxxabiv117__class_type_infoE@@Base>
    f078:	aa1903e0 	mov	x0, x25
    f07c:	91166021 	add	x1, x1, #0x598
    f080:	97ffd668 	bl	4a20 <strcmp@plt>
    f084:	340005e0 	cbz	w0, f140 <_ZN9__gnu_cxx27__verbose_terminate_handlerEv@@Base+0x87a0>
    f088:	39400320 	ldrb	w0, [x25]
    f08c:	7101b81f 	cmp	w0, #0x6e
    f090:	54ff7821 	b.ne	df94 <_ZN9__gnu_cxx27__verbose_terminate_handlerEv@@Base+0x75f4>  // b.any
    f094:	39400720 	ldrb	w0, [x25, #1]
    f098:	7101841f 	cmp	w0, #0x61
    f09c:	54000060 	b.eq	f0a8 <_ZN9__gnu_cxx27__verbose_terminate_handlerEv@@Base+0x8708>  // b.none
    f0a0:	7101dc1f 	cmp	w0, #0x77
    f0a4:	54ff7781 	b.ne	df94 <_ZN9__gnu_cxx27__verbose_terminate_handlerEv@@Base+0x75f4>  // b.any
    f0a8:	52800be1 	mov	w1, #0x5f                  	// #95
    f0ac:	aa1303e0 	mov	x0, x19
    f0b0:	97ffe7cc 	bl	8fe0 <_ZN9__gnu_cxx27__verbose_terminate_handlerEv@@Base+0x2640>
    f0b4:	aa0003f9 	mov	x25, x0
    f0b8:	aa1303e0 	mov	x0, x19
    f0bc:	97ffe99e 	bl	9734 <_ZN9__gnu_cxx27__verbose_terminate_handlerEv@@Base+0x2d94>
    f0c0:	aa0003f8 	mov	x24, x0
    f0c4:	f9400e60 	ldr	x0, [x19, #24]
    f0c8:	39400001 	ldrb	w1, [x0]
    f0cc:	7101143f 	cmp	w1, #0x45
    f0d0:	540005c0 	b.eq	f188 <_ZN9__gnu_cxx27__verbose_terminate_handlerEv@@Base+0x87e8>  // b.none
    f0d4:	7101c03f 	cmp	w1, #0x70
    f0d8:	54000460 	b.eq	f164 <_ZN9__gnu_cxx27__verbose_terminate_handlerEv@@Base+0x87c4>  // b.none
    f0dc:	7101a43f 	cmp	w1, #0x69
    f0e0:	54ff75a1 	b.ne	df94 <_ZN9__gnu_cxx27__verbose_terminate_handlerEv@@Base+0x75f4>  // b.any
    f0e4:	39400400 	ldrb	w0, [x0, #1]
    f0e8:	7101b01f 	cmp	w0, #0x6c
    f0ec:	54ff7541 	b.ne	df94 <_ZN9__gnu_cxx27__verbose_terminate_handlerEv@@Base+0x75f4>  // b.any
    f0f0:	aa1303e0 	mov	x0, x19
    f0f4:	97fff4d6 	bl	c44c <_ZN9__gnu_cxx27__verbose_terminate_handlerEv@@Base+0x5aac>
    f0f8:	aa1803e2 	mov	x2, x24
    f0fc:	aa0003e3 	mov	x3, x0
    f100:	52800761 	mov	w1, #0x3b                  	// #59
    f104:	aa1303e0 	mov	x0, x19
    f108:	b0000058 	adrp	x24, 18000 <_ZTSN10__cxxabiv117__class_type_infoE@@Base>
    f10c:	97ffde89 	bl	6b30 <_ZN9__gnu_cxx27__verbose_terminate_handlerEv@@Base+0x190>
    f110:	aa0003e3 	mov	x3, x0
    f114:	52800741 	mov	w1, #0x3a                  	// #58
    f118:	aa1903e2 	mov	x2, x25
    f11c:	aa1303e0 	mov	x0, x19
    f120:	97ffde84 	bl	6b30 <_ZN9__gnu_cxx27__verbose_terminate_handlerEv@@Base+0x190>
    f124:	aa0003e3 	mov	x3, x0
    f128:	aa1603e2 	mov	x2, x22
    f12c:	aa1303e0 	mov	x0, x19
    f130:	52800721 	mov	w1, #0x39                  	// #57
    f134:	97ffde7f 	bl	6b30 <_ZN9__gnu_cxx27__verbose_terminate_handlerEv@@Base+0x190>
    f138:	aa0003f6 	mov	x22, x0
    f13c:	17fff82c 	b	d1ec <_ZN9__gnu_cxx27__verbose_terminate_handlerEv@@Base+0x684c>
    f140:	aa1303e0 	mov	x0, x19
    f144:	97fff4c2 	bl	c44c <_ZN9__gnu_cxx27__verbose_terminate_handlerEv@@Base+0x5aac>
    f148:	aa0003f9 	mov	x25, x0
    f14c:	aa1303e0 	mov	x0, x19
    f150:	97fff4bf 	bl	c44c <_ZN9__gnu_cxx27__verbose_terminate_handlerEv@@Base+0x5aac>
    f154:	aa0003f8 	mov	x24, x0
    f158:	aa1303e0 	mov	x0, x19
    f15c:	97fff4bc 	bl	c44c <_ZN9__gnu_cxx27__verbose_terminate_handlerEv@@Base+0x5aac>
    f160:	17ffffe6 	b	f0f8 <_ZN9__gnu_cxx27__verbose_terminate_handlerEv@@Base+0x8758>
    f164:	39400401 	ldrb	w1, [x0, #1]
    f168:	7101a43f 	cmp	w1, #0x69
    f16c:	54ff7141 	b.ne	df94 <_ZN9__gnu_cxx27__verbose_terminate_handlerEv@@Base+0x75f4>  // b.any
    f170:	91000801 	add	x1, x0, #0x2
    f174:	aa1303e0 	mov	x0, x19
    f178:	f9000e61 	str	x1, [x19, #24]
    f17c:	528008a1 	mov	w1, #0x45                  	// #69
    f180:	97ffe798 	bl	8fe0 <_ZN9__gnu_cxx27__verbose_terminate_handlerEv@@Base+0x2640>
    f184:	17ffffdd 	b	f0f8 <_ZN9__gnu_cxx27__verbose_terminate_handlerEv@@Base+0x8758>
    f188:	91000401 	add	x1, x0, #0x1
    f18c:	d2800000 	mov	x0, #0x0                   	// #0
    f190:	f9000e61 	str	x1, [x19, #24]
    f194:	17ffffd9 	b	f0f8 <_ZN9__gnu_cxx27__verbose_terminate_handlerEv@@Base+0x8758>
    f198:	aa1603e2 	mov	x2, x22
    f19c:	aa1303e0 	mov	x0, x19
    f1a0:	528006a1 	mov	w1, #0x35                  	// #53
    f1a4:	d2800003 	mov	x3, #0x0                   	// #0
    f1a8:	b0000058 	adrp	x24, 18000 <_ZTSN10__cxxabiv117__class_type_infoE@@Base>
    f1ac:	97ffde61 	bl	6b30 <_ZN9__gnu_cxx27__verbose_terminate_handlerEv@@Base+0x190>
    f1b0:	aa0003f6 	mov	x22, x0
    f1b4:	17fff80e 	b	d1ec <_ZN9__gnu_cxx27__verbose_terminate_handlerEv@@Base+0x684c>
    f1b8:	39400320 	ldrb	w0, [x25]
    f1bc:	7101b41f 	cmp	w0, #0x6d
    f1c0:	54000060 	b.eq	f1cc <_ZN9__gnu_cxx27__verbose_terminate_handlerEv@@Base+0x882c>  // b.none
    f1c4:	7101c01f 	cmp	w0, #0x70
    f1c8:	54ff0001 	b.ne	d1c8 <_ZN9__gnu_cxx27__verbose_terminate_handlerEv@@Base+0x6828>  // b.any
    f1cc:	39400721 	ldrb	w1, [x25, #1]
    f1d0:	6b00003f 	cmp	w1, w0
    f1d4:	54feffa1 	b.ne	d1c8 <_ZN9__gnu_cxx27__verbose_terminate_handlerEv@@Base+0x6828>  // b.any
    f1d8:	f9400e60 	ldr	x0, [x19, #24]
    f1dc:	39400001 	ldrb	w1, [x0]
    f1e0:	71017c3f 	cmp	w1, #0x5f
    f1e4:	54000540 	b.eq	f28c <_ZN9__gnu_cxx27__verbose_terminate_handlerEv@@Base+0x88ec>  // b.none
    f1e8:	aa1303e0 	mov	x0, x19
    f1ec:	b0000058 	adrp	x24, 18000 <_ZTSN10__cxxabiv117__class_type_infoE@@Base>
    f1f0:	97fff497 	bl	c44c <_ZN9__gnu_cxx27__verbose_terminate_handlerEv@@Base+0x5aac>
    f1f4:	aa0003e2 	mov	x2, x0
    f1f8:	52800701 	mov	w1, #0x38                  	// #56
    f1fc:	aa1303e0 	mov	x0, x19
    f200:	aa0203e3 	mov	x3, x2
    f204:	97ffde4b 	bl	6b30 <_ZN9__gnu_cxx27__verbose_terminate_handlerEv@@Base+0x190>
    f208:	17ffff1e 	b	ee80 <_ZN9__gnu_cxx27__verbose_terminate_handlerEv@@Base+0x84e0>
    f20c:	aa1303e0 	mov	x0, x19
    f210:	97ffe949 	bl	9734 <_ZN9__gnu_cxx27__verbose_terminate_handlerEv@@Base+0x2d94>
    f214:	aa0003e2 	mov	x2, x0
    f218:	f9400e60 	ldr	x0, [x19, #24]
    f21c:	17fffa42 	b	db24 <_ZN9__gnu_cxx27__verbose_terminate_handlerEv@@Base+0x7184>
    f220:	aa1303e0 	mov	x0, x19
    f224:	97ffe944 	bl	9734 <_ZN9__gnu_cxx27__verbose_terminate_handlerEv@@Base+0x2d94>
    f228:	aa0003e2 	mov	x2, x0
    f22c:	f9400e60 	ldr	x0, [x19, #24]
    f230:	17fffb6e 	b	dfe8 <_ZN9__gnu_cxx27__verbose_terminate_handlerEv@@Base+0x7648>
    f234:	f94006e3 	ldr	x3, [x23, #8]
    f238:	b0000041 	adrp	x1, 18000 <_ZTSN10__cxxabiv117__class_type_infoE@@Base>
    f23c:	b9405262 	ldr	w2, [x19, #80]
    f240:	912c0021 	add	x1, x1, #0xb00
    f244:	b9401060 	ldr	w0, [x3, #16]
    f248:	f9400079 	ldr	x25, [x3]
    f24c:	51000800 	sub	w0, w0, #0x2
    f250:	0b000042 	add	w2, w2, w0
    f254:	aa1903e0 	mov	x0, x25
    f258:	b9005262 	str	w2, [x19, #80]
    f25c:	97ffd5f1 	bl	4a20 <strcmp@plt>
    f260:	340004a0 	cbz	w0, f2f4 <_ZN9__gnu_cxx27__verbose_terminate_handlerEv@@Base+0x8954>
    f264:	f94006e0 	ldr	x0, [x23, #8]
    f268:	b9401401 	ldr	w1, [x0, #20]
    f26c:	71000c3f 	cmp	w1, #0x3
    f270:	54ff4468 	b.hi	dafc <_ZN9__gnu_cxx27__verbose_terminate_handlerEv@@Base+0x715c>  // b.pmore
    f274:	b0000040 	adrp	x0, 18000 <_ZTSN10__cxxabiv117__class_type_infoE@@Base>
    f278:	9110d000 	add	x0, x0, #0x434
    f27c:	78615800 	ldrh	w0, [x0, w1, uxtw #1]
    f280:	10000061 	adr	x1, f28c <_ZN9__gnu_cxx27__verbose_terminate_handlerEv@@Base+0x88ec>
    f284:	8b20a820 	add	x0, x1, w0, sxth #2
    f288:	d61f0000 	br	x0
    f28c:	91000400 	add	x0, x0, #0x1
    f290:	f9000e60 	str	x0, [x19, #24]
    f294:	17fff7cd 	b	d1c8 <_ZN9__gnu_cxx27__verbose_terminate_handlerEv@@Base+0x6828>
    f298:	39400320 	ldrb	w0, [x25]
    f29c:	7101b41f 	cmp	w0, #0x6d
    f2a0:	54000060 	b.eq	f2ac <_ZN9__gnu_cxx27__verbose_terminate_handlerEv@@Base+0x890c>  // b.none
    f2a4:	7101c01f 	cmp	w0, #0x70
    f2a8:	54ff1ac1 	b.ne	d600 <_ZN9__gnu_cxx27__verbose_terminate_handlerEv@@Base+0x6c60>  // b.any
    f2ac:	39400721 	ldrb	w1, [x25, #1]
    f2b0:	6b00003f 	cmp	w1, w0
    f2b4:	54ff1a61 	b.ne	d600 <_ZN9__gnu_cxx27__verbose_terminate_handlerEv@@Base+0x6c60>  // b.any
    f2b8:	f9400e60 	ldr	x0, [x19, #24]
    f2bc:	39400001 	ldrb	w1, [x0]
    f2c0:	71017c3f 	cmp	w1, #0x5f
    f2c4:	54000240 	b.eq	f30c <_ZN9__gnu_cxx27__verbose_terminate_handlerEv@@Base+0x896c>  // b.none
    f2c8:	aa1303e0 	mov	x0, x19
    f2cc:	97fff460 	bl	c44c <_ZN9__gnu_cxx27__verbose_terminate_handlerEv@@Base+0x5aac>
    f2d0:	aa0003e2 	mov	x2, x0
    f2d4:	52800701 	mov	w1, #0x38                  	// #56
    f2d8:	aa0203e3 	mov	x3, x2
    f2dc:	aa1303e0 	mov	x0, x19
    f2e0:	97ffde14 	bl	6b30 <_ZN9__gnu_cxx27__verbose_terminate_handlerEv@@Base+0x190>
    f2e4:	aa0003e3 	mov	x3, x0
    f2e8:	528006c1 	mov	w1, #0x36                  	// #54
    f2ec:	aa1303e0 	mov	x0, x19
    f2f0:	17fff8c9 	b	d614 <_ZN9__gnu_cxx27__verbose_terminate_handlerEv@@Base+0x6c74>
    f2f4:	aa1303e0 	mov	x0, x19
    f2f8:	97ffe90f 	bl	9734 <_ZN9__gnu_cxx27__verbose_terminate_handlerEv@@Base+0x2d94>
    f2fc:	aa0003e3 	mov	x3, x0
    f300:	528006c1 	mov	w1, #0x36                  	// #54
    f304:	aa1303e0 	mov	x0, x19
    f308:	17fff8c3 	b	d614 <_ZN9__gnu_cxx27__verbose_terminate_handlerEv@@Base+0x6c74>
    f30c:	91000400 	add	x0, x0, #0x1
    f310:	f9000e60 	str	x0, [x19, #24]
    f314:	17fff8bb 	b	d600 <_ZN9__gnu_cxx27__verbose_terminate_handlerEv@@Base+0x6c60>
    f318:	a9b17bfd 	stp	x29, x30, [sp, #-240]!
    f31c:	910003fd 	mov	x29, sp
    f320:	a90153f3 	stp	x19, x20, [sp, #16]
    f324:	a9025bf5 	stp	x21, x22, [sp, #32]
    f328:	a90363f7 	stp	x23, x24, [sp, #48]
    f32c:	a9046bf9 	stp	x25, x26, [sp, #64]
    f330:	aa0203f4 	mov	x20, x2
    f334:	aa0003f3 	mov	x19, x0
    f338:	2a0103f5 	mov	w21, w1
    f33c:	b40002c2 	cbz	x2, f394 <_ZN9__gnu_cxx27__verbose_terminate_handlerEv@@Base+0x89f4>
    f340:	b9413000 	ldr	w0, [x0, #304]
    f344:	350000c0 	cbnz	w0, f35c <_ZN9__gnu_cxx27__verbose_terminate_handlerEv@@Base+0x89bc>
    f348:	b9400040 	ldr	w0, [x2]
    f34c:	7101301f 	cmp	w0, #0x4c
    f350:	54000129 	b.ls	f374 <_ZN9__gnu_cxx27__verbose_terminate_handlerEv@@Base+0x89d4>  // b.plast
    f354:	52800020 	mov	w0, #0x1                   	// #1
    f358:	b9013260 	str	w0, [x19, #304]
    f35c:	a94153f3 	ldp	x19, x20, [sp, #16]
    f360:	a9425bf5 	ldp	x21, x22, [sp, #32]
    f364:	a94363f7 	ldp	x23, x24, [sp, #48]
    f368:	a9446bf9 	ldp	x25, x26, [sp, #64]
    f36c:	a8cf7bfd 	ldp	x29, x30, [sp], #240
    f370:	d65f03c0 	ret
    f374:	b0000041 	adrp	x1, 18000 <_ZTSN10__cxxabiv117__class_type_infoE@@Base>
    f378:	9110f021 	add	x1, x1, #0x43c
    f37c:	78605821 	ldrh	w1, [x1, w0, uxtw #1]
    f380:	10000062 	adr	x2, f38c <_ZN9__gnu_cxx27__verbose_terminate_handlerEv@@Base+0x89ec>
    f384:	8b21a841 	add	x1, x2, w1, sxth #2
    f388:	d61f0020 	br	x1
    f38c:	34000057 	cbz	w23, f394 <_ZN9__gnu_cxx27__verbose_terminate_handlerEv@@Base+0x89f4>
    f390:	f9009276 	str	x22, [x19, #288]
    f394:	52800020 	mov	w0, #0x1                   	// #1
    f398:	b9013260 	str	w0, [x19, #304]
    f39c:	a9425bf5 	ldp	x21, x22, [sp, #32]
    f3a0:	a94153f3 	ldp	x19, x20, [sp, #16]
    f3a4:	a94363f7 	ldp	x23, x24, [sp, #48]
    f3a8:	a9446bf9 	ldp	x25, x26, [sp, #64]
    f3ac:	a8cf7bfd 	ldp	x29, x30, [sp], #240
    f3b0:	d65f03c0 	ret
    f3b4:	37113175 	tbnz	w21, #2, 119e0 <_ZN9__gnu_cxx27__verbose_terminate_handlerEv@@Base+0xb040>
    f3b8:	b9801296 	ldrsw	x22, [x20, #16]
    f3bc:	f9400697 	ldr	x23, [x20, #8]
    f3c0:	b4fffcf6 	cbz	x22, f35c <_ZN9__gnu_cxx27__verbose_terminate_handlerEv@@Base+0x89bc>
    f3c4:	f9408261 	ldr	x1, [x19, #256]
    f3c8:	d2800014 	mov	x20, #0x0                   	// #0
    f3cc:	14000009 	b	f3f0 <_ZN9__gnu_cxx27__verbose_terminate_handlerEv@@Base+0x8a50>
    f3d0:	aa0103e0 	mov	x0, x1
    f3d4:	91000421 	add	x1, x1, #0x1
    f3d8:	f9008261 	str	x1, [x19, #256]
    f3dc:	91000694 	add	x20, x20, #0x1
    f3e0:	38206a75 	strb	w21, [x19, x0]
    f3e4:	eb1402df 	cmp	x22, x20
    f3e8:	39042275 	strb	w21, [x19, #264]
    f3ec:	54fffb80 	b.eq	f35c <_ZN9__gnu_cxx27__verbose_terminate_handlerEv@@Base+0x89bc>  // b.none
    f3f0:	f103fc3f 	cmp	x1, #0xff
    f3f4:	38746af5 	ldrb	w21, [x23, x20]
    f3f8:	54fffec1 	b.ne	f3d0 <_ZN9__gnu_cxx27__verbose_terminate_handlerEv@@Base+0x8a30>  // b.any
    f3fc:	f9408e62 	ldr	x2, [x19, #280]
    f400:	aa1303e0 	mov	x0, x19
    f404:	f9408a63 	ldr	x3, [x19, #272]
    f408:	3903fe7f 	strb	wzr, [x19, #255]
    f40c:	d63f0060 	blr	x3
    f410:	f9409e62 	ldr	x2, [x19, #312]
    f414:	d2800021 	mov	x1, #0x1                   	// #1
    f418:	d2800000 	mov	x0, #0x0                   	// #0
    f41c:	8b010042 	add	x2, x2, x1
    f420:	f9009e62 	str	x2, [x19, #312]
    f424:	17ffffed 	b	f3d8 <_ZN9__gnu_cxx27__verbose_terminate_handlerEv@@Base+0x8a38>
    f428:	f9400682 	ldr	x2, [x20, #8]
    f42c:	2a1503e1 	mov	w1, w21
    f430:	aa1303e0 	mov	x0, x19
    f434:	97ffffb9 	bl	f318 <_ZN9__gnu_cxx27__verbose_terminate_handlerEv@@Base+0x8978>
    f438:	f9408261 	ldr	x1, [x19, #256]
    f43c:	f103fc3f 	cmp	x1, #0xff
    f440:	37110875 	tbnz	w21, #2, 1154c <_ZN9__gnu_cxx27__verbose_terminate_handlerEv@@Base+0xabac>
    f444:	54018040 	b.eq	1244c <_ZN9__gnu_cxx27__verbose_terminate_handlerEv@@Base+0xbaac>  // b.none
    f448:	91000420 	add	x0, x1, #0x1
    f44c:	f9008260 	str	x0, [x19, #256]
    f450:	52800742 	mov	w2, #0x3a                  	// #58
    f454:	38216a62 	strb	w2, [x19, x1]
    f458:	39042262 	strb	w2, [x19, #264]
    f45c:	f103fc1f 	cmp	x0, #0xff
    f460:	52800756 	mov	w22, #0x3a                  	// #58
    f464:	5400c1c0 	b.eq	10c9c <_ZN9__gnu_cxx27__verbose_terminate_handlerEv@@Base+0xa2fc>  // b.none
    f468:	91000401 	add	x1, x0, #0x1
    f46c:	f9008261 	str	x1, [x19, #256]
    f470:	38206a76 	strb	w22, [x19, x0]
    f474:	39042276 	strb	w22, [x19, #264]
    f478:	f9400a82 	ldr	x2, [x20, #16]
    f47c:	b9400040 	ldr	w0, [x2]
    f480:	7101181f 	cmp	w0, #0x46
    f484:	54014f60 	b.eq	11e70 <_ZN9__gnu_cxx27__verbose_terminate_handlerEv@@Base+0xb4d0>  // b.none
    f488:	aa1303e0 	mov	x0, x19
    f48c:	2a1503e1 	mov	w1, w21
    f490:	97ffffa2 	bl	f318 <_ZN9__gnu_cxx27__verbose_terminate_handlerEv@@Base+0x8978>
    f494:	17ffffb2 	b	f35c <_ZN9__gnu_cxx27__verbose_terminate_handlerEv@@Base+0x89bc>
    f498:	f9409679 	ldr	x25, [x19, #296]
    f49c:	f900967f 	str	xzr, [x19, #296]
    f4a0:	f9400697 	ldr	x23, [x20, #8]
    f4a4:	b4000617 	cbz	x23, f564 <_ZN9__gnu_cxx27__verbose_terminate_handlerEv@@Base+0x8bc4>
    f4a8:	b94002e0 	ldr	w0, [x23]
    f4ac:	9101c3b6 	add	x22, x29, #0x70
    f4b0:	f9409264 	ldr	x4, [x19, #288]
    f4b4:	51007001 	sub	w1, w0, #0x1c
    f4b8:	f9003bbf 	str	xzr, [x29, #112]
    f4bc:	f9009676 	str	x22, [x19, #296]
    f4c0:	7100103f 	cmp	w1, #0x4
    f4c4:	f9003fb7 	str	x23, [x29, #120]
    f4c8:	b90083bf 	str	wzr, [x29, #128]
    f4cc:	f90047a4 	str	x4, [x29, #136]
    f4d0:	5401b748 	b.hi	12bb8 <_ZN9__gnu_cxx27__verbose_terminate_handlerEv@@Base+0xc218>  // b.pmore
    f4d4:	f94006f7 	ldr	x23, [x23, #8]
    f4d8:	b4000477 	cbz	x23, f564 <_ZN9__gnu_cxx27__verbose_terminate_handlerEv@@Base+0x8bc4>
    f4dc:	b94002e0 	ldr	w0, [x23]
    f4e0:	910082c2 	add	x2, x22, #0x20
    f4e4:	f90012d6 	str	x22, [x22, #32]
    f4e8:	51007001 	sub	w1, w0, #0x1c
    f4ec:	f9009662 	str	x2, [x19, #296]
    f4f0:	f90016d7 	str	x23, [x22, #40]
    f4f4:	7100103f 	cmp	w1, #0x4
    f4f8:	b90032df 	str	wzr, [x22, #48]
    f4fc:	f9001ec4 	str	x4, [x22, #56]
    f500:	5401a408 	b.hi	12980 <_ZN9__gnu_cxx27__verbose_terminate_handlerEv@@Base+0xbfe0>  // b.pmore
    f504:	f94006f7 	ldr	x23, [x23, #8]
    f508:	b40002f7 	cbz	x23, f564 <_ZN9__gnu_cxx27__verbose_terminate_handlerEv@@Base+0x8bc4>
    f50c:	aa1603e1 	mov	x1, x22
    f510:	b94002e0 	ldr	w0, [x23]
    f514:	51007003 	sub	w3, w0, #0x1c
    f518:	f8040c22 	str	x2, [x1, #64]!
    f51c:	7100107f 	cmp	w3, #0x4
    f520:	f90026d7 	str	x23, [x22, #72]
    f524:	f9009661 	str	x1, [x19, #296]
    f528:	b90052df 	str	wzr, [x22, #80]
    f52c:	f9002ec4 	str	x4, [x22, #88]
    f530:	5401b548 	b.hi	12bd8 <_ZN9__gnu_cxx27__verbose_terminate_handlerEv@@Base+0xc238>  // b.pmore
    f534:	f94006f7 	ldr	x23, [x23, #8]
    f538:	b4000177 	cbz	x23, f564 <_ZN9__gnu_cxx27__verbose_terminate_handlerEv@@Base+0x8bc4>
    f53c:	aa1603e2 	mov	x2, x22
    f540:	b94002e0 	ldr	w0, [x23]
    f544:	51007003 	sub	w3, w0, #0x1c
    f548:	f8060c41 	str	x1, [x2, #96]!
    f54c:	7100107f 	cmp	w3, #0x4
    f550:	f90036d7 	str	x23, [x22, #104]
    f554:	f9009662 	str	x2, [x19, #296]
    f558:	b90072df 	str	wzr, [x22, #112]
    f55c:	f9003ec4 	str	x4, [x22, #120]
    f560:	5401b388 	b.hi	12bd0 <_ZN9__gnu_cxx27__verbose_terminate_handlerEv@@Base+0xc230>  // b.pmore
    f564:	52800020 	mov	w0, #0x1                   	// #1
    f568:	b9013260 	str	w0, [x19, #304]
    f56c:	17ffff7c 	b	f35c <_ZN9__gnu_cxx27__verbose_terminate_handlerEv@@Base+0x89bc>
    f570:	3710e895 	tbnz	w21, #2, 11280 <_ZN9__gnu_cxx27__verbose_terminate_handlerEv@@Base+0xa8e0>
    f574:	f9400680 	ldr	x0, [x20, #8]
    f578:	b9800816 	ldrsw	x22, [x0, #8]
    f57c:	f9400017 	ldr	x23, [x0]
    f580:	b4ffeef6 	cbz	x22, f35c <_ZN9__gnu_cxx27__verbose_terminate_handlerEv@@Base+0x89bc>
    f584:	f9408261 	ldr	x1, [x19, #256]
    f588:	d2800014 	mov	x20, #0x0                   	// #0
    f58c:	14000009 	b	f5b0 <_ZN9__gnu_cxx27__verbose_terminate_handlerEv@@Base+0x8c10>
    f590:	aa0103e0 	mov	x0, x1
    f594:	91000421 	add	x1, x1, #0x1
    f598:	f9008261 	str	x1, [x19, #256]
    f59c:	91000694 	add	x20, x20, #0x1
    f5a0:	38206a75 	strb	w21, [x19, x0]
    f5a4:	eb1402df 	cmp	x22, x20
    f5a8:	39042275 	strb	w21, [x19, #264]
    f5ac:	54ffed80 	b.eq	f35c <_ZN9__gnu_cxx27__verbose_terminate_handlerEv@@Base+0x89bc>  // b.none
    f5b0:	f103fc3f 	cmp	x1, #0xff
    f5b4:	38746af5 	ldrb	w21, [x23, x20]
    f5b8:	54fffec1 	b.ne	f590 <_ZN9__gnu_cxx27__verbose_terminate_handlerEv@@Base+0x8bf0>  // b.any
    f5bc:	f9408e62 	ldr	x2, [x19, #280]
    f5c0:	aa1303e0 	mov	x0, x19
    f5c4:	f9408a63 	ldr	x3, [x19, #272]
    f5c8:	3903fe7f 	strb	wzr, [x19, #255]
    f5cc:	d63f0060 	blr	x3
    f5d0:	f9409e62 	ldr	x2, [x19, #312]
    f5d4:	d2800021 	mov	x1, #0x1                   	// #1
    f5d8:	d2800000 	mov	x0, #0x0                   	// #0
    f5dc:	8b010042 	add	x2, x2, x1
    f5e0:	f9009e62 	str	x2, [x19, #312]
    f5e4:	17ffffed 	b	f598 <_ZN9__gnu_cxx27__verbose_terminate_handlerEv@@Base+0x8bf8>
    f5e8:	f9400682 	ldr	x2, [x20, #8]
    f5ec:	aa1303e0 	mov	x0, x19
    f5f0:	2a1503e1 	mov	w1, w21
    f5f4:	97ffff49 	bl	f318 <_ZN9__gnu_cxx27__verbose_terminate_handlerEv@@Base+0x8978>
    f5f8:	17ffff59 	b	f35c <_ZN9__gnu_cxx27__verbose_terminate_handlerEv@@Base+0x89bc>
    f5fc:	3728fc15 	tbnz	w21, #5, 1157c <_ZN9__gnu_cxx27__verbose_terminate_handlerEv@@Base+0xabdc>
    f600:	f9400680 	ldr	x0, [x20, #8]
    f604:	b4015900 	cbz	x0, 12124 <_ZN9__gnu_cxx27__verbose_terminate_handlerEv@@Base+0xb784>
    f608:	121976b6 	and	w22, w21, #0xffffff9f
    f60c:	36314995 	tbz	w21, #6, 11f3c <_ZN9__gnu_cxx27__verbose_terminate_handlerEv@@Base+0xb59c>
    f610:	f9409663 	ldr	x3, [x19, #296]
    f614:	aa1303e0 	mov	x0, x19
    f618:	2a1603e1 	mov	w1, w22
    f61c:	91004282 	add	x2, x20, #0x10
    f620:	94001158 	bl	13b80 <_ZN9__gnu_cxx27__verbose_terminate_handlerEv@@Base+0xd1e0>
    f624:	17ffff4e 	b	f35c <_ZN9__gnu_cxx27__verbose_terminate_handlerEv@@Base+0x89bc>
    f628:	f9409664 	ldr	x4, [x19, #296]
    f62c:	9101c3b6 	add	x22, x29, #0x70
    f630:	f9409260 	ldr	x0, [x19, #288]
    f634:	aa0403f9 	mov	x25, x4
    f638:	f9003ba4 	str	x4, [x29, #112]
    f63c:	f9009676 	str	x22, [x19, #296]
    f640:	aa1603e4 	mov	x4, x22
    f644:	f9003fb4 	str	x20, [x29, #120]
    f648:	b90083bf 	str	wzr, [x29, #128]
    f64c:	f90047a0 	str	x0, [x29, #136]
    f650:	b4015159 	cbz	x25, 12078 <_ZN9__gnu_cxx27__verbose_terminate_handlerEv@@Base+0xb6d8>
    f654:	f9400720 	ldr	x0, [x25, #8]
    f658:	b9400000 	ldr	w0, [x0]
    f65c:	51006400 	sub	w0, w0, #0x19
    f660:	7100081f 	cmp	w0, #0x2
    f664:	540150a8 	b.hi	12078 <_ZN9__gnu_cxx27__verbose_terminate_handlerEv@@Base+0xb6d8>  // b.pmore
    f668:	52800037 	mov	w23, #0x1                   	// #1
    f66c:	aa1903e0 	mov	x0, x25
    f670:	2a1703e6 	mov	w6, w23
    f674:	14000006 	b	f68c <_ZN9__gnu_cxx27__verbose_terminate_handlerEv@@Base+0x8cec>
    f678:	f9400401 	ldr	x1, [x0, #8]
    f67c:	b9400021 	ldr	w1, [x1]
    f680:	51006421 	sub	w1, w1, #0x19
    f684:	7100083f 	cmp	w1, #0x2
    f688:	54000248 	b.hi	f6d0 <_ZN9__gnu_cxx27__verbose_terminate_handlerEv@@Base+0x8d30>  // b.pmore
    f68c:	b9401001 	ldr	w1, [x0, #16]
    f690:	350001c1 	cbnz	w1, f6c8 <_ZN9__gnu_cxx27__verbose_terminate_handlerEv@@Base+0x8d28>
    f694:	71000eff 	cmp	w23, #0x3
    f698:	540131c8 	b.hi	11cd0 <_ZN9__gnu_cxx27__verbose_terminate_handlerEv@@Base+0xb330>  // b.pmore
    f69c:	d37b7ee5 	ubfiz	x5, x23, #5, #32
    f6a0:	110006f7 	add	w23, w23, #0x1
    f6a4:	8b0502c1 	add	x1, x22, x5
    f6a8:	a9400c02 	ldp	x2, x3, [x0]
    f6ac:	a9000c22 	stp	x2, x3, [x1]
    f6b0:	a9410c02 	ldp	x2, x3, [x0, #16]
    f6b4:	a9010c22 	stp	x2, x3, [x1, #16]
    f6b8:	f8256ac4 	str	x4, [x22, x5]
    f6bc:	aa0103e4 	mov	x4, x1
    f6c0:	f9009661 	str	x1, [x19, #296]
    f6c4:	b9001006 	str	w6, [x0, #16]
    f6c8:	f9400000 	ldr	x0, [x0]
    f6cc:	b5fffd60 	cbnz	x0, f678 <_ZN9__gnu_cxx27__verbose_terminate_handlerEv@@Base+0x8cd8>
    f6d0:	f9400a82 	ldr	x2, [x20, #16]
    f6d4:	aa1303e0 	mov	x0, x19
    f6d8:	2a1503e1 	mov	w1, w21
    f6dc:	2a1703f8 	mov	w24, w23
    f6e0:	97ffff0e 	bl	f318 <_ZN9__gnu_cxx27__verbose_terminate_handlerEv@@Base+0x8978>
    f6e4:	f9009679 	str	x25, [x19, #296]
    f6e8:	b94083a0 	ldr	w0, [x29, #128]
    f6ec:	35ffe380 	cbnz	w0, f35c <_ZN9__gnu_cxx27__verbose_terminate_handlerEv@@Base+0x89bc>
    f6f0:	710006ff 	cmp	w23, #0x1
    f6f4:	54014d00 	b.eq	12094 <_ZN9__gnu_cxx27__verbose_terminate_handlerEv@@Base+0xb6f4>  // b.none
    f6f8:	51000718 	sub	w24, w24, #0x1
    f6fc:	aa1303e0 	mov	x0, x19
    f700:	d37b7f02 	ubfiz	x2, x24, #5, #32
    f704:	2a1503e1 	mov	w1, w21
    f708:	8b0202c2 	add	x2, x22, x2
    f70c:	f9400442 	ldr	x2, [x2, #8]
    f710:	94000d85 	bl	12d24 <_ZN9__gnu_cxx27__verbose_terminate_handlerEv@@Base+0xc384>
    f714:	7100071f 	cmp	w24, #0x1
    f718:	54ffff01 	b.ne	f6f8 <_ZN9__gnu_cxx27__verbose_terminate_handlerEv@@Base+0x8d58>  // b.any
    f71c:	f9409663 	ldr	x3, [x19, #296]
    f720:	aa1303e0 	mov	x0, x19
    f724:	2a1503e1 	mov	w1, w21
    f728:	91002282 	add	x2, x20, #0x8
    f72c:	94001063 	bl	138b8 <_ZN9__gnu_cxx27__verbose_terminate_handlerEv@@Base+0xcf18>
    f730:	17ffff0b 	b	f35c <_ZN9__gnu_cxx27__verbose_terminate_handlerEv@@Base+0x89bc>
    f734:	f9409664 	ldr	x4, [x19, #296]
    f738:	9101c3a0 	add	x0, x29, #0x70
    f73c:	f9009660 	str	x0, [x19, #296]
    f740:	2a1503e1 	mov	w1, w21
    f744:	f9409263 	ldr	x3, [x19, #288]
    f748:	aa1303e0 	mov	x0, x19
    f74c:	f9400a82 	ldr	x2, [x20, #16]
    f750:	f9003ba4 	str	x4, [x29, #112]
    f754:	f9003fb4 	str	x20, [x29, #120]
    f758:	b90083bf 	str	wzr, [x29, #128]
    f75c:	f90047a3 	str	x3, [x29, #136]
    f760:	97fffeee 	bl	f318 <_ZN9__gnu_cxx27__verbose_terminate_handlerEv@@Base+0x8978>
    f764:	b94083a0 	ldr	w0, [x29, #128]
    f768:	350000a0 	cbnz	w0, f77c <_ZN9__gnu_cxx27__verbose_terminate_handlerEv@@Base+0x8ddc>
    f76c:	aa1303e0 	mov	x0, x19
    f770:	2a1503e1 	mov	w1, w21
    f774:	aa1403e2 	mov	x2, x20
    f778:	94000d6b 	bl	12d24 <_ZN9__gnu_cxx27__verbose_terminate_handlerEv@@Base+0xc384>
    f77c:	f9403ba0 	ldr	x0, [x29, #112]
    f780:	f9009660 	str	x0, [x19, #296]
    f784:	17fffef6 	b	f35c <_ZN9__gnu_cxx27__verbose_terminate_handlerEv@@Base+0x89bc>
    f788:	b0000056 	adrp	x22, 18000 <_ZTSN10__cxxabiv117__class_type_infoE@@Base>
    f78c:	b0000058 	adrp	x24, 18000 <_ZTSN10__cxxabiv117__class_type_infoE@@Base>
    f790:	f9408261 	ldr	x1, [x19, #256]
    f794:	9118c2d6 	add	x22, x22, #0x630
    f798:	9118f718 	add	x24, x24, #0x63d
    f79c:	14000009 	b	f7c0 <_ZN9__gnu_cxx27__verbose_terminate_handlerEv@@Base+0x8e20>
    f7a0:	aa0103e0 	mov	x0, x1
    f7a4:	91000421 	add	x1, x1, #0x1
    f7a8:	f9008261 	str	x1, [x19, #256]
    f7ac:	910006d6 	add	x22, x22, #0x1
    f7b0:	38206a77 	strb	w23, [x19, x0]
    f7b4:	eb1802df 	cmp	x22, x24
    f7b8:	39042277 	strb	w23, [x19, #264]
    f7bc:	5400bb20 	b.eq	10f20 <_ZN9__gnu_cxx27__verbose_terminate_handlerEv@@Base+0xa580>  // b.none
    f7c0:	f103fc3f 	cmp	x1, #0xff
    f7c4:	394002d7 	ldrb	w23, [x22]
    f7c8:	54fffec1 	b.ne	f7a0 <_ZN9__gnu_cxx27__verbose_terminate_handlerEv@@Base+0x8e00>  // b.any
    f7cc:	f9408e62 	ldr	x2, [x19, #280]
    f7d0:	aa1303e0 	mov	x0, x19
    f7d4:	f9408a63 	ldr	x3, [x19, #272]
    f7d8:	3903fe7f 	strb	wzr, [x19, #255]
    f7dc:	d63f0060 	blr	x3
    f7e0:	f9409e62 	ldr	x2, [x19, #312]
    f7e4:	d2800021 	mov	x1, #0x1                   	// #1
    f7e8:	d2800000 	mov	x0, #0x0                   	// #0
    f7ec:	8b010042 	add	x2, x2, x1
    f7f0:	f9009e62 	str	x2, [x19, #312]
    f7f4:	17ffffed 	b	f7a8 <_ZN9__gnu_cxx27__verbose_terminate_handlerEv@@Base+0x8e08>
    f7f8:	b0000058 	adrp	x24, 18000 <_ZTSN10__cxxabiv117__class_type_infoE@@Base>
    f7fc:	f9408261 	ldr	x1, [x19, #256]
    f800:	d2800016 	mov	x22, #0x0                   	// #0
    f804:	91190318 	add	x24, x24, #0x640
    f808:	14000009 	b	f82c <_ZN9__gnu_cxx27__verbose_terminate_handlerEv@@Base+0x8e8c>
    f80c:	aa0103e0 	mov	x0, x1
    f810:	91000421 	add	x1, x1, #0x1
    f814:	f9008261 	str	x1, [x19, #256]
    f818:	910006d6 	add	x22, x22, #0x1
    f81c:	38206a77 	strb	w23, [x19, x0]
    f820:	f1004adf 	cmp	x22, #0x12
    f824:	39042277 	strb	w23, [x19, #264]
    f828:	5400b720 	b.eq	10f0c <_ZN9__gnu_cxx27__verbose_terminate_handlerEv@@Base+0xa56c>  // b.none
    f82c:	f103fc3f 	cmp	x1, #0xff
    f830:	38786ad7 	ldrb	w23, [x22, x24]
    f834:	54fffec1 	b.ne	f80c <_ZN9__gnu_cxx27__verbose_terminate_handlerEv@@Base+0x8e6c>  // b.any
    f838:	f9408e62 	ldr	x2, [x19, #280]
    f83c:	aa1303e0 	mov	x0, x19
    f840:	f9408a63 	ldr	x3, [x19, #272]
    f844:	3903fe7f 	strb	wzr, [x19, #255]
    f848:	d63f0060 	blr	x3
    f84c:	f9409e62 	ldr	x2, [x19, #312]
    f850:	d2800021 	mov	x1, #0x1                   	// #1
    f854:	d2800000 	mov	x0, #0x0                   	// #0
    f858:	8b010042 	add	x2, x2, x1
    f85c:	f9009e62 	str	x2, [x19, #312]
    f860:	17ffffed 	b	f814 <_ZN9__gnu_cxx27__verbose_terminate_handlerEv@@Base+0x8e74>
    f864:	b0000056 	adrp	x22, 18000 <_ZTSN10__cxxabiv117__class_type_infoE@@Base>
    f868:	b0000058 	adrp	x24, 18000 <_ZTSN10__cxxabiv117__class_type_infoE@@Base>
    f86c:	f9408261 	ldr	x1, [x19, #256]
    f870:	911962d6 	add	x22, x22, #0x658
    f874:	9119a318 	add	x24, x24, #0x668
    f878:	14000009 	b	f89c <_ZN9__gnu_cxx27__verbose_terminate_handlerEv@@Base+0x8efc>
    f87c:	aa0103e0 	mov	x0, x1
    f880:	91000421 	add	x1, x1, #0x1
    f884:	f9008261 	str	x1, [x19, #256]
    f888:	910006d6 	add	x22, x22, #0x1
    f88c:	38206a77 	strb	w23, [x19, x0]
    f890:	eb1802df 	cmp	x22, x24
    f894:	39042277 	strb	w23, [x19, #264]
    f898:	5400b300 	b.eq	10ef8 <_ZN9__gnu_cxx27__verbose_terminate_handlerEv@@Base+0xa558>  // b.none
    f89c:	f103fc3f 	cmp	x1, #0xff
    f8a0:	394002d7 	ldrb	w23, [x22]
    f8a4:	54fffec1 	b.ne	f87c <_ZN9__gnu_cxx27__verbose_terminate_handlerEv@@Base+0x8edc>  // b.any
    f8a8:	f9408e62 	ldr	x2, [x19, #280]
    f8ac:	aa1303e0 	mov	x0, x19
    f8b0:	f9408a63 	ldr	x3, [x19, #272]
    f8b4:	3903fe7f 	strb	wzr, [x19, #255]
    f8b8:	d63f0060 	blr	x3
    f8bc:	f9409e62 	ldr	x2, [x19, #312]
    f8c0:	d2800021 	mov	x1, #0x1                   	// #1
    f8c4:	d2800000 	mov	x0, #0x0                   	// #0
    f8c8:	8b010042 	add	x2, x2, x1
    f8cc:	f9009e62 	str	x2, [x19, #312]
    f8d0:	17ffffed 	b	f884 <_ZN9__gnu_cxx27__verbose_terminate_handlerEv@@Base+0x8ee4>
    f8d4:	b0000058 	adrp	x24, 18000 <_ZTSN10__cxxabiv117__class_type_infoE@@Base>
    f8d8:	f9408261 	ldr	x1, [x19, #256]
    f8dc:	d2800016 	mov	x22, #0x0                   	// #0
    f8e0:	9119c318 	add	x24, x24, #0x670
    f8e4:	14000009 	b	f908 <_ZN9__gnu_cxx27__verbose_terminate_handlerEv@@Base+0x8f68>
    f8e8:	aa0103e0 	mov	x0, x1
    f8ec:	91000421 	add	x1, x1, #0x1
    f8f0:	f9008261 	str	x1, [x19, #256]
    f8f4:	910006d6 	add	x22, x22, #0x1
    f8f8:	38206a77 	strb	w23, [x19, x0]
    f8fc:	f10056df 	cmp	x22, #0x15
    f900:	39042277 	strb	w23, [x19, #264]
    f904:	5400af00 	b.eq	10ee4 <_ZN9__gnu_cxx27__verbose_terminate_handlerEv@@Base+0xa544>  // b.none
    f908:	f103fc3f 	cmp	x1, #0xff
    f90c:	38786ad7 	ldrb	w23, [x22, x24]
    f910:	54fffec1 	b.ne	f8e8 <_ZN9__gnu_cxx27__verbose_terminate_handlerEv@@Base+0x8f48>  // b.any
    f914:	f9408e62 	ldr	x2, [x19, #280]
    f918:	aa1303e0 	mov	x0, x19
    f91c:	f9408a63 	ldr	x3, [x19, #272]
    f920:	3903fe7f 	strb	wzr, [x19, #255]
    f924:	d63f0060 	blr	x3
    f928:	f9409e62 	ldr	x2, [x19, #312]
    f92c:	d2800021 	mov	x1, #0x1                   	// #1
    f930:	d2800000 	mov	x0, #0x0                   	// #0
    f934:	8b010042 	add	x2, x2, x1
    f938:	f9009e62 	str	x2, [x19, #312]
    f93c:	17ffffed 	b	f8f0 <_ZN9__gnu_cxx27__verbose_terminate_handlerEv@@Base+0x8f50>
    f940:	b0000058 	adrp	x24, 18000 <_ZTSN10__cxxabiv117__class_type_infoE@@Base>
    f944:	f9408261 	ldr	x1, [x19, #256]
    f948:	d2800016 	mov	x22, #0x0                   	// #0
    f94c:	911a2318 	add	x24, x24, #0x688
    f950:	14000009 	b	f974 <_ZN9__gnu_cxx27__verbose_terminate_handlerEv@@Base+0x8fd4>
    f954:	aa0103e0 	mov	x0, x1
    f958:	91000421 	add	x1, x1, #0x1
    f95c:	f9008261 	str	x1, [x19, #256]
    f960:	910006d6 	add	x22, x22, #0x1
    f964:	38206a77 	strb	w23, [x19, x0]
    f968:	f10046df 	cmp	x22, #0x11
    f96c:	39042277 	strb	w23, [x19, #264]
    f970:	5400ab00 	b.eq	10ed0 <_ZN9__gnu_cxx27__verbose_terminate_handlerEv@@Base+0xa530>  // b.none
    f974:	f103fc3f 	cmp	x1, #0xff
    f978:	38786ad7 	ldrb	w23, [x22, x24]
    f97c:	54fffec1 	b.ne	f954 <_ZN9__gnu_cxx27__verbose_terminate_handlerEv@@Base+0x8fb4>  // b.any
    f980:	f9408e62 	ldr	x2, [x19, #280]
    f984:	aa1303e0 	mov	x0, x19
    f988:	f9408a63 	ldr	x3, [x19, #272]
    f98c:	3903fe7f 	strb	wzr, [x19, #255]
    f990:	d63f0060 	blr	x3
    f994:	f9409e62 	ldr	x2, [x19, #312]
    f998:	d2800021 	mov	x1, #0x1                   	// #1
    f99c:	d2800000 	mov	x0, #0x0                   	// #0
    f9a0:	8b010042 	add	x2, x2, x1
    f9a4:	f9009e62 	str	x2, [x19, #312]
    f9a8:	17ffffed 	b	f95c <_ZN9__gnu_cxx27__verbose_terminate_handlerEv@@Base+0x8fbc>
    f9ac:	b0000058 	adrp	x24, 18000 <_ZTSN10__cxxabiv117__class_type_infoE@@Base>
    f9b0:	f9408261 	ldr	x1, [x19, #256]
    f9b4:	d2800016 	mov	x22, #0x0                   	// #0
    f9b8:	911a8318 	add	x24, x24, #0x6a0
    f9bc:	14000009 	b	f9e0 <_ZN9__gnu_cxx27__verbose_terminate_handlerEv@@Base+0x9040>
    f9c0:	aa0103e0 	mov	x0, x1
    f9c4:	91000421 	add	x1, x1, #0x1
    f9c8:	f9008261 	str	x1, [x19, #256]
    f9cc:	910006d6 	add	x22, x22, #0x1
    f9d0:	38206a77 	strb	w23, [x19, x0]
    f9d4:	f1006adf 	cmp	x22, #0x1a
    f9d8:	39042277 	strb	w23, [x19, #264]
    f9dc:	5400a700 	b.eq	10ebc <_ZN9__gnu_cxx27__verbose_terminate_handlerEv@@Base+0xa51c>  // b.none
    f9e0:	f103fc3f 	cmp	x1, #0xff
    f9e4:	38786ad7 	ldrb	w23, [x22, x24]
    f9e8:	54fffec1 	b.ne	f9c0 <_ZN9__gnu_cxx27__verbose_terminate_handlerEv@@Base+0x9020>  // b.any
    f9ec:	f9408e62 	ldr	x2, [x19, #280]
    f9f0:	aa1303e0 	mov	x0, x19
    f9f4:	f9408a63 	ldr	x3, [x19, #272]
    f9f8:	3903fe7f 	strb	wzr, [x19, #255]
    f9fc:	d63f0060 	blr	x3
    fa00:	f9409e62 	ldr	x2, [x19, #312]
    fa04:	d2800021 	mov	x1, #0x1                   	// #1
    fa08:	d2800000 	mov	x0, #0x0                   	// #0
    fa0c:	8b010042 	add	x2, x2, x1
    fa10:	f9009e62 	str	x2, [x19, #312]
    fa14:	17ffffed 	b	f9c8 <_ZN9__gnu_cxx27__verbose_terminate_handlerEv@@Base+0x9028>
    fa18:	b0000056 	adrp	x22, 18000 <_ZTSN10__cxxabiv117__class_type_infoE@@Base>
    fa1c:	b0000058 	adrp	x24, 18000 <_ZTSN10__cxxabiv117__class_type_infoE@@Base>
    fa20:	f9408261 	ldr	x1, [x19, #256]
    fa24:	911b02d6 	add	x22, x22, #0x6c0
    fa28:	911b3f18 	add	x24, x24, #0x6cf
    fa2c:	14000009 	b	fa50 <_ZN9__gnu_cxx27__verbose_terminate_handlerEv@@Base+0x90b0>
    fa30:	aa0103e0 	mov	x0, x1
    fa34:	91000421 	add	x1, x1, #0x1
    fa38:	f9008261 	str	x1, [x19, #256]
    fa3c:	910006d6 	add	x22, x22, #0x1
    fa40:	38206a77 	strb	w23, [x19, x0]
    fa44:	eb1802df 	cmp	x22, x24
    fa48:	39042277 	strb	w23, [x19, #264]
    fa4c:	5400a2e0 	b.eq	10ea8 <_ZN9__gnu_cxx27__verbose_terminate_handlerEv@@Base+0xa508>  // b.none
    fa50:	f103fc3f 	cmp	x1, #0xff
    fa54:	394002d7 	ldrb	w23, [x22]
    fa58:	54fffec1 	b.ne	fa30 <_ZN9__gnu_cxx27__verbose_terminate_handlerEv@@Base+0x9090>  // b.any
    fa5c:	f9408e62 	ldr	x2, [x19, #280]
    fa60:	aa1303e0 	mov	x0, x19
    fa64:	f9408a63 	ldr	x3, [x19, #272]
    fa68:	3903fe7f 	strb	wzr, [x19, #255]
    fa6c:	d63f0060 	blr	x3
    fa70:	f9409e62 	ldr	x2, [x19, #312]
    fa74:	d2800021 	mov	x1, #0x1                   	// #1
    fa78:	d2800000 	mov	x0, #0x0                   	// #0
    fa7c:	8b010042 	add	x2, x2, x1
    fa80:	f9009e62 	str	x2, [x19, #312]
    fa84:	17ffffed 	b	fa38 <_ZN9__gnu_cxx27__verbose_terminate_handlerEv@@Base+0x9098>
    fa88:	b0000041 	adrp	x1, 18000 <_ZTSN10__cxxabiv117__class_type_infoE@@Base>
    fa8c:	aa1303e0 	mov	x0, x19
    fa90:	911b4021 	add	x1, x1, #0x6d0
    fa94:	97ffde77 	bl	7470 <_ZN9__gnu_cxx27__verbose_terminate_handlerEv@@Base+0xad0>
    fa98:	f9400682 	ldr	x2, [x20, #8]
    fa9c:	aa1303e0 	mov	x0, x19
    faa0:	2a1503e1 	mov	w1, w21
    faa4:	97fffe1d 	bl	f318 <_ZN9__gnu_cxx27__verbose_terminate_handlerEv@@Base+0x8978>
    faa8:	17fffe2d 	b	f35c <_ZN9__gnu_cxx27__verbose_terminate_handlerEv@@Base+0x89bc>
    faac:	b0000041 	adrp	x1, 18000 <_ZTSN10__cxxabiv117__class_type_infoE@@Base>
    fab0:	aa1303e0 	mov	x0, x19
    fab4:	911ba021 	add	x1, x1, #0x6e8
    fab8:	97ffde6e 	bl	7470 <_ZN9__gnu_cxx27__verbose_terminate_handlerEv@@Base+0xad0>
    fabc:	f9400682 	ldr	x2, [x20, #8]
    fac0:	aa1303e0 	mov	x0, x19
    fac4:	2a1503e1 	mov	w1, w21
    fac8:	97fffe14 	bl	f318 <_ZN9__gnu_cxx27__verbose_terminate_handlerEv@@Base+0x8978>
    facc:	17fffe24 	b	f35c <_ZN9__gnu_cxx27__verbose_terminate_handlerEv@@Base+0x89bc>
    fad0:	b0000041 	adrp	x1, 18000 <_ZTSN10__cxxabiv117__class_type_infoE@@Base>
    fad4:	aa1303e0 	mov	x0, x19
    fad8:	911c0021 	add	x1, x1, #0x700
    fadc:	97ffde65 	bl	7470 <_ZN9__gnu_cxx27__verbose_terminate_handlerEv@@Base+0xad0>
    fae0:	f9400682 	ldr	x2, [x20, #8]
    fae4:	aa1303e0 	mov	x0, x19
    fae8:	2a1503e1 	mov	w1, w21
    faec:	97fffe0b 	bl	f318 <_ZN9__gnu_cxx27__verbose_terminate_handlerEv@@Base+0x8978>
    faf0:	17fffe1b 	b	f35c <_ZN9__gnu_cxx27__verbose_terminate_handlerEv@@Base+0x89bc>
    faf4:	b0000041 	adrp	x1, 18000 <_ZTSN10__cxxabiv117__class_type_infoE@@Base>
    faf8:	aa1303e0 	mov	x0, x19
    fafc:	911c8021 	add	x1, x1, #0x720
    fb00:	97ffde5c 	bl	7470 <_ZN9__gnu_cxx27__verbose_terminate_handlerEv@@Base+0xad0>
    fb04:	f9400a82 	ldr	x2, [x20, #16]
    fb08:	aa1303e0 	mov	x0, x19
    fb0c:	2a1503e1 	mov	w1, w21
    fb10:	97fffe02 	bl	f318 <_ZN9__gnu_cxx27__verbose_terminate_handlerEv@@Base+0x8978>
    fb14:	b0000041 	adrp	x1, 18000 <_ZTSN10__cxxabiv117__class_type_infoE@@Base>
    fb18:	aa1303e0 	mov	x0, x19
    fb1c:	9118e021 	add	x1, x1, #0x638
    fb20:	97ffde54 	bl	7470 <_ZN9__gnu_cxx27__verbose_terminate_handlerEv@@Base+0xad0>
    fb24:	f9400682 	ldr	x2, [x20, #8]
    fb28:	aa1303e0 	mov	x0, x19
    fb2c:	2a1503e1 	mov	w1, w21
    fb30:	97fffdfa 	bl	f318 <_ZN9__gnu_cxx27__verbose_terminate_handlerEv@@Base+0x8978>
    fb34:	17fffe0a 	b	f35c <_ZN9__gnu_cxx27__verbose_terminate_handlerEv@@Base+0x89bc>
    fb38:	b0000041 	adrp	x1, 18000 <_ZTSN10__cxxabiv117__class_type_infoE@@Base>
    fb3c:	aa1303e0 	mov	x0, x19
    fb40:	911ce021 	add	x1, x1, #0x738
    fb44:	97ffde4b 	bl	7470 <_ZN9__gnu_cxx27__verbose_terminate_handlerEv@@Base+0xad0>
    fb48:	f9400682 	ldr	x2, [x20, #8]
    fb4c:	aa1303e0 	mov	x0, x19
    fb50:	2a1503e1 	mov	w1, w21
    fb54:	97fffdf1 	bl	f318 <_ZN9__gnu_cxx27__verbose_terminate_handlerEv@@Base+0x8978>
    fb58:	17fffe01 	b	f35c <_ZN9__gnu_cxx27__verbose_terminate_handlerEv@@Base+0x89bc>
    fb5c:	b9801296 	ldrsw	x22, [x20, #16]
    fb60:	f9400697 	ldr	x23, [x20, #8]
    fb64:	b4ffbfd6 	cbz	x22, f35c <_ZN9__gnu_cxx27__verbose_terminate_handlerEv@@Base+0x89bc>
    fb68:	f9408261 	ldr	x1, [x19, #256]
    fb6c:	d2800014 	mov	x20, #0x0                   	// #0
    fb70:	14000009 	b	fb94 <_ZN9__gnu_cxx27__verbose_terminate_handlerEv@@Base+0x91f4>
    fb74:	aa0103e0 	mov	x0, x1
    fb78:	91000421 	add	x1, x1, #0x1
    fb7c:	f9008261 	str	x1, [x19, #256]
    fb80:	91000694 	add	x20, x20, #0x1
    fb84:	38206a75 	strb	w21, [x19, x0]
    fb88:	eb1402df 	cmp	x22, x20
    fb8c:	39042275 	strb	w21, [x19, #264]
    fb90:	54ffbe60 	b.eq	f35c <_ZN9__gnu_cxx27__verbose_terminate_handlerEv@@Base+0x89bc>  // b.none
    fb94:	f103fc3f 	cmp	x1, #0xff
    fb98:	38746af5 	ldrb	w21, [x23, x20]
    fb9c:	54fffec1 	b.ne	fb74 <_ZN9__gnu_cxx27__verbose_terminate_handlerEv@@Base+0x91d4>  // b.any
    fba0:	f9408e62 	ldr	x2, [x19, #280]
    fba4:	aa1303e0 	mov	x0, x19
    fba8:	f9408a63 	ldr	x3, [x19, #272]
    fbac:	3903fe7f 	strb	wzr, [x19, #255]
    fbb0:	d63f0060 	blr	x3
    fbb4:	f9409e62 	ldr	x2, [x19, #312]
    fbb8:	d2800021 	mov	x1, #0x1                   	// #1
    fbbc:	d2800000 	mov	x0, #0x0                   	// #0
    fbc0:	8b010042 	add	x2, x2, x1
    fbc4:	f9009e62 	str	x2, [x19, #312]
    fbc8:	17ffffed 	b	fb7c <_ZN9__gnu_cxx27__verbose_terminate_handlerEv@@Base+0x91dc>
    fbcc:	f9409664 	ldr	x4, [x19, #296]
    fbd0:	b4016d24 	cbz	x4, 12974 <_ZN9__gnu_cxx27__verbose_terminate_handlerEv@@Base+0xbfd4>
    fbd4:	aa0403e1 	mov	x1, x4
    fbd8:	b9401022 	ldr	w2, [x1, #16]
    fbdc:	35000102 	cbnz	w2, fbfc <_ZN9__gnu_cxx27__verbose_terminate_handlerEv@@Base+0x925c>
    fbe0:	f9400422 	ldr	x2, [x1, #8]
    fbe4:	b9400042 	ldr	w2, [x2]
    fbe8:	51006443 	sub	w3, w2, #0x19
    fbec:	7100087f 	cmp	w3, #0x2
    fbf0:	540000a8 	b.hi	fc04 <_ZN9__gnu_cxx27__verbose_terminate_handlerEv@@Base+0x9264>  // b.pmore
    fbf4:	6b02001f 	cmp	w0, w2
    fbf8:	5400ece0 	b.eq	11994 <_ZN9__gnu_cxx27__verbose_terminate_handlerEv@@Base+0xaff4>  // b.none
    fbfc:	f9400021 	ldr	x1, [x1]
    fc00:	b5fffec1 	cbnz	x1, fbd8 <_ZN9__gnu_cxx27__verbose_terminate_handlerEv@@Base+0x9238>
    fc04:	52800017 	mov	w23, #0x0                   	// #0
    fc08:	14000003 	b	fc14 <_ZN9__gnu_cxx27__verbose_terminate_handlerEv@@Base+0x9274>
    fc0c:	f9409664 	ldr	x4, [x19, #296]
    fc10:	52800017 	mov	w23, #0x0                   	// #0
    fc14:	f9409260 	ldr	x0, [x19, #288]
    fc18:	9101c3a1 	add	x1, x29, #0x70
    fc1c:	f9003ba4 	str	x4, [x29, #112]
    fc20:	f9009661 	str	x1, [x19, #296]
    fc24:	f9003fb4 	str	x20, [x29, #120]
    fc28:	b90083bf 	str	wzr, [x29, #128]
    fc2c:	f90047a0 	str	x0, [x29, #136]
    fc30:	f9400682 	ldr	x2, [x20, #8]
    fc34:	aa1303e0 	mov	x0, x19
    fc38:	2a1503e1 	mov	w1, w21
    fc3c:	97fffdb7 	bl	f318 <_ZN9__gnu_cxx27__verbose_terminate_handlerEv@@Base+0x8978>
    fc40:	b94083a0 	ldr	w0, [x29, #128]
    fc44:	3400b0e0 	cbz	w0, 11260 <_ZN9__gnu_cxx27__verbose_terminate_handlerEv@@Base+0xa8c0>
    fc48:	f9403ba0 	ldr	x0, [x29, #112]
    fc4c:	f9009660 	str	x0, [x19, #296]
    fc50:	34ffb877 	cbz	w23, f35c <_ZN9__gnu_cxx27__verbose_terminate_handlerEv@@Base+0x89bc>
    fc54:	f9009276 	str	x22, [x19, #288]
    fc58:	17fffdc1 	b	f35c <_ZN9__gnu_cxx27__verbose_terminate_handlerEv@@Base+0x89bc>
    fc5c:	f9400682 	ldr	x2, [x20, #8]
    fc60:	52800017 	mov	w23, #0x0                   	// #0
    fc64:	b9400040 	ldr	w0, [x2]
    fc68:	7100141f 	cmp	w0, #0x5
    fc6c:	5400d140 	b.eq	11694 <_ZN9__gnu_cxx27__verbose_terminate_handlerEv@@Base+0xacf4>  // b.none
    fc70:	71008c1f 	cmp	w0, #0x23
    fc74:	5400c7a0 	b.eq	11568 <_ZN9__gnu_cxx27__verbose_terminate_handlerEv@@Base+0xabc8>  // b.none
    fc78:	b9400281 	ldr	w1, [x20]
    fc7c:	6b00003f 	cmp	w1, w0
    fc80:	5400c740 	b.eq	11568 <_ZN9__gnu_cxx27__verbose_terminate_handlerEv@@Base+0xabc8>  // b.none
    fc84:	7100901f 	cmp	w0, #0x24
    fc88:	540120a0 	b.eq	1209c <_ZN9__gnu_cxx27__verbose_terminate_handlerEv@@Base+0xb6fc>  // b.none
    fc8c:	f9409664 	ldr	x4, [x19, #296]
    fc90:	17ffffe1 	b	fc14 <_ZN9__gnu_cxx27__verbose_terminate_handlerEv@@Base+0x9274>
    fc94:	f940b277 	ldr	x23, [x19, #352]
    fc98:	f9409678 	ldr	x24, [x19, #296]
    fc9c:	f900b274 	str	x20, [x19, #352]
    fca0:	f900967f 	str	xzr, [x19, #296]
    fca4:	f9400696 	ldr	x22, [x20, #8]
    fca8:	361000d5 	tbz	w21, #2, fcc0 <_ZN9__gnu_cxx27__verbose_terminate_handlerEv@@Base+0x9320>
    fcac:	b94002c0 	ldr	w0, [x22]
    fcb0:	35000080 	cbnz	w0, fcc0 <_ZN9__gnu_cxx27__verbose_terminate_handlerEv@@Base+0x9320>
    fcb4:	b94012c0 	ldr	w0, [x22, #16]
    fcb8:	7100181f 	cmp	w0, #0x6
    fcbc:	54013920 	b.eq	123e0 <_ZN9__gnu_cxx27__verbose_terminate_handlerEv@@Base+0xba40>  // b.none
    fcc0:	aa1303e0 	mov	x0, x19
    fcc4:	2a1503e1 	mov	w1, w21
    fcc8:	aa1603e2 	mov	x2, x22
    fccc:	97fffd93 	bl	f318 <_ZN9__gnu_cxx27__verbose_terminate_handlerEv@@Base+0x8978>
    fcd0:	39442260 	ldrb	w0, [x19, #264]
    fcd4:	7100f01f 	cmp	w0, #0x3c
    fcd8:	54012000 	b.eq	120d8 <_ZN9__gnu_cxx27__verbose_terminate_handlerEv@@Base+0xb738>  // b.none
    fcdc:	f9408261 	ldr	x1, [x19, #256]
    fce0:	f103fc3f 	cmp	x1, #0xff
    fce4:	54010120 	b.eq	11d08 <_ZN9__gnu_cxx27__verbose_terminate_handlerEv@@Base+0xb368>  // b.none
    fce8:	91000420 	add	x0, x1, #0x1
    fcec:	f9008260 	str	x0, [x19, #256]
    fcf0:	52800782 	mov	w2, #0x3c                  	// #60
    fcf4:	38216a62 	strb	w2, [x19, x1]
    fcf8:	aa1303e0 	mov	x0, x19
    fcfc:	39042262 	strb	w2, [x19, #264]
    fd00:	2a1503e1 	mov	w1, w21
    fd04:	f9400a82 	ldr	x2, [x20, #16]
    fd08:	97fffd84 	bl	f318 <_ZN9__gnu_cxx27__verbose_terminate_handlerEv@@Base+0x8978>
    fd0c:	39442260 	ldrb	w0, [x19, #264]
    fd10:	7100f81f 	cmp	w0, #0x3e
    fd14:	54011da0 	b.eq	120c8 <_ZN9__gnu_cxx27__verbose_terminate_handlerEv@@Base+0xb728>  // b.none
    fd18:	f9408261 	ldr	x1, [x19, #256]
    fd1c:	f103fc3f 	cmp	x1, #0xff
    fd20:	5400fde0 	b.eq	11cdc <_ZN9__gnu_cxx27__verbose_terminate_handlerEv@@Base+0xb33c>  // b.none
    fd24:	91000420 	add	x0, x1, #0x1
    fd28:	f9008260 	str	x0, [x19, #256]
    fd2c:	528007c0 	mov	w0, #0x3e                  	// #62
    fd30:	38216a60 	strb	w0, [x19, x1]
    fd34:	39042260 	strb	w0, [x19, #264]
    fd38:	f9009678 	str	x24, [x19, #296]
    fd3c:	f900b277 	str	x23, [x19, #352]
    fd40:	17fffd87 	b	f35c <_ZN9__gnu_cxx27__verbose_terminate_handlerEv@@Base+0x89bc>
    fd44:	f9400694 	ldr	x20, [x20, #8]
    fd48:	f9408261 	ldr	x1, [x19, #256]
    fd4c:	f103fc3f 	cmp	x1, #0xff
    fd50:	b500b3f4 	cbnz	x20, 113cc <_ZN9__gnu_cxx27__verbose_terminate_handlerEv@@Base+0xaa2c>
    fd54:	54012bc0 	b.eq	122cc <_ZN9__gnu_cxx27__verbose_terminate_handlerEv@@Base+0xb92c>  // b.none
    fd58:	91000423 	add	x3, x1, #0x1
    fd5c:	f9008263 	str	x3, [x19, #256]
    fd60:	52800e80 	mov	w0, #0x74                  	// #116
    fd64:	38216a60 	strb	w0, [x19, x1]
    fd68:	39042260 	strb	w0, [x19, #264]
    fd6c:	f103fc7f 	cmp	x3, #0xff
    fd70:	52800d15 	mov	w21, #0x68                  	// #104
    fd74:	54012e20 	b.eq	12338 <_ZN9__gnu_cxx27__verbose_terminate_handlerEv@@Base+0xb998>  // b.none
    fd78:	91000461 	add	x1, x3, #0x1
    fd7c:	f9008261 	str	x1, [x19, #256]
    fd80:	38236a75 	strb	w21, [x19, x3]
    fd84:	f103fc3f 	cmp	x1, #0xff
    fd88:	39042275 	strb	w21, [x19, #264]
    fd8c:	52800d35 	mov	w21, #0x69                  	// #105
    fd90:	54012bc0 	b.eq	12308 <_ZN9__gnu_cxx27__verbose_terminate_handlerEv@@Base+0xb968>  // b.none
    fd94:	91000420 	add	x0, x1, #0x1
    fd98:	f9008260 	str	x0, [x19, #256]
    fd9c:	38216a75 	strb	w21, [x19, x1]
    fda0:	f103fc1f 	cmp	x0, #0xff
    fda4:	39042275 	strb	w21, [x19, #264]
    fda8:	52800e74 	mov	w20, #0x73                  	// #115
    fdac:	54007600 	b.eq	10c6c <_ZN9__gnu_cxx27__verbose_terminate_handlerEv@@Base+0xa2cc>  // b.none
    fdb0:	91000401 	add	x1, x0, #0x1
    fdb4:	f9008261 	str	x1, [x19, #256]
    fdb8:	38206a74 	strb	w20, [x19, x0]
    fdbc:	39042274 	strb	w20, [x19, #264]
    fdc0:	17fffd67 	b	f35c <_ZN9__gnu_cxx27__verbose_terminate_handlerEv@@Base+0x89bc>
    fdc4:	f9400a82 	ldr	x2, [x20, #16]
    fdc8:	aa1303e0 	mov	x0, x19
    fdcc:	2a1503e1 	mov	w1, w21
    fdd0:	97fffd52 	bl	f318 <_ZN9__gnu_cxx27__verbose_terminate_handlerEv@@Base+0x8978>
    fdd4:	17fffd62 	b	f35c <_ZN9__gnu_cxx27__verbose_terminate_handlerEv@@Base+0x89bc>
    fdd8:	52800020 	mov	w0, #0x1                   	// #1
    fddc:	b9013260 	str	w0, [x19, #304]
    fde0:	17fffd5f 	b	f35c <_ZN9__gnu_cxx27__verbose_terminate_handlerEv@@Base+0x89bc>
    fde4:	f9400681 	ldr	x1, [x20, #8]
    fde8:	52800016 	mov	w22, #0x0                   	// #0
    fdec:	b9400022 	ldr	w2, [x1]
    fdf0:	71009c5f 	cmp	w2, #0x27
    fdf4:	54000201 	b.ne	fe34 <_ZN9__gnu_cxx27__verbose_terminate_handlerEv@@Base+0x9494>  // b.any
    fdf8:	f9400421 	ldr	x1, [x1, #8]
    fdfc:	b9401c36 	ldr	w22, [x1, #28]
    fe00:	340001b6 	cbz	w22, fe34 <_ZN9__gnu_cxx27__verbose_terminate_handlerEv@@Base+0x9494>
    fe04:	71001adf 	cmp	w22, #0x6
    fe08:	54010cc9 	b.ls	11fa0 <_ZN9__gnu_cxx27__verbose_terminate_handlerEv@@Base+0xb600>  // b.plast
    fe0c:	71001edf 	cmp	w22, #0x7
    fe10:	54000121 	b.ne	fe34 <_ZN9__gnu_cxx27__verbose_terminate_handlerEv@@Base+0x9494>  // b.any
    fe14:	f9400a81 	ldr	x1, [x20, #16]
    fe18:	b9400022 	ldr	w2, [x1]
    fe1c:	350000c2 	cbnz	w2, fe34 <_ZN9__gnu_cxx27__verbose_terminate_handlerEv@@Base+0x9494>
    fe20:	b9401022 	ldr	w2, [x1, #16]
    fe24:	7100045f 	cmp	w2, #0x1
    fe28:	54000061 	b.ne	fe34 <_ZN9__gnu_cxx27__verbose_terminate_handlerEv@@Base+0x9494>  // b.any
    fe2c:	7100f01f 	cmp	w0, #0x3c
    fe30:	54017520 	b.eq	12cd4 <_ZN9__gnu_cxx27__verbose_terminate_handlerEv@@Base+0xc334>  // b.none
    fe34:	f9408261 	ldr	x1, [x19, #256]
    fe38:	f103fc3f 	cmp	x1, #0xff
    fe3c:	540106a0 	b.eq	11f10 <_ZN9__gnu_cxx27__verbose_terminate_handlerEv@@Base+0xb570>  // b.none
    fe40:	91000420 	add	x0, x1, #0x1
    fe44:	f9008260 	str	x0, [x19, #256]
    fe48:	52800502 	mov	w2, #0x28                  	// #40
    fe4c:	38216a62 	strb	w2, [x19, x1]
    fe50:	aa1303e0 	mov	x0, x19
    fe54:	39042262 	strb	w2, [x19, #264]
    fe58:	2a1503e1 	mov	w1, w21
    fe5c:	f9400682 	ldr	x2, [x20, #8]
    fe60:	97fffd2e 	bl	f318 <_ZN9__gnu_cxx27__verbose_terminate_handlerEv@@Base+0x8978>
    fe64:	f9408261 	ldr	x1, [x19, #256]
    fe68:	f103fc3f 	cmp	x1, #0xff
    fe6c:	540103c0 	b.eq	11ee4 <_ZN9__gnu_cxx27__verbose_terminate_handlerEv@@Base+0xb544>  // b.none
    fe70:	91000420 	add	x0, x1, #0x1
    fe74:	f9008260 	str	x0, [x19, #256]
    fe78:	52800520 	mov	w0, #0x29                  	// #41
    fe7c:	38216a60 	strb	w0, [x19, x1]
    fe80:	39042260 	strb	w0, [x19, #264]
    fe84:	b9400280 	ldr	w0, [x20]
    fe88:	7100f41f 	cmp	w0, #0x3d
    fe8c:	54011440 	b.eq	12114 <_ZN9__gnu_cxx27__verbose_terminate_handlerEv@@Base+0xb774>  // b.none
    fe90:	710022df 	cmp	w22, #0x8
    fe94:	540112a0 	b.eq	120e8 <_ZN9__gnu_cxx27__verbose_terminate_handlerEv@@Base+0xb748>  // b.none
    fe98:	f9400a82 	ldr	x2, [x20, #16]
    fe9c:	aa1303e0 	mov	x0, x19
    fea0:	2a1503e1 	mov	w1, w21
    fea4:	97fffd1d 	bl	f318 <_ZN9__gnu_cxx27__verbose_terminate_handlerEv@@Base+0x8978>
    fea8:	17fffd2d 	b	f35c <_ZN9__gnu_cxx27__verbose_terminate_handlerEv@@Base+0x89bc>
    feac:	f9408261 	ldr	x1, [x19, #256]
    feb0:	39402294 	ldrb	w20, [x20, #8]
    feb4:	f103fc3f 	cmp	x1, #0xff
    feb8:	5400f540 	b.eq	11d60 <_ZN9__gnu_cxx27__verbose_terminate_handlerEv@@Base+0xb3c0>  // b.none
    febc:	91000420 	add	x0, x1, #0x1
    fec0:	f9008260 	str	x0, [x19, #256]
    fec4:	38216a74 	strb	w20, [x19, x1]
    fec8:	39042274 	strb	w20, [x19, #264]
    fecc:	17fffd24 	b	f35c <_ZN9__gnu_cxx27__verbose_terminate_handlerEv@@Base+0x89bc>
    fed0:	9101c3b6 	add	x22, x29, #0x70
    fed4:	f9400682 	ldr	x2, [x20, #8]
    fed8:	b0000041 	adrp	x1, 18000 <_ZTSN10__cxxabiv117__class_type_infoE@@Base>
    fedc:	aa1603e0 	mov	x0, x22
    fee0:	9115e021 	add	x1, x1, #0x578
    fee4:	97ffd2d7 	bl	4a40 <sprintf@plt>
    fee8:	aa1603e0 	mov	x0, x22
    feec:	97ffd2e1 	bl	4a70 <strlen@plt>
    fef0:	aa0003f7 	mov	x23, x0
    fef4:	b4ffa340 	cbz	x0, f35c <_ZN9__gnu_cxx27__verbose_terminate_handlerEv@@Base+0x89bc>
    fef8:	f9408261 	ldr	x1, [x19, #256]
    fefc:	d2800014 	mov	x20, #0x0                   	// #0
    ff00:	14000009 	b	ff24 <_ZN9__gnu_cxx27__verbose_terminate_handlerEv@@Base+0x9584>
    ff04:	aa0103e0 	mov	x0, x1
    ff08:	91000421 	add	x1, x1, #0x1
    ff0c:	f9008261 	str	x1, [x19, #256]
    ff10:	91000694 	add	x20, x20, #0x1
    ff14:	38206a75 	strb	w21, [x19, x0]
    ff18:	eb17029f 	cmp	x20, x23
    ff1c:	39042275 	strb	w21, [x19, #264]
    ff20:	54ffa1e0 	b.eq	f35c <_ZN9__gnu_cxx27__verbose_terminate_handlerEv@@Base+0x89bc>  // b.none
    ff24:	f103fc3f 	cmp	x1, #0xff
    ff28:	38746ad5 	ldrb	w21, [x22, x20]
    ff2c:	54fffec1 	b.ne	ff04 <_ZN9__gnu_cxx27__verbose_terminate_handlerEv@@Base+0x9564>  // b.any
    ff30:	f9408e62 	ldr	x2, [x19, #280]
    ff34:	aa1303e0 	mov	x0, x19
    ff38:	f9408a63 	ldr	x3, [x19, #272]
    ff3c:	3903fe7f 	strb	wzr, [x19, #255]
    ff40:	d63f0060 	blr	x3
    ff44:	f9409e62 	ldr	x2, [x19, #312]
    ff48:	d2800021 	mov	x1, #0x1                   	// #1
    ff4c:	d2800000 	mov	x0, #0x0                   	// #0
    ff50:	8b010042 	add	x2, x2, x1
    ff54:	f9009e62 	str	x2, [x19, #312]
    ff58:	17ffffed 	b	ff0c <_ZN9__gnu_cxx27__verbose_terminate_handlerEv@@Base+0x956c>
    ff5c:	b0000056 	adrp	x22, 18000 <_ZTSN10__cxxabiv117__class_type_infoE@@Base>
    ff60:	b0000058 	adrp	x24, 18000 <_ZTSN10__cxxabiv117__class_type_infoE@@Base>
    ff64:	f9408261 	ldr	x1, [x19, #256]
    ff68:	912022d6 	add	x22, x22, #0x808
    ff6c:	91204b18 	add	x24, x24, #0x812
    ff70:	14000009 	b	ff94 <_ZN9__gnu_cxx27__verbose_terminate_handlerEv@@Base+0x95f4>
    ff74:	aa0103e0 	mov	x0, x1
    ff78:	91000421 	add	x1, x1, #0x1
    ff7c:	f9008261 	str	x1, [x19, #256]
    ff80:	910006d6 	add	x22, x22, #0x1
    ff84:	38206a77 	strb	w23, [x19, x0]
    ff88:	eb1802df 	cmp	x22, x24
    ff8c:	39042277 	strb	w23, [x19, #264]
    ff90:	54006f20 	b.eq	10d74 <_ZN9__gnu_cxx27__verbose_terminate_handlerEv@@Base+0xa3d4>  // b.none
    ff94:	f103fc3f 	cmp	x1, #0xff
    ff98:	394002d7 	ldrb	w23, [x22]
    ff9c:	54fffec1 	b.ne	ff74 <_ZN9__gnu_cxx27__verbose_terminate_handlerEv@@Base+0x95d4>  // b.any
    ffa0:	f9408e62 	ldr	x2, [x19, #280]
    ffa4:	aa1303e0 	mov	x0, x19
    ffa8:	f9408a63 	ldr	x3, [x19, #272]
    ffac:	3903fe7f 	strb	wzr, [x19, #255]
    ffb0:	d63f0060 	blr	x3
    ffb4:	f9409e62 	ldr	x2, [x19, #312]
    ffb8:	d2800021 	mov	x1, #0x1                   	// #1
    ffbc:	d2800000 	mov	x0, #0x0                   	// #0
    ffc0:	8b010042 	add	x2, x2, x1
    ffc4:	f9009e62 	str	x2, [x19, #312]
    ffc8:	17ffffed 	b	ff7c <_ZN9__gnu_cxx27__verbose_terminate_handlerEv@@Base+0x95dc>
    ffcc:	b0000058 	adrp	x24, 18000 <_ZTSN10__cxxabiv117__class_type_infoE@@Base>
    ffd0:	f9408261 	ldr	x1, [x19, #256]
    ffd4:	d2800016 	mov	x22, #0x0                   	// #0
    ffd8:	91208318 	add	x24, x24, #0x820
    ffdc:	14000009 	b	10000 <_ZN9__gnu_cxx27__verbose_terminate_handlerEv@@Base+0x9660>
    ffe0:	aa0103e0 	mov	x0, x1
    ffe4:	91000421 	add	x1, x1, #0x1
    ffe8:	f9008261 	str	x1, [x19, #256]
    ffec:	910006d6 	add	x22, x22, #0x1
    fff0:	38206a77 	strb	w23, [x19, x0]
    fff4:	f10076df 	cmp	x22, #0x1d
    fff8:	39042277 	strb	w23, [x19, #264]
    fffc:	54006d60 	b.eq	10da8 <_ZN9__gnu_cxx27__verbose_terminate_handlerEv@@Base+0xa408>  // b.none
   10000:	f103fc3f 	cmp	x1, #0xff
   10004:	38786ad7 	ldrb	w23, [x22, x24]
   10008:	54fffec1 	b.ne	ffe0 <_ZN9__gnu_cxx27__verbose_terminate_handlerEv@@Base+0x9640>  // b.any
   1000c:	f9408e62 	ldr	x2, [x19, #280]
   10010:	aa1303e0 	mov	x0, x19
   10014:	f9408a63 	ldr	x3, [x19, #272]
   10018:	3903fe7f 	strb	wzr, [x19, #255]
   1001c:	d63f0060 	blr	x3
   10020:	f9409e62 	ldr	x2, [x19, #312]
   10024:	d2800021 	mov	x1, #0x1                   	// #1
   10028:	d2800000 	mov	x0, #0x0                   	// #0
   1002c:	8b010042 	add	x2, x2, x1
   10030:	f9009e62 	str	x2, [x19, #312]
   10034:	17ffffed 	b	ffe8 <_ZN9__gnu_cxx27__verbose_terminate_handlerEv@@Base+0x9648>
   10038:	90000056 	adrp	x22, 18000 <_ZTSN10__cxxabiv117__class_type_infoE@@Base>
   1003c:	90000058 	adrp	x24, 18000 <_ZTSN10__cxxabiv117__class_type_infoE@@Base>
   10040:	f9408261 	ldr	x1, [x19, #256]
   10044:	911fe2d6 	add	x22, x22, #0x7f8
   10048:	91201b18 	add	x24, x24, #0x806
   1004c:	14000009 	b	10070 <_ZN9__gnu_cxx27__verbose_terminate_handlerEv@@Base+0x96d0>
   10050:	aa0103e0 	mov	x0, x1
   10054:	91000421 	add	x1, x1, #0x1
   10058:	f9008261 	str	x1, [x19, #256]
   1005c:	910006d6 	add	x22, x22, #0x1
   10060:	38206a77 	strb	w23, [x19, x0]
   10064:	eb1802df 	cmp	x22, x24
   10068:	39042277 	strb	w23, [x19, #264]
   1006c:	54008f00 	b.eq	1124c <_ZN9__gnu_cxx27__verbose_terminate_handlerEv@@Base+0xa8ac>  // b.none
   10070:	f103fc3f 	cmp	x1, #0xff
   10074:	394002d7 	ldrb	w23, [x22]
   10078:	54fffec1 	b.ne	10050 <_ZN9__gnu_cxx27__verbose_terminate_handlerEv@@Base+0x96b0>  // b.any
   1007c:	f9408e62 	ldr	x2, [x19, #280]
   10080:	aa1303e0 	mov	x0, x19
   10084:	f9408a63 	ldr	x3, [x19, #272]
   10088:	3903fe7f 	strb	wzr, [x19, #255]
   1008c:	d63f0060 	blr	x3
   10090:	f9409e62 	ldr	x2, [x19, #312]
   10094:	d2800021 	mov	x1, #0x1                   	// #1
   10098:	d2800000 	mov	x0, #0x0                   	// #0
   1009c:	8b010042 	add	x2, x2, x1
   100a0:	f9009e62 	str	x2, [x19, #312]
   100a4:	17ffffed 	b	10058 <_ZN9__gnu_cxx27__verbose_terminate_handlerEv@@Base+0x96b8>
   100a8:	f9400682 	ldr	x2, [x20, #8]
   100ac:	aa1303e0 	mov	x0, x19
   100b0:	2a1503e1 	mov	w1, w21
   100b4:	97fffc99 	bl	f318 <_ZN9__gnu_cxx27__verbose_terminate_handlerEv@@Base+0x8978>
   100b8:	f9400a82 	ldr	x2, [x20, #16]
   100bc:	aa1303e0 	mov	x0, x19
   100c0:	2a1503e1 	mov	w1, w21
   100c4:	97fffc95 	bl	f318 <_ZN9__gnu_cxx27__verbose_terminate_handlerEv@@Base+0x8978>
   100c8:	17fffca5 	b	f35c <_ZN9__gnu_cxx27__verbose_terminate_handlerEv@@Base+0x89bc>
   100cc:	90000058 	adrp	x24, 18000 <_ZTSN10__cxxabiv117__class_type_infoE@@Base>
   100d0:	f9408261 	ldr	x1, [x19, #256]
   100d4:	d2800016 	mov	x22, #0x0                   	// #0
   100d8:	91210318 	add	x24, x24, #0x840
   100dc:	14000009 	b	10100 <_ZN9__gnu_cxx27__verbose_terminate_handlerEv@@Base+0x9760>
   100e0:	aa0103e0 	mov	x0, x1
   100e4:	91000421 	add	x1, x1, #0x1
   100e8:	f9008261 	str	x1, [x19, #256]
   100ec:	910006d6 	add	x22, x22, #0x1
   100f0:	38206a77 	strb	w23, [x19, x0]
   100f4:	f10072df 	cmp	x22, #0x1c
   100f8:	39042277 	strb	w23, [x19, #264]
   100fc:	540083c0 	b.eq	11174 <_ZN9__gnu_cxx27__verbose_terminate_handlerEv@@Base+0xa7d4>  // b.none
   10100:	f103fc3f 	cmp	x1, #0xff
   10104:	38786ad7 	ldrb	w23, [x22, x24]
   10108:	54fffec1 	b.ne	100e0 <_ZN9__gnu_cxx27__verbose_terminate_handlerEv@@Base+0x9740>  // b.any
   1010c:	f9408e62 	ldr	x2, [x19, #280]
   10110:	aa1303e0 	mov	x0, x19
   10114:	f9408a63 	ldr	x3, [x19, #272]
   10118:	3903fe7f 	strb	wzr, [x19, #255]
   1011c:	d63f0060 	blr	x3
   10120:	f9409e62 	ldr	x2, [x19, #312]
   10124:	d2800021 	mov	x1, #0x1                   	// #1
   10128:	d2800000 	mov	x0, #0x0                   	// #0
   1012c:	8b010042 	add	x2, x2, x1
   10130:	f9009e62 	str	x2, [x19, #312]
   10134:	17ffffed 	b	100e8 <_ZN9__gnu_cxx27__verbose_terminate_handlerEv@@Base+0x9748>
   10138:	90000056 	adrp	x22, 18000 <_ZTSN10__cxxabiv117__class_type_infoE@@Base>
   1013c:	90000058 	adrp	x24, 18000 <_ZTSN10__cxxabiv117__class_type_infoE@@Base>
   10140:	f9408261 	ldr	x1, [x19, #256]
   10144:	912182d6 	add	x22, x22, #0x860
   10148:	9121a318 	add	x24, x24, #0x868
   1014c:	14000009 	b	10170 <_ZN9__gnu_cxx27__verbose_terminate_handlerEv@@Base+0x97d0>
   10150:	aa0103e0 	mov	x0, x1
   10154:	91000421 	add	x1, x1, #0x1
   10158:	f9008261 	str	x1, [x19, #256]
   1015c:	910006d6 	add	x22, x22, #0x1
   10160:	38206a77 	strb	w23, [x19, x0]
   10164:	eb1802df 	cmp	x22, x24
   10168:	39042277 	strb	w23, [x19, #264]
   1016c:	540076c0 	b.eq	11044 <_ZN9__gnu_cxx27__verbose_terminate_handlerEv@@Base+0xa6a4>  // b.none
   10170:	f103fc3f 	cmp	x1, #0xff
   10174:	394002d7 	ldrb	w23, [x22]
   10178:	54fffec1 	b.ne	10150 <_ZN9__gnu_cxx27__verbose_terminate_handlerEv@@Base+0x97b0>  // b.any
   1017c:	f9408e62 	ldr	x2, [x19, #280]
   10180:	aa1303e0 	mov	x0, x19
   10184:	f9408a63 	ldr	x3, [x19, #272]
   10188:	3903fe7f 	strb	wzr, [x19, #255]
   1018c:	d63f0060 	blr	x3
   10190:	f9409e62 	ldr	x2, [x19, #312]
   10194:	d2800021 	mov	x1, #0x1                   	// #1
   10198:	d2800000 	mov	x0, #0x0                   	// #0
   1019c:	8b010042 	add	x2, x2, x1
   101a0:	f9009e62 	str	x2, [x19, #312]
   101a4:	17ffffed 	b	10158 <_ZN9__gnu_cxx27__verbose_terminate_handlerEv@@Base+0x97b8>
   101a8:	90000055 	adrp	x21, 18000 <_ZTSN10__cxxabiv117__class_type_infoE@@Base>
   101ac:	90000057 	adrp	x23, 18000 <_ZTSN10__cxxabiv117__class_type_infoE@@Base>
   101b0:	f9408261 	ldr	x1, [x19, #256]
   101b4:	9121c2b5 	add	x21, x21, #0x870
   101b8:	9121faf7 	add	x23, x23, #0x87e
   101bc:	14000009 	b	101e0 <_ZN9__gnu_cxx27__verbose_terminate_handlerEv@@Base+0x9840>
   101c0:	aa0103e0 	mov	x0, x1
   101c4:	91000421 	add	x1, x1, #0x1
   101c8:	f9008261 	str	x1, [x19, #256]
   101cc:	910006b5 	add	x21, x21, #0x1
   101d0:	38206a76 	strb	w22, [x19, x0]
   101d4:	eb1702bf 	cmp	x21, x23
   101d8:	39042276 	strb	w22, [x19, #264]
   101dc:	54006dc0 	b.eq	10f94 <_ZN9__gnu_cxx27__verbose_terminate_handlerEv@@Base+0xa5f4>  // b.none
   101e0:	f103fc3f 	cmp	x1, #0xff
   101e4:	394002b6 	ldrb	w22, [x21]
   101e8:	54fffec1 	b.ne	101c0 <_ZN9__gnu_cxx27__verbose_terminate_handlerEv@@Base+0x9820>  // b.any
   101ec:	f9408e62 	ldr	x2, [x19, #280]
   101f0:	aa1303e0 	mov	x0, x19
   101f4:	f9408a63 	ldr	x3, [x19, #272]
   101f8:	3903fe7f 	strb	wzr, [x19, #255]
   101fc:	d63f0060 	blr	x3
   10200:	f9409e62 	ldr	x2, [x19, #312]
   10204:	d2800021 	mov	x1, #0x1                   	// #1
   10208:	d2800000 	mov	x0, #0x0                   	// #0
   1020c:	8b010042 	add	x2, x2, x1
   10210:	f9009e62 	str	x2, [x19, #312]
   10214:	17ffffed 	b	101c8 <_ZN9__gnu_cxx27__verbose_terminate_handlerEv@@Base+0x9828>
   10218:	90000058 	adrp	x24, 18000 <_ZTSN10__cxxabiv117__class_type_infoE@@Base>
   1021c:	f9408261 	ldr	x1, [x19, #256]
   10220:	d2800016 	mov	x22, #0x0                   	// #0
   10224:	911d4318 	add	x24, x24, #0x750
   10228:	14000009 	b	1024c <_ZN9__gnu_cxx27__verbose_terminate_handlerEv@@Base+0x98ac>
   1022c:	aa0103e0 	mov	x0, x1
   10230:	91000421 	add	x1, x1, #0x1
   10234:	f9008261 	str	x1, [x19, #256]
   10238:	910006d6 	add	x22, x22, #0x1
   1023c:	38206a77 	strb	w23, [x19, x0]
   10240:	f1005adf 	cmp	x22, #0x16
   10244:	39042277 	strb	w23, [x19, #264]
   10248:	540058c0 	b.eq	10d60 <_ZN9__gnu_cxx27__verbose_terminate_handlerEv@@Base+0xa3c0>  // b.none
   1024c:	f103fc3f 	cmp	x1, #0xff
   10250:	38786ad7 	ldrb	w23, [x22, x24]
   10254:	54fffec1 	b.ne	1022c <_ZN9__gnu_cxx27__verbose_terminate_handlerEv@@Base+0x988c>  // b.any
   10258:	f9408e62 	ldr	x2, [x19, #280]
   1025c:	aa1303e0 	mov	x0, x19
   10260:	f9408a63 	ldr	x3, [x19, #272]
   10264:	3903fe7f 	strb	wzr, [x19, #255]
   10268:	d63f0060 	blr	x3
   1026c:	f9409e62 	ldr	x2, [x19, #312]
   10270:	d2800021 	mov	x1, #0x1                   	// #1
   10274:	d2800000 	mov	x0, #0x0                   	// #0
   10278:	8b010042 	add	x2, x2, x1
   1027c:	f9009e62 	str	x2, [x19, #312]
   10280:	17ffffed 	b	10234 <_ZN9__gnu_cxx27__verbose_terminate_handlerEv@@Base+0x9894>
   10284:	90000058 	adrp	x24, 18000 <_ZTSN10__cxxabiv117__class_type_infoE@@Base>
   10288:	f9408261 	ldr	x1, [x19, #256]
   1028c:	d2800016 	mov	x22, #0x0                   	// #0
   10290:	911da318 	add	x24, x24, #0x768
   10294:	14000009 	b	102b8 <_ZN9__gnu_cxx27__verbose_terminate_handlerEv@@Base+0x9918>
   10298:	aa0103e0 	mov	x0, x1
   1029c:	91000421 	add	x1, x1, #0x1
   102a0:	f9008261 	str	x1, [x19, #256]
   102a4:	910006d6 	add	x22, x22, #0x1
   102a8:	38206a77 	strb	w23, [x19, x0]
   102ac:	f1006adf 	cmp	x22, #0x1a
   102b0:	39042277 	strb	w23, [x19, #264]
   102b4:	540054c0 	b.eq	10d4c <_ZN9__gnu_cxx27__verbose_terminate_handlerEv@@Base+0xa3ac>  // b.none
   102b8:	f103fc3f 	cmp	x1, #0xff
   102bc:	38786ad7 	ldrb	w23, [x22, x24]
   102c0:	54fffec1 	b.ne	10298 <_ZN9__gnu_cxx27__verbose_terminate_handlerEv@@Base+0x98f8>  // b.any
   102c4:	f9408e62 	ldr	x2, [x19, #280]
   102c8:	aa1303e0 	mov	x0, x19
   102cc:	f9408a63 	ldr	x3, [x19, #272]
   102d0:	3903fe7f 	strb	wzr, [x19, #255]
   102d4:	d63f0060 	blr	x3
   102d8:	f9409e62 	ldr	x2, [x19, #312]
   102dc:	d2800021 	mov	x1, #0x1                   	// #1
   102e0:	d2800000 	mov	x0, #0x0                   	// #0
   102e4:	8b010042 	add	x2, x2, x1
   102e8:	f9009e62 	str	x2, [x19, #312]
   102ec:	17ffffed 	b	102a0 <_ZN9__gnu_cxx27__verbose_terminate_handlerEv@@Base+0x9900>
   102f0:	f9400681 	ldr	x1, [x20, #8]
   102f4:	aa1303e0 	mov	x0, x19
   102f8:	52800016 	mov	w22, #0x0                   	// #0
   102fc:	97ffdbfb 	bl	72e8 <_ZN9__gnu_cxx27__verbose_terminate_handlerEv@@Base+0x948>
   10300:	b4013160 	cbz	x0, 1292c <_ZN9__gnu_cxx27__verbose_terminate_handlerEv@@Base+0xbf8c>
   10304:	b9400001 	ldr	w1, [x0]
   10308:	7100bc3f 	cmp	w1, #0x2f
   1030c:	54007b41 	b.ne	11274 <_ZN9__gnu_cxx27__verbose_terminate_handlerEv@@Base+0xa8d4>  // b.any
   10310:	f9400401 	ldr	x1, [x0, #8]
   10314:	b4007b01 	cbz	x1, 11274 <_ZN9__gnu_cxx27__verbose_terminate_handlerEv@@Base+0xa8d4>
   10318:	f9400800 	ldr	x0, [x0, #16]
   1031c:	110006d6 	add	w22, w22, #0x1
   10320:	b5ffff20 	cbnz	x0, 10304 <_ZN9__gnu_cxx27__verbose_terminate_handlerEv@@Base+0x9964>
   10324:	f9400699 	ldr	x25, [x20, #8]
   10328:	510006da 	sub	w26, w22, #0x1
   1032c:	52800014 	mov	w20, #0x0                   	// #0
   10330:	52800598 	mov	w24, #0x2c                  	// #44
   10334:	b9013674 	str	w20, [x19, #308]
   10338:	aa1303e0 	mov	x0, x19
   1033c:	2a1503e1 	mov	w1, w21
   10340:	aa1903e2 	mov	x2, x25
   10344:	97fffbf5 	bl	f318 <_ZN9__gnu_cxx27__verbose_terminate_handlerEv@@Base+0x8978>
   10348:	6b14035f 	cmp	w26, w20
   1034c:	540001ed 	b.le	10388 <_ZN9__gnu_cxx27__verbose_terminate_handlerEv@@Base+0x99e8>
   10350:	f9408261 	ldr	x1, [x19, #256]
   10354:	f103fc3f 	cmp	x1, #0xff
   10358:	54004d80 	b.eq	10d08 <_ZN9__gnu_cxx27__verbose_terminate_handlerEv@@Base+0xa368>  // b.none
   1035c:	91000420 	add	x0, x1, #0x1
   10360:	f9008260 	str	x0, [x19, #256]
   10364:	38216a78 	strb	w24, [x19, x1]
   10368:	f103fc1f 	cmp	x0, #0xff
   1036c:	39042278 	strb	w24, [x19, #264]
   10370:	52800417 	mov	w23, #0x20                  	// #32
   10374:	54004360 	b.eq	10be0 <_ZN9__gnu_cxx27__verbose_terminate_handlerEv@@Base+0xa240>  // b.none
   10378:	91000401 	add	x1, x0, #0x1
   1037c:	f9008261 	str	x1, [x19, #256]
   10380:	38206a77 	strb	w23, [x19, x0]
   10384:	39042277 	strb	w23, [x19, #264]
   10388:	11000694 	add	w20, w20, #0x1
   1038c:	6b16029f 	cmp	w20, w22
   10390:	54fffd21 	b.ne	10334 <_ZN9__gnu_cxx27__verbose_terminate_handlerEv@@Base+0x9994>  // b.any
   10394:	17fffbf2 	b	f35c <_ZN9__gnu_cxx27__verbose_terminate_handlerEv@@Base+0x89bc>
   10398:	f9400682 	ldr	x2, [x20, #8]
   1039c:	2a1503e1 	mov	w1, w21
   103a0:	aa1303e0 	mov	x0, x19
   103a4:	97fffbdd 	bl	f318 <_ZN9__gnu_cxx27__verbose_terminate_handlerEv@@Base+0x8978>
   103a8:	f9408261 	ldr	x1, [x19, #256]
   103ac:	f103fc3f 	cmp	x1, #0xff
   103b0:	5400d420 	b.eq	11e34 <_ZN9__gnu_cxx27__verbose_terminate_handlerEv@@Base+0xb494>  // b.none
   103b4:	91000423 	add	x3, x1, #0x1
   103b8:	f9008263 	str	x3, [x19, #256]
   103bc:	52800b60 	mov	w0, #0x5b                  	// #91
   103c0:	38216a60 	strb	w0, [x19, x1]
   103c4:	39042260 	strb	w0, [x19, #264]
   103c8:	f103fc7f 	cmp	x3, #0xff
   103cc:	52800c36 	mov	w22, #0x61                  	// #97
   103d0:	5400d140 	b.eq	11df8 <_ZN9__gnu_cxx27__verbose_terminate_handlerEv@@Base+0xb458>  // b.none
   103d4:	91000461 	add	x1, x3, #0x1
   103d8:	f9008261 	str	x1, [x19, #256]
   103dc:	38236a76 	strb	w22, [x19, x3]
   103e0:	f103fc3f 	cmp	x1, #0xff
   103e4:	39042276 	strb	w22, [x19, #264]
   103e8:	52800c57 	mov	w23, #0x62                  	// #98
   103ec:	5400cea0 	b.eq	11dc0 <_ZN9__gnu_cxx27__verbose_terminate_handlerEv@@Base+0xb420>  // b.none
   103f0:	91000423 	add	x3, x1, #0x1
   103f4:	f9008263 	str	x3, [x19, #256]
   103f8:	38216a77 	strb	w23, [x19, x1]
   103fc:	f103fc7f 	cmp	x3, #0xff
   10400:	39042277 	strb	w23, [x19, #264]
   10404:	52800d37 	mov	w23, #0x69                  	// #105
   10408:	5400cc20 	b.eq	11d8c <_ZN9__gnu_cxx27__verbose_terminate_handlerEv@@Base+0xb3ec>  // b.none
   1040c:	91000461 	add	x1, x3, #0x1
   10410:	f9008261 	str	x1, [x19, #256]
   10414:	38236a77 	strb	w23, [x19, x3]
   10418:	f103fc3f 	cmp	x1, #0xff
   1041c:	39042277 	strb	w23, [x19, #264]
   10420:	52800756 	mov	w22, #0x3a                  	// #58
   10424:	54003f60 	b.eq	10c10 <_ZN9__gnu_cxx27__verbose_terminate_handlerEv@@Base+0xa270>  // b.none
   10428:	91000420 	add	x0, x1, #0x1
   1042c:	f9008260 	str	x0, [x19, #256]
   10430:	aa1303e0 	mov	x0, x19
   10434:	38216a76 	strb	w22, [x19, x1]
   10438:	2a1503e1 	mov	w1, w21
   1043c:	39042276 	strb	w22, [x19, #264]
   10440:	f9400a82 	ldr	x2, [x20, #16]
   10444:	97fffbb5 	bl	f318 <_ZN9__gnu_cxx27__verbose_terminate_handlerEv@@Base+0x8978>
   10448:	f9408261 	ldr	x1, [x19, #256]
   1044c:	f103fc3f 	cmp	x1, #0xff
   10450:	5400c720 	b.eq	11d34 <_ZN9__gnu_cxx27__verbose_terminate_handlerEv@@Base+0xb394>  // b.none
   10454:	91000420 	add	x0, x1, #0x1
   10458:	f9008260 	str	x0, [x19, #256]
   1045c:	52800ba0 	mov	w0, #0x5d                  	// #93
   10460:	38216a60 	strb	w0, [x19, x1]
   10464:	39042260 	strb	w0, [x19, #264]
   10468:	17fffbbd 	b	f35c <_ZN9__gnu_cxx27__verbose_terminate_handlerEv@@Base+0x89bc>
   1046c:	f9408261 	ldr	x1, [x19, #256]
   10470:	f103fc3f 	cmp	x1, #0xff
   10474:	5400d220 	b.eq	11eb8 <_ZN9__gnu_cxx27__verbose_terminate_handlerEv@@Base+0xb518>  // b.none
   10478:	91000420 	add	x0, x1, #0x1
   1047c:	f9008260 	str	x0, [x19, #256]
   10480:	52800fc2 	mov	w2, #0x7e                  	// #126
   10484:	38216a62 	strb	w2, [x19, x1]
   10488:	aa1303e0 	mov	x0, x19
   1048c:	39042262 	strb	w2, [x19, #264]
   10490:	2a1503e1 	mov	w1, w21
   10494:	f9400a82 	ldr	x2, [x20, #16]
   10498:	97fffba0 	bl	f318 <_ZN9__gnu_cxx27__verbose_terminate_handlerEv@@Base+0x8978>
   1049c:	17fffbb0 	b	f35c <_ZN9__gnu_cxx27__verbose_terminate_handlerEv@@Base+0x89bc>
   104a0:	90000056 	adrp	x22, 18000 <_ZTSN10__cxxabiv117__class_type_infoE@@Base>
   104a4:	90000058 	adrp	x24, 18000 <_ZTSN10__cxxabiv117__class_type_infoE@@Base>
   104a8:	f9408261 	ldr	x1, [x19, #256]
   104ac:	9117c2d6 	add	x22, x22, #0x5f0
   104b0:	9117ef18 	add	x24, x24, #0x5fb
   104b4:	14000009 	b	104d8 <_ZN9__gnu_cxx27__verbose_terminate_handlerEv@@Base+0x9b38>
   104b8:	aa0103e0 	mov	x0, x1
   104bc:	91000421 	add	x1, x1, #0x1
   104c0:	f9008261 	str	x1, [x19, #256]
   104c4:	910006d6 	add	x22, x22, #0x1
   104c8:	38206a77 	strb	w23, [x19, x0]
   104cc:	eb1802df 	cmp	x22, x24
   104d0:	39042277 	strb	w23, [x19, #264]
   104d4:	54004320 	b.eq	10d38 <_ZN9__gnu_cxx27__verbose_terminate_handlerEv@@Base+0xa398>  // b.none
   104d8:	f103fc3f 	cmp	x1, #0xff
   104dc:	394002d7 	ldrb	w23, [x22]
   104e0:	54fffec1 	b.ne	104b8 <_ZN9__gnu_cxx27__verbose_terminate_handlerEv@@Base+0x9b18>  // b.any
   104e4:	f9408e62 	ldr	x2, [x19, #280]
   104e8:	aa1303e0 	mov	x0, x19
   104ec:	f9408a63 	ldr	x3, [x19, #272]
   104f0:	3903fe7f 	strb	wzr, [x19, #255]
   104f4:	d63f0060 	blr	x3
   104f8:	f9409e62 	ldr	x2, [x19, #312]
   104fc:	d2800021 	mov	x1, #0x1                   	// #1
   10500:	d2800000 	mov	x0, #0x0                   	// #0
   10504:	8b010042 	add	x2, x2, x1
   10508:	f9009e62 	str	x2, [x19, #312]
   1050c:	17ffffed 	b	104c0 <_ZN9__gnu_cxx27__verbose_terminate_handlerEv@@Base+0x9b20>
   10510:	aa1303e0 	mov	x0, x19
   10514:	91002281 	add	x1, x20, #0x8
   10518:	97ffdb55 	bl	726c <_ZN9__gnu_cxx27__verbose_terminate_handlerEv@@Base+0x8cc>
   1051c:	aa0003e2 	mov	x2, x0
   10520:	b4ff73a0 	cbz	x0, f394 <_ZN9__gnu_cxx27__verbose_terminate_handlerEv@@Base+0x89f4>
   10524:	b9400000 	ldr	w0, [x0]
   10528:	7100bc1f 	cmp	w0, #0x2f
   1052c:	5400a3e0 	b.eq	119a8 <_ZN9__gnu_cxx27__verbose_terminate_handlerEv@@Base+0xb008>  // b.none
   10530:	f9409274 	ldr	x20, [x19, #288]
   10534:	aa1303e0 	mov	x0, x19
   10538:	2a1503e1 	mov	w1, w21
   1053c:	f9400283 	ldr	x3, [x20]
   10540:	f9009263 	str	x3, [x19, #288]
   10544:	97fffb75 	bl	f318 <_ZN9__gnu_cxx27__verbose_terminate_handlerEv@@Base+0x8978>
   10548:	f9009274 	str	x20, [x19, #288]
   1054c:	17fffb84 	b	f35c <_ZN9__gnu_cxx27__verbose_terminate_handlerEv@@Base+0x89bc>
   10550:	f9400698 	ldr	x24, [x20, #8]
   10554:	90000056 	adrp	x22, 18000 <_ZTSN10__cxxabiv117__class_type_infoE@@Base>
   10558:	90000054 	adrp	x20, 18000 <_ZTSN10__cxxabiv117__class_type_infoE@@Base>
   1055c:	f9408261 	ldr	x1, [x19, #256]
   10560:	911e2294 	add	x20, x20, #0x788
   10564:	911e42d6 	add	x22, x22, #0x790
   10568:	b9401317 	ldr	w23, [x24, #16]
   1056c:	14000009 	b	10590 <_ZN9__gnu_cxx27__verbose_terminate_handlerEv@@Base+0x9bf0>
   10570:	aa0103e0 	mov	x0, x1
   10574:	91000421 	add	x1, x1, #0x1
   10578:	f9008261 	str	x1, [x19, #256]
   1057c:	91000694 	add	x20, x20, #0x1
   10580:	38206a75 	strb	w21, [x19, x0]
   10584:	eb16029f 	cmp	x20, x22
   10588:	39042275 	strb	w21, [x19, #264]
   1058c:	540043c0 	b.eq	10e04 <_ZN9__gnu_cxx27__verbose_terminate_handlerEv@@Base+0xa464>  // b.none
   10590:	f103fc3f 	cmp	x1, #0xff
   10594:	39400295 	ldrb	w21, [x20]
   10598:	54fffec1 	b.ne	10570 <_ZN9__gnu_cxx27__verbose_terminate_handlerEv@@Base+0x9bd0>  // b.any
   1059c:	f9408e62 	ldr	x2, [x19, #280]
   105a0:	aa1303e0 	mov	x0, x19
   105a4:	f9408a63 	ldr	x3, [x19, #272]
   105a8:	3903fe7f 	strb	wzr, [x19, #255]
   105ac:	d63f0060 	blr	x3
   105b0:	f9409e62 	ldr	x2, [x19, #312]
   105b4:	d2800021 	mov	x1, #0x1                   	// #1
   105b8:	d2800000 	mov	x0, #0x0                   	// #0
   105bc:	8b010042 	add	x2, x2, x1
   105c0:	f9009e62 	str	x2, [x19, #312]
   105c4:	17ffffed 	b	10578 <_ZN9__gnu_cxx27__verbose_terminate_handlerEv@@Base+0x9bd8>
   105c8:	90000056 	adrp	x22, 18000 <_ZTSN10__cxxabiv117__class_type_infoE@@Base>
   105cc:	90000058 	adrp	x24, 18000 <_ZTSN10__cxxabiv117__class_type_infoE@@Base>
   105d0:	f9408261 	ldr	x1, [x19, #256]
   105d4:	911802d6 	add	x22, x22, #0x600
   105d8:	91182318 	add	x24, x24, #0x608
   105dc:	14000009 	b	10600 <_ZN9__gnu_cxx27__verbose_terminate_handlerEv@@Base+0x9c60>
   105e0:	aa0103e0 	mov	x0, x1
   105e4:	91000421 	add	x1, x1, #0x1
   105e8:	f9008261 	str	x1, [x19, #256]
   105ec:	910006d6 	add	x22, x22, #0x1
   105f0:	38206a77 	strb	w23, [x19, x0]
   105f4:	eb1802df 	cmp	x22, x24
   105f8:	39042277 	strb	w23, [x19, #264]
   105fc:	54003fa0 	b.eq	10df0 <_ZN9__gnu_cxx27__verbose_terminate_handlerEv@@Base+0xa450>  // b.none
   10600:	f103fc3f 	cmp	x1, #0xff
   10604:	394002d7 	ldrb	w23, [x22]
   10608:	54fffec1 	b.ne	105e0 <_ZN9__gnu_cxx27__verbose_terminate_handlerEv@@Base+0x9c40>  // b.any
   1060c:	f9408e62 	ldr	x2, [x19, #280]
   10610:	aa1303e0 	mov	x0, x19
   10614:	f9408a63 	ldr	x3, [x19, #272]
   10618:	3903fe7f 	strb	wzr, [x19, #255]
   1061c:	d63f0060 	blr	x3
   10620:	f9409e62 	ldr	x2, [x19, #312]
   10624:	d2800021 	mov	x1, #0x1                   	// #1
   10628:	d2800000 	mov	x0, #0x0                   	// #0
   1062c:	8b010042 	add	x2, x2, x1
   10630:	f9009e62 	str	x2, [x19, #312]
   10634:	17ffffed 	b	105e8 <_ZN9__gnu_cxx27__verbose_terminate_handlerEv@@Base+0x9c48>
   10638:	90000058 	adrp	x24, 18000 <_ZTSN10__cxxabiv117__class_type_infoE@@Base>
   1063c:	f9408261 	ldr	x1, [x19, #256]
   10640:	d2800016 	mov	x22, #0x0                   	// #0
   10644:	91184318 	add	x24, x24, #0x610
   10648:	14000009 	b	1066c <_ZN9__gnu_cxx27__verbose_terminate_handlerEv@@Base+0x9ccc>
   1064c:	aa0103e0 	mov	x0, x1
   10650:	91000421 	add	x1, x1, #0x1
   10654:	f9008261 	str	x1, [x19, #256]
   10658:	910006d6 	add	x22, x22, #0x1
   1065c:	38206a77 	strb	w23, [x19, x0]
   10660:	f10062df 	cmp	x22, #0x18
   10664:	39042277 	strb	w23, [x19, #264]
   10668:	54005900 	b.eq	11188 <_ZN9__gnu_cxx27__verbose_terminate_handlerEv@@Base+0xa7e8>  // b.none
   1066c:	f103fc3f 	cmp	x1, #0xff
   10670:	38786ad7 	ldrb	w23, [x22, x24]
   10674:	54fffec1 	b.ne	1064c <_ZN9__gnu_cxx27__verbose_terminate_handlerEv@@Base+0x9cac>  // b.any
   10678:	f9408e62 	ldr	x2, [x19, #280]
   1067c:	aa1303e0 	mov	x0, x19
   10680:	f9408a63 	ldr	x3, [x19, #272]
   10684:	3903fe7f 	strb	wzr, [x19, #255]
   10688:	d63f0060 	blr	x3
   1068c:	f9409e62 	ldr	x2, [x19, #312]
   10690:	d2800021 	mov	x1, #0x1                   	// #1
   10694:	d2800000 	mov	x0, #0x0                   	// #0
   10698:	8b010042 	add	x2, x2, x1
   1069c:	f9009e62 	str	x2, [x19, #312]
   106a0:	17ffffed 	b	10654 <_ZN9__gnu_cxx27__verbose_terminate_handlerEv@@Base+0x9cb4>
   106a4:	f9400682 	ldr	x2, [x20, #8]
   106a8:	2a1503e1 	mov	w1, w21
   106ac:	aa1303e0 	mov	x0, x19
   106b0:	90000056 	adrp	x22, 18000 <_ZTSN10__cxxabiv117__class_type_infoE@@Base>
   106b4:	90000058 	adrp	x24, 18000 <_ZTSN10__cxxabiv117__class_type_infoE@@Base>
   106b8:	912202d6 	add	x22, x22, #0x880
   106bc:	97fffb17 	bl	f318 <_ZN9__gnu_cxx27__verbose_terminate_handlerEv@@Base+0x8978>
   106c0:	91222318 	add	x24, x24, #0x888
   106c4:	f9408261 	ldr	x1, [x19, #256]
   106c8:	14000009 	b	106ec <_ZN9__gnu_cxx27__verbose_terminate_handlerEv@@Base+0x9d4c>
   106cc:	aa0103e0 	mov	x0, x1
   106d0:	91000421 	add	x1, x1, #0x1
   106d4:	f9008261 	str	x1, [x19, #256]
   106d8:	910006d6 	add	x22, x22, #0x1
   106dc:	38206a77 	strb	w23, [x19, x0]
   106e0:	eb1802df 	cmp	x22, x24
   106e4:	39042277 	strb	w23, [x19, #264]
   106e8:	540036a0 	b.eq	10dbc <_ZN9__gnu_cxx27__verbose_terminate_handlerEv@@Base+0xa41c>  // b.none
   106ec:	f103fc3f 	cmp	x1, #0xff
   106f0:	394002d7 	ldrb	w23, [x22]
   106f4:	54fffec1 	b.ne	106cc <_ZN9__gnu_cxx27__verbose_terminate_handlerEv@@Base+0x9d2c>  // b.any
   106f8:	f9408e62 	ldr	x2, [x19, #280]
   106fc:	aa1303e0 	mov	x0, x19
   10700:	f9408a63 	ldr	x3, [x19, #272]
   10704:	3903fe7f 	strb	wzr, [x19, #255]
   10708:	d63f0060 	blr	x3
   1070c:	f9409e62 	ldr	x2, [x19, #312]
   10710:	d2800021 	mov	x1, #0x1                   	// #1
   10714:	d2800000 	mov	x0, #0x0                   	// #0
   10718:	8b010042 	add	x2, x2, x1
   1071c:	f9009e62 	str	x2, [x19, #312]
   10720:	17ffffed 	b	106d4 <_ZN9__gnu_cxx27__verbose_terminate_handlerEv@@Base+0x9d34>
   10724:	f9400682 	ldr	x2, [x20, #8]
   10728:	b4000082 	cbz	x2, 10738 <_ZN9__gnu_cxx27__verbose_terminate_handlerEv@@Base+0x9d98>
   1072c:	aa1303e0 	mov	x0, x19
   10730:	2a1503e1 	mov	w1, w21
   10734:	97fffaf9 	bl	f318 <_ZN9__gnu_cxx27__verbose_terminate_handlerEv@@Base+0x8978>
   10738:	f9400a80 	ldr	x0, [x20, #16]
   1073c:	b4ff6100 	cbz	x0, f35c <_ZN9__gnu_cxx27__verbose_terminate_handlerEv@@Base+0x89bc>
   10740:	f9408276 	ldr	x22, [x19, #256]
   10744:	f103f6df 	cmp	x22, #0xfd
   10748:	54009108 	b.hi	11968 <_ZN9__gnu_cxx27__verbose_terminate_handlerEv@@Base+0xafc8>  // b.pmore
   1074c:	8b160260 	add	x0, x19, x22
   10750:	52800581 	mov	w1, #0x2c                  	// #44
   10754:	38366a61 	strb	w1, [x19, x22]
   10758:	91000ad7 	add	x23, x22, #0x2
   1075c:	f9008277 	str	x23, [x19, #256]
   10760:	52800401 	mov	w1, #0x20                  	// #32
   10764:	39000401 	strb	w1, [x0, #1]
   10768:	aa1303e0 	mov	x0, x19
   1076c:	39042261 	strb	w1, [x19, #264]
   10770:	2a1503e1 	mov	w1, w21
   10774:	f9409e75 	ldr	x21, [x19, #312]
   10778:	f9400a82 	ldr	x2, [x20, #16]
   1077c:	97fffae7 	bl	f318 <_ZN9__gnu_cxx27__verbose_terminate_handlerEv@@Base+0x8978>
   10780:	f9409e60 	ldr	x0, [x19, #312]
   10784:	eb15001f 	cmp	x0, x21
   10788:	54ff5ea1 	b.ne	f35c <_ZN9__gnu_cxx27__verbose_terminate_handlerEv@@Base+0x89bc>  // b.any
   1078c:	f9408260 	ldr	x0, [x19, #256]
   10790:	eb17001f 	cmp	x0, x23
   10794:	54ff5e41 	b.ne	f35c <_ZN9__gnu_cxx27__verbose_terminate_handlerEv@@Base+0x89bc>  // b.any
   10798:	f9008276 	str	x22, [x19, #256]
   1079c:	17fffaf0 	b	f35c <_ZN9__gnu_cxx27__verbose_terminate_handlerEv@@Base+0x89bc>
   107a0:	f9400682 	ldr	x2, [x20, #8]
   107a4:	f9400a94 	ldr	x20, [x20, #16]
   107a8:	b4000082 	cbz	x2, 107b8 <_ZN9__gnu_cxx27__verbose_terminate_handlerEv@@Base+0x9e18>
   107ac:	aa1303e0 	mov	x0, x19
   107b0:	2a1503e1 	mov	w1, w21
   107b4:	97fffad9 	bl	f318 <_ZN9__gnu_cxx27__verbose_terminate_handlerEv@@Base+0x8978>
   107b8:	f9408261 	ldr	x1, [x19, #256]
   107bc:	f103fc3f 	cmp	x1, #0xff
   107c0:	54009c00 	b.eq	11b40 <_ZN9__gnu_cxx27__verbose_terminate_handlerEv@@Base+0xb1a0>  // b.none
   107c4:	91000420 	add	x0, x1, #0x1
   107c8:	f9008260 	str	x0, [x19, #256]
   107cc:	52800f62 	mov	w2, #0x7b                  	// #123
   107d0:	38216a62 	strb	w2, [x19, x1]
   107d4:	aa1303e0 	mov	x0, x19
   107d8:	39042262 	strb	w2, [x19, #264]
   107dc:	2a1503e1 	mov	w1, w21
   107e0:	aa1403e2 	mov	x2, x20
   107e4:	97fffacd 	bl	f318 <_ZN9__gnu_cxx27__verbose_terminate_handlerEv@@Base+0x8978>
   107e8:	f9408261 	ldr	x1, [x19, #256]
   107ec:	f103fc3f 	cmp	x1, #0xff
   107f0:	54009920 	b.eq	11b14 <_ZN9__gnu_cxx27__verbose_terminate_handlerEv@@Base+0xb174>  // b.none
   107f4:	91000420 	add	x0, x1, #0x1
   107f8:	f9008260 	str	x0, [x19, #256]
   107fc:	52800fa0 	mov	w0, #0x7d                  	// #125
   10800:	38216a60 	strb	w0, [x19, x1]
   10804:	39042260 	strb	w0, [x19, #264]
   10808:	17fffad5 	b	f35c <_ZN9__gnu_cxx27__verbose_terminate_handlerEv@@Base+0x89bc>
   1080c:	79c02680 	ldrsh	w0, [x20, #18]
   10810:	35006e00 	cbnz	w0, 115d0 <_ZN9__gnu_cxx27__verbose_terminate_handlerEv@@Base+0xac30>
   10814:	f9400682 	ldr	x2, [x20, #8]
   10818:	900000e0 	adrp	x0, 2c000 <_ZTSN10__cxxabiv117__class_type_infoE@@Base+0x14000>
   1081c:	91354000 	add	x0, x0, #0xd50
   10820:	91040000 	add	x0, x0, #0x100
   10824:	f9400441 	ldr	x1, [x2, #8]
   10828:	eb00003f 	cmp	x1, x0
   1082c:	54006a40 	b.eq	11574 <_ZN9__gnu_cxx27__verbose_terminate_handlerEv@@Base+0xabd4>  // b.none
   10830:	2a1503e1 	mov	w1, w21
   10834:	aa1303e0 	mov	x0, x19
   10838:	97fffab8 	bl	f318 <_ZN9__gnu_cxx27__verbose_terminate_handlerEv@@Base+0x8978>
   1083c:	f9408261 	ldr	x1, [x19, #256]
   10840:	f103fc3f 	cmp	x1, #0xff
   10844:	5400c040 	b.eq	1204c <_ZN9__gnu_cxx27__verbose_terminate_handlerEv@@Base+0xb6ac>  // b.none
   10848:	91000423 	add	x3, x1, #0x1
   1084c:	f9008263 	str	x3, [x19, #256]
   10850:	52800400 	mov	w0, #0x20                  	// #32
   10854:	38216a60 	strb	w0, [x19, x1]
   10858:	39042260 	strb	w0, [x19, #264]
   1085c:	79c02280 	ldrsh	w0, [x20, #16]
   10860:	f103fc7f 	cmp	x3, #0xff
   10864:	34005480 	cbz	w0, 112f4 <_ZN9__gnu_cxx27__verbose_terminate_handlerEv@@Base+0xa954>
   10868:	5400e780 	b.eq	12558 <_ZN9__gnu_cxx27__verbose_terminate_handlerEv@@Base+0xbbb8>  // b.none
   1086c:	91000461 	add	x1, x3, #0x1
   10870:	f9008261 	str	x1, [x19, #256]
   10874:	52800be0 	mov	w0, #0x5f                  	// #95
   10878:	38236a60 	strb	w0, [x19, x3]
   1087c:	39042260 	strb	w0, [x19, #264]
   10880:	f103fc3f 	cmp	x1, #0xff
   10884:	52800834 	mov	w20, #0x41                  	// #65
   10888:	5400e4c0 	b.eq	12520 <_ZN9__gnu_cxx27__verbose_terminate_handlerEv@@Base+0xbb80>  // b.none
   1088c:	91000424 	add	x4, x1, #0x1
   10890:	f9008264 	str	x4, [x19, #256]
   10894:	38216a74 	strb	w20, [x19, x1]
   10898:	f103fc9f 	cmp	x4, #0xff
   1089c:	39042274 	strb	w20, [x19, #264]
   108a0:	52800c74 	mov	w20, #0x63                  	// #99
   108a4:	5400e220 	b.eq	124e8 <_ZN9__gnu_cxx27__verbose_terminate_handlerEv@@Base+0xbb48>  // b.none
   108a8:	91000483 	add	x3, x4, #0x1
   108ac:	f9008263 	str	x3, [x19, #256]
   108b0:	38246a74 	strb	w20, [x19, x4]
   108b4:	f103fc7f 	cmp	x3, #0xff
   108b8:	39042274 	strb	w20, [x19, #264]
   108bc:	52800c75 	mov	w21, #0x63                  	// #99
   108c0:	5400df60 	b.eq	124ac <_ZN9__gnu_cxx27__verbose_terminate_handlerEv@@Base+0xbb0c>  // b.none
   108c4:	91000461 	add	x1, x3, #0x1
   108c8:	f9008261 	str	x1, [x19, #256]
   108cc:	38236a75 	strb	w21, [x19, x3]
   108d0:	f103fc3f 	cmp	x1, #0xff
   108d4:	39042275 	strb	w21, [x19, #264]
   108d8:	52800eb5 	mov	w21, #0x75                  	// #117
   108dc:	5400da00 	b.eq	1241c <_ZN9__gnu_cxx27__verbose_terminate_handlerEv@@Base+0xba7c>  // b.none
   108e0:	91000420 	add	x0, x1, #0x1
   108e4:	f9008260 	str	x0, [x19, #256]
   108e8:	38216a75 	strb	w21, [x19, x1]
   108ec:	f103fc1f 	cmp	x0, #0xff
   108f0:	39042275 	strb	w21, [x19, #264]
   108f4:	52800db4 	mov	w20, #0x6d                  	// #109
   108f8:	54001a20 	b.eq	10c3c <_ZN9__gnu_cxx27__verbose_terminate_handlerEv@@Base+0xa29c>  // b.none
   108fc:	91000401 	add	x1, x0, #0x1
   10900:	f9008261 	str	x1, [x19, #256]
   10904:	38206a74 	strb	w20, [x19, x0]
   10908:	39042274 	strb	w20, [x19, #264]
   1090c:	17fffa94 	b	f35c <_ZN9__gnu_cxx27__verbose_terminate_handlerEv@@Base+0x89bc>
   10910:	f9400696 	ldr	x22, [x20, #8]
   10914:	f9400a94 	ldr	x20, [x20, #16]
   10918:	b94002c0 	ldr	w0, [x22]
   1091c:	7100c41f 	cmp	w0, #0x31
   10920:	54007300 	b.eq	11780 <_ZN9__gnu_cxx27__verbose_terminate_handlerEv@@Base+0xade0>  // b.none
   10924:	7100cc1f 	cmp	w0, #0x33
   10928:	54007c80 	b.eq	118b8 <_ZN9__gnu_cxx27__verbose_terminate_handlerEv@@Base+0xaf18>  // b.none
   1092c:	aa1303e0 	mov	x0, x19
   10930:	2a1503e1 	mov	w1, w21
   10934:	aa1603e2 	mov	x2, x22
   10938:	94000d3e 	bl	13e30 <_ZN9__gnu_cxx27__verbose_terminate_handlerEv@@Base+0xd490>
   1093c:	aa1303e0 	mov	x0, x19
   10940:	2a1503e1 	mov	w1, w21
   10944:	aa1403e2 	mov	x2, x20
   10948:	94000d6f 	bl	13f04 <_ZN9__gnu_cxx27__verbose_terminate_handlerEv@@Base+0xd564>
   1094c:	17fffa84 	b	f35c <_ZN9__gnu_cxx27__verbose_terminate_handlerEv@@Base+0x89bc>
   10950:	52800020 	mov	w0, #0x1                   	// #1
   10954:	b9013260 	str	w0, [x19, #304]
   10958:	17fffa81 	b	f35c <_ZN9__gnu_cxx27__verbose_terminate_handlerEv@@Base+0x89bc>
   1095c:	f9400a80 	ldr	x0, [x20, #16]
   10960:	b9400001 	ldr	w1, [x0]
   10964:	7100e83f 	cmp	w1, #0x3a
   10968:	54ff5161 	b.ne	f394 <_ZN9__gnu_cxx27__verbose_terminate_handlerEv@@Base+0x89f4>  // b.any
   1096c:	f9400803 	ldr	x3, [x0, #16]
   10970:	b9400061 	ldr	w1, [x3]
   10974:	7100ec3f 	cmp	w1, #0x3b
   10978:	54ff50e1 	b.ne	f394 <_ZN9__gnu_cxx27__verbose_terminate_handlerEv@@Base+0x89f4>  // b.any
   1097c:	f9400697 	ldr	x23, [x20, #8]
   10980:	90000041 	adrp	x1, 18000 <_ZTSN10__cxxabiv117__class_type_infoE@@Base>
   10984:	f9400402 	ldr	x2, [x0, #8]
   10988:	91166021 	add	x1, x1, #0x598
   1098c:	f9002fa2 	str	x2, [x29, #88]
   10990:	f94006e0 	ldr	x0, [x23, #8]
   10994:	f9400476 	ldr	x22, [x3, #8]
   10998:	f9400874 	ldr	x20, [x3, #16]
   1099c:	f9400000 	ldr	x0, [x0]
   109a0:	97ffd020 	bl	4a20 <strcmp@plt>
   109a4:	f9402fa2 	ldr	x2, [x29, #88]
   109a8:	3400e8a0 	cbz	w0, 126bc <_ZN9__gnu_cxx27__verbose_terminate_handlerEv@@Base+0xbd1c>
   109ac:	90000041 	adrp	x1, 18000 <_ZTSN10__cxxabiv117__class_type_infoE@@Base>
   109b0:	aa1303e0 	mov	x0, x19
   109b4:	911f2021 	add	x1, x1, #0x7c8
   109b8:	f9002fa2 	str	x2, [x29, #88]
   109bc:	97ffdaad 	bl	7470 <_ZN9__gnu_cxx27__verbose_terminate_handlerEv@@Base+0xad0>
   109c0:	f9402fa2 	ldr	x2, [x29, #88]
   109c4:	f9400440 	ldr	x0, [x2, #8]
   109c8:	b40000e0 	cbz	x0, 109e4 <_ZN9__gnu_cxx27__verbose_terminate_handlerEv@@Base+0xa044>
   109cc:	2a1503e1 	mov	w1, w21
   109d0:	aa1303e0 	mov	x0, x19
   109d4:	94000d4c 	bl	13f04 <_ZN9__gnu_cxx27__verbose_terminate_handlerEv@@Base+0xd564>
   109d8:	aa1303e0 	mov	x0, x19
   109dc:	52800401 	mov	w1, #0x20                  	// #32
   109e0:	97ffd9e3 	bl	716c <_ZN9__gnu_cxx27__verbose_terminate_handlerEv@@Base+0x7cc>
   109e4:	aa1303e0 	mov	x0, x19
   109e8:	2a1503e1 	mov	w1, w21
   109ec:	aa1603e2 	mov	x2, x22
   109f0:	97fffa4a 	bl	f318 <_ZN9__gnu_cxx27__verbose_terminate_handlerEv@@Base+0x8978>
   109f4:	b4ff4b54 	cbz	x20, f35c <_ZN9__gnu_cxx27__verbose_terminate_handlerEv@@Base+0x89bc>
   109f8:	aa1303e0 	mov	x0, x19
   109fc:	2a1503e1 	mov	w1, w21
   10a00:	aa1403e2 	mov	x2, x20
   10a04:	94000d40 	bl	13f04 <_ZN9__gnu_cxx27__verbose_terminate_handlerEv@@Base+0xd564>
   10a08:	17fffa55 	b	f35c <_ZN9__gnu_cxx27__verbose_terminate_handlerEv@@Base+0x89bc>
   10a0c:	90000058 	adrp	x24, 18000 <_ZTSN10__cxxabiv117__class_type_infoE@@Base>
   10a10:	f9408261 	ldr	x1, [x19, #256]
   10a14:	d2800016 	mov	x22, #0x0                   	// #0
   10a18:	911e6318 	add	x24, x24, #0x798
   10a1c:	14000009 	b	10a40 <_ZN9__gnu_cxx27__verbose_terminate_handlerEv@@Base+0xa0a0>
   10a20:	aa0103e0 	mov	x0, x1
   10a24:	91000421 	add	x1, x1, #0x1
   10a28:	f9008261 	str	x1, [x19, #256]
   10a2c:	910006d6 	add	x22, x22, #0x1
   10a30:	38206a77 	strb	w23, [x19, x0]
   10a34:	f10026df 	cmp	x22, #0x9
   10a38:	39042277 	strb	w23, [x19, #264]
   10a3c:	540027c0 	b.eq	10f34 <_ZN9__gnu_cxx27__verbose_terminate_handlerEv@@Base+0xa594>  // b.none
   10a40:	f103fc3f 	cmp	x1, #0xff
   10a44:	38786ad7 	ldrb	w23, [x22, x24]
   10a48:	54fffec1 	b.ne	10a20 <_ZN9__gnu_cxx27__verbose_terminate_handlerEv@@Base+0xa080>  // b.any
   10a4c:	f9408e62 	ldr	x2, [x19, #280]
   10a50:	aa1303e0 	mov	x0, x19
   10a54:	f9408a63 	ldr	x3, [x19, #272]
   10a58:	3903fe7f 	strb	wzr, [x19, #255]
   10a5c:	d63f0060 	blr	x3
   10a60:	f9409e62 	ldr	x2, [x19, #312]
   10a64:	d2800021 	mov	x1, #0x1                   	// #1
   10a68:	d2800000 	mov	x0, #0x0                   	// #0
   10a6c:	8b010042 	add	x2, x2, x1
   10a70:	f9009e62 	str	x2, [x19, #312]
   10a74:	17ffffed 	b	10a28 <_ZN9__gnu_cxx27__verbose_terminate_handlerEv@@Base+0xa088>
   10a78:	f9400682 	ldr	x2, [x20, #8]
   10a7c:	aa1303e0 	mov	x0, x19
   10a80:	2a1503e1 	mov	w1, w21
   10a84:	94000ceb 	bl	13e30 <_ZN9__gnu_cxx27__verbose_terminate_handlerEv@@Base+0xd490>
   10a88:	17fffa35 	b	f35c <_ZN9__gnu_cxx27__verbose_terminate_handlerEv@@Base+0x89bc>
   10a8c:	90000058 	adrp	x24, 18000 <_ZTSN10__cxxabiv117__class_type_infoE@@Base>
   10a90:	f9408261 	ldr	x1, [x19, #256]
   10a94:	d2800016 	mov	x22, #0x0                   	// #0
   10a98:	911e6318 	add	x24, x24, #0x798
   10a9c:	14000009 	b	10ac0 <_ZN9__gnu_cxx27__verbose_terminate_handlerEv@@Base+0xa120>
   10aa0:	aa0103e0 	mov	x0, x1
   10aa4:	91000421 	add	x1, x1, #0x1
   10aa8:	f9008261 	str	x1, [x19, #256]
   10aac:	910006d6 	add	x22, x22, #0x1
   10ab0:	38206a77 	strb	w23, [x19, x0]
   10ab4:	f10026df 	cmp	x22, #0x9
   10ab8:	39042277 	strb	w23, [x19, #264]
   10abc:	54002620 	b.eq	10f80 <_ZN9__gnu_cxx27__verbose_terminate_handlerEv@@Base+0xa5e0>  // b.none
   10ac0:	f103fc3f 	cmp	x1, #0xff
   10ac4:	38786ad7 	ldrb	w23, [x22, x24]
   10ac8:	54fffec1 	b.ne	10aa0 <_ZN9__gnu_cxx27__verbose_terminate_handlerEv@@Base+0xa100>  // b.any
   10acc:	f9408e62 	ldr	x2, [x19, #280]
   10ad0:	aa1303e0 	mov	x0, x19
   10ad4:	f9408a63 	ldr	x3, [x19, #272]
   10ad8:	3903fe7f 	strb	wzr, [x19, #255]
   10adc:	d63f0060 	blr	x3
   10ae0:	f9409e62 	ldr	x2, [x19, #312]
   10ae4:	d2800021 	mov	x1, #0x1                   	// #1
   10ae8:	d2800000 	mov	x0, #0x0                   	// #0
   10aec:	8b010042 	add	x2, x2, x1
   10af0:	f9009e62 	str	x2, [x19, #312]
   10af4:	17ffffed 	b	10aa8 <_ZN9__gnu_cxx27__verbose_terminate_handlerEv@@Base+0xa108>
   10af8:	f9400a81 	ldr	x1, [x20, #16]
   10afc:	b9400020 	ldr	w0, [x1]
   10b00:	7100e01f 	cmp	w0, #0x38
   10b04:	54ff4481 	b.ne	f394 <_ZN9__gnu_cxx27__verbose_terminate_handlerEv@@Base+0x89f4>  // b.any
   10b08:	f9400682 	ldr	x2, [x20, #8]
   10b0c:	f9400443 	ldr	x3, [x2, #8]
   10b10:	f9400060 	ldr	x0, [x3]
   10b14:	39400404 	ldrb	w4, [x0, #1]
   10b18:	71018c9f 	cmp	w4, #0x63
   10b1c:	5400b080 	b.eq	1212c <_ZN9__gnu_cxx27__verbose_terminate_handlerEv@@Base+0xb78c>  // b.none
   10b20:	b9400042 	ldr	w2, [x2]
   10b24:	7100c45f 	cmp	w2, #0x31
   10b28:	54000d20 	b.eq	10ccc <_ZN9__gnu_cxx27__verbose_terminate_handlerEv@@Base+0xa32c>  // b.none
   10b2c:	aa0103f6 	mov	x22, x1
   10b30:	90000057 	adrp	x23, 18000 <_ZTSN10__cxxabiv117__class_type_infoE@@Base>
   10b34:	911602e1 	add	x1, x23, #0x580
   10b38:	97ffcfba 	bl	4a20 <strcmp@plt>
   10b3c:	f94006c2 	ldr	x2, [x22, #8]
   10b40:	35000080 	cbnz	w0, 10b50 <_ZN9__gnu_cxx27__verbose_terminate_handlerEv@@Base+0xa1b0>
   10b44:	b9400040 	ldr	w0, [x2]
   10b48:	71000c1f 	cmp	w0, #0x3
   10b4c:	5400de00 	b.eq	1270c <_ZN9__gnu_cxx27__verbose_terminate_handlerEv@@Base+0xbd6c>  // b.none
   10b50:	aa1303e0 	mov	x0, x19
   10b54:	2a1503e1 	mov	w1, w21
   10b58:	94000ceb 	bl	13f04 <_ZN9__gnu_cxx27__verbose_terminate_handlerEv@@Base+0xd564>
   10b5c:	f9400696 	ldr	x22, [x20, #8]
   10b60:	90000041 	adrp	x1, 18000 <_ZTSN10__cxxabiv117__class_type_infoE@@Base>
   10b64:	911ee021 	add	x1, x1, #0x7b8
   10b68:	f94006c0 	ldr	x0, [x22, #8]
   10b6c:	f9400018 	ldr	x24, [x0]
   10b70:	aa1803e0 	mov	x0, x24
   10b74:	97ffcfab 	bl	4a20 <strcmp@plt>
   10b78:	3400d800 	cbz	w0, 12678 <_ZN9__gnu_cxx27__verbose_terminate_handlerEv@@Base+0xbcd8>
   10b7c:	aa1803e0 	mov	x0, x24
   10b80:	911602e1 	add	x1, x23, #0x580
   10b84:	97ffcfa7 	bl	4a20 <strcmp@plt>
   10b88:	3500d900 	cbnz	w0, 126a8 <_ZN9__gnu_cxx27__verbose_terminate_handlerEv@@Base+0xbd08>
   10b8c:	f9400a82 	ldr	x2, [x20, #16]
   10b90:	aa1303e0 	mov	x0, x19
   10b94:	2a1503e1 	mov	w1, w21
   10b98:	f9400842 	ldr	x2, [x2, #16]
   10b9c:	94000cda 	bl	13f04 <_ZN9__gnu_cxx27__verbose_terminate_handlerEv@@Base+0xd564>
   10ba0:	f9400680 	ldr	x0, [x20, #8]
   10ba4:	b9400001 	ldr	w1, [x0]
   10ba8:	7100c43f 	cmp	w1, #0x31
   10bac:	54ff3d81 	b.ne	f35c <_ZN9__gnu_cxx27__verbose_terminate_handlerEv@@Base+0x89bc>  // b.any
   10bb0:	f9400400 	ldr	x0, [x0, #8]
   10bb4:	b9401001 	ldr	w1, [x0, #16]
   10bb8:	7100043f 	cmp	w1, #0x1
   10bbc:	54ff3d01 	b.ne	f35c <_ZN9__gnu_cxx27__verbose_terminate_handlerEv@@Base+0x89bc>  // b.any
   10bc0:	f9400400 	ldr	x0, [x0, #8]
   10bc4:	39400000 	ldrb	w0, [x0]
   10bc8:	7100f81f 	cmp	w0, #0x3e
   10bcc:	54ff3c81 	b.ne	f35c <_ZN9__gnu_cxx27__verbose_terminate_handlerEv@@Base+0x89bc>  // b.any
   10bd0:	aa1303e0 	mov	x0, x19
   10bd4:	52800521 	mov	w1, #0x29                  	// #41
   10bd8:	97ffd965 	bl	716c <_ZN9__gnu_cxx27__verbose_terminate_handlerEv@@Base+0x7cc>
   10bdc:	17fff9e0 	b	f35c <_ZN9__gnu_cxx27__verbose_terminate_handlerEv@@Base+0x89bc>
   10be0:	f9408e62 	ldr	x2, [x19, #280]
   10be4:	aa0003e1 	mov	x1, x0
   10be8:	f9408a63 	ldr	x3, [x19, #272]
   10bec:	aa1303e0 	mov	x0, x19
   10bf0:	3903fe7f 	strb	wzr, [x19, #255]
   10bf4:	d63f0060 	blr	x3
   10bf8:	f9409e62 	ldr	x2, [x19, #312]
   10bfc:	d2800021 	mov	x1, #0x1                   	// #1
   10c00:	d2800000 	mov	x0, #0x0                   	// #0
   10c04:	8b010042 	add	x2, x2, x1
   10c08:	f9009e62 	str	x2, [x19, #312]
   10c0c:	17fffddc 	b	1037c <_ZN9__gnu_cxx27__verbose_terminate_handlerEv@@Base+0x99dc>
   10c10:	f9408e62 	ldr	x2, [x19, #280]
   10c14:	aa1303e0 	mov	x0, x19
   10c18:	f9408a63 	ldr	x3, [x19, #272]
   10c1c:	3903fe7f 	strb	wzr, [x19, #255]
   10c20:	d63f0060 	blr	x3
   10c24:	f9409e62 	ldr	x2, [x19, #312]
   10c28:	d2800020 	mov	x0, #0x1                   	// #1
   10c2c:	d2800001 	mov	x1, #0x0                   	// #0
   10c30:	8b000042 	add	x2, x2, x0
   10c34:	f9009e62 	str	x2, [x19, #312]
   10c38:	17fffdfd 	b	1042c <_ZN9__gnu_cxx27__verbose_terminate_handlerEv@@Base+0x9a8c>
   10c3c:	f9408e62 	ldr	x2, [x19, #280]
   10c40:	aa0003e1 	mov	x1, x0
   10c44:	f9408a63 	ldr	x3, [x19, #272]
   10c48:	aa1303e0 	mov	x0, x19
   10c4c:	3903fe7f 	strb	wzr, [x19, #255]
   10c50:	d63f0060 	blr	x3
   10c54:	f9409e62 	ldr	x2, [x19, #312]
   10c58:	d2800021 	mov	x1, #0x1                   	// #1
   10c5c:	d2800000 	mov	x0, #0x0                   	// #0
   10c60:	8b010042 	add	x2, x2, x1
   10c64:	f9009e62 	str	x2, [x19, #312]
   10c68:	17ffff26 	b	10900 <_ZN9__gnu_cxx27__verbose_terminate_handlerEv@@Base+0x9f60>
   10c6c:	f9408e62 	ldr	x2, [x19, #280]
   10c70:	aa0003e1 	mov	x1, x0
   10c74:	f9408a63 	ldr	x3, [x19, #272]
   10c78:	aa1303e0 	mov	x0, x19
   10c7c:	3903fe7f 	strb	wzr, [x19, #255]
   10c80:	d63f0060 	blr	x3
   10c84:	f9409e62 	ldr	x2, [x19, #312]
   10c88:	d2800021 	mov	x1, #0x1                   	// #1
   10c8c:	d2800000 	mov	x0, #0x0                   	// #0
   10c90:	8b010042 	add	x2, x2, x1
   10c94:	f9009e62 	str	x2, [x19, #312]
   10c98:	17fffc47 	b	fdb4 <_ZN9__gnu_cxx27__verbose_terminate_handlerEv@@Base+0x9414>
   10c9c:	f9408e62 	ldr	x2, [x19, #280]
   10ca0:	aa0003e1 	mov	x1, x0
   10ca4:	f9408a63 	ldr	x3, [x19, #272]
   10ca8:	aa1303e0 	mov	x0, x19
   10cac:	3903fe7f 	strb	wzr, [x19, #255]
   10cb0:	d63f0060 	blr	x3
   10cb4:	f9409e62 	ldr	x2, [x19, #312]
   10cb8:	d2800021 	mov	x1, #0x1                   	// #1
   10cbc:	d2800000 	mov	x0, #0x0                   	// #0
   10cc0:	8b010042 	add	x2, x2, x1
   10cc4:	f9009e62 	str	x2, [x19, #312]
   10cc8:	17fff9e9 	b	f46c <_ZN9__gnu_cxx27__verbose_terminate_handlerEv@@Base+0x8acc>
   10ccc:	b9401062 	ldr	w2, [x3, #16]
   10cd0:	7100045f 	cmp	w2, #0x1
   10cd4:	54fff2c1 	b.ne	10b2c <_ZN9__gnu_cxx27__verbose_terminate_handlerEv@@Base+0xa18c>  // b.any
   10cd8:	f9400462 	ldr	x2, [x3, #8]
   10cdc:	39400042 	ldrb	w2, [x2]
   10ce0:	7100f85f 	cmp	w2, #0x3e
   10ce4:	54fff241 	b.ne	10b2c <_ZN9__gnu_cxx27__verbose_terminate_handlerEv@@Base+0xa18c>  // b.any
   10ce8:	aa1303e0 	mov	x0, x19
   10cec:	52800501 	mov	w1, #0x28                  	// #40
   10cf0:	97ffd91f 	bl	716c <_ZN9__gnu_cxx27__verbose_terminate_handlerEv@@Base+0x7cc>
   10cf4:	f9400a96 	ldr	x22, [x20, #16]
   10cf8:	f9400680 	ldr	x0, [x20, #8]
   10cfc:	f9400400 	ldr	x0, [x0, #8]
   10d00:	f9400000 	ldr	x0, [x0]
   10d04:	17ffff8b 	b	10b30 <_ZN9__gnu_cxx27__verbose_terminate_handlerEv@@Base+0xa190>
   10d08:	f9408a63 	ldr	x3, [x19, #272]
   10d0c:	aa1303e0 	mov	x0, x19
   10d10:	f9408e62 	ldr	x2, [x19, #280]
   10d14:	52800417 	mov	w23, #0x20                  	// #32
   10d18:	3903fe7f 	strb	wzr, [x19, #255]
   10d1c:	d63f0060 	blr	x3
   10d20:	39000278 	strb	w24, [x19]
   10d24:	f9409e61 	ldr	x1, [x19, #312]
   10d28:	d2800020 	mov	x0, #0x1                   	// #1
   10d2c:	8b000021 	add	x1, x1, x0
   10d30:	f9009e61 	str	x1, [x19, #312]
   10d34:	17fffd91 	b	10378 <_ZN9__gnu_cxx27__verbose_terminate_handlerEv@@Base+0x99d8>
   10d38:	f9400682 	ldr	x2, [x20, #8]
   10d3c:	aa1303e0 	mov	x0, x19
   10d40:	2a1503e1 	mov	w1, w21
   10d44:	97fff975 	bl	f318 <_ZN9__gnu_cxx27__verbose_terminate_handlerEv@@Base+0x8978>
   10d48:	17fff985 	b	f35c <_ZN9__gnu_cxx27__verbose_terminate_handlerEv@@Base+0x89bc>
   10d4c:	f9400682 	ldr	x2, [x20, #8]
   10d50:	aa1303e0 	mov	x0, x19
   10d54:	2a1503e1 	mov	w1, w21
   10d58:	97fff970 	bl	f318 <_ZN9__gnu_cxx27__verbose_terminate_handlerEv@@Base+0x8978>
   10d5c:	17fff980 	b	f35c <_ZN9__gnu_cxx27__verbose_terminate_handlerEv@@Base+0x89bc>
   10d60:	f9400682 	ldr	x2, [x20, #8]
   10d64:	aa1303e0 	mov	x0, x19
   10d68:	2a1503e1 	mov	w1, w21
   10d6c:	97fff96b 	bl	f318 <_ZN9__gnu_cxx27__verbose_terminate_handlerEv@@Base+0x8978>
   10d70:	17fff97b 	b	f35c <_ZN9__gnu_cxx27__verbose_terminate_handlerEv@@Base+0x89bc>
   10d74:	f9400682 	ldr	x2, [x20, #8]
   10d78:	2a1503e1 	mov	w1, w21
   10d7c:	aa1303e0 	mov	x0, x19
   10d80:	97fff966 	bl	f318 <_ZN9__gnu_cxx27__verbose_terminate_handlerEv@@Base+0x8978>
   10d84:	f9408261 	ldr	x1, [x19, #256]
   10d88:	f103fc3f 	cmp	x1, #0xff
   10d8c:	54006ae0 	b.eq	11ae8 <_ZN9__gnu_cxx27__verbose_terminate_handlerEv@@Base+0xb148>  // b.none
   10d90:	91000420 	add	x0, x1, #0x1
   10d94:	f9008260 	str	x0, [x19, #256]
   10d98:	52800520 	mov	w0, #0x29                  	// #41
   10d9c:	38216a60 	strb	w0, [x19, x1]
   10da0:	39042260 	strb	w0, [x19, #264]
   10da4:	17fff96e 	b	f35c <_ZN9__gnu_cxx27__verbose_terminate_handlerEv@@Base+0x89bc>
   10da8:	f9400682 	ldr	x2, [x20, #8]
   10dac:	aa1303e0 	mov	x0, x19
   10db0:	2a1503e1 	mov	w1, w21
   10db4:	97fff959 	bl	f318 <_ZN9__gnu_cxx27__verbose_terminate_handlerEv@@Base+0x8978>
   10db8:	17fff969 	b	f35c <_ZN9__gnu_cxx27__verbose_terminate_handlerEv@@Base+0x89bc>
   10dbc:	f9400a82 	ldr	x2, [x20, #16]
   10dc0:	2a1503e1 	mov	w1, w21
   10dc4:	aa1303e0 	mov	x0, x19
   10dc8:	97fff954 	bl	f318 <_ZN9__gnu_cxx27__verbose_terminate_handlerEv@@Base+0x8978>
   10dcc:	f9408261 	ldr	x1, [x19, #256]
   10dd0:	f103fc3f 	cmp	x1, #0xff
   10dd4:	54007520 	b.eq	11c78 <_ZN9__gnu_cxx27__verbose_terminate_handlerEv@@Base+0xb2d8>  // b.none
   10dd8:	91000420 	add	x0, x1, #0x1
   10ddc:	f9008260 	str	x0, [x19, #256]
   10de0:	52800ba0 	mov	w0, #0x5d                  	// #93
   10de4:	38216a60 	strb	w0, [x19, x1]
   10de8:	39042260 	strb	w0, [x19, #264]
   10dec:	17fff95c 	b	f35c <_ZN9__gnu_cxx27__verbose_terminate_handlerEv@@Base+0x89bc>
   10df0:	f9400682 	ldr	x2, [x20, #8]
   10df4:	aa1303e0 	mov	x0, x19
   10df8:	2a1503e1 	mov	w1, w21
   10dfc:	97fff947 	bl	f318 <_ZN9__gnu_cxx27__verbose_terminate_handlerEv@@Base+0x8978>
   10e00:	17fff957 	b	f35c <_ZN9__gnu_cxx27__verbose_terminate_handlerEv@@Base+0x89bc>
   10e04:	f9400700 	ldr	x0, [x24, #8]
   10e08:	aa0003f4 	mov	x20, x0
   10e0c:	39400000 	ldrb	w0, [x0]
   10e10:	51018400 	sub	w0, w0, #0x61
   10e14:	53001c00 	uxtb	w0, w0
   10e18:	7100641f 	cmp	w0, #0x19
   10e1c:	54003c89 	b.ls	115ac <_ZN9__gnu_cxx27__verbose_terminate_handlerEv@@Base+0xac0c>  // b.plast
   10e20:	93407ef6 	sxtw	x22, w23
   10e24:	8b160280 	add	x0, x20, x22
   10e28:	385ff000 	ldurb	w0, [x0, #-1]
   10e2c:	7100801f 	cmp	w0, #0x20
   10e30:	54000360 	b.eq	10e9c <_ZN9__gnu_cxx27__verbose_terminate_handlerEv@@Base+0xa4fc>  // b.none
   10e34:	b4ff2956 	cbz	x22, f35c <_ZN9__gnu_cxx27__verbose_terminate_handlerEv@@Base+0x89bc>
   10e38:	f9408261 	ldr	x1, [x19, #256]
   10e3c:	8b160296 	add	x22, x20, x22
   10e40:	14000009 	b	10e64 <_ZN9__gnu_cxx27__verbose_terminate_handlerEv@@Base+0xa4c4>
   10e44:	aa0103e0 	mov	x0, x1
   10e48:	91000421 	add	x1, x1, #0x1
   10e4c:	f9008261 	str	x1, [x19, #256]
   10e50:	91000694 	add	x20, x20, #0x1
   10e54:	38206a75 	strb	w21, [x19, x0]
   10e58:	eb16029f 	cmp	x20, x22
   10e5c:	39042275 	strb	w21, [x19, #264]
   10e60:	54ff27e0 	b.eq	f35c <_ZN9__gnu_cxx27__verbose_terminate_handlerEv@@Base+0x89bc>  // b.none
   10e64:	f103fc3f 	cmp	x1, #0xff
   10e68:	39400295 	ldrb	w21, [x20]
   10e6c:	54fffec1 	b.ne	10e44 <_ZN9__gnu_cxx27__verbose_terminate_handlerEv@@Base+0xa4a4>  // b.any
   10e70:	f9408e62 	ldr	x2, [x19, #280]
   10e74:	aa1303e0 	mov	x0, x19
   10e78:	f9408a63 	ldr	x3, [x19, #272]
   10e7c:	3903fe7f 	strb	wzr, [x19, #255]
   10e80:	d63f0060 	blr	x3
   10e84:	f9409e62 	ldr	x2, [x19, #312]
   10e88:	d2800021 	mov	x1, #0x1                   	// #1
   10e8c:	d2800000 	mov	x0, #0x0                   	// #0
   10e90:	8b010042 	add	x2, x2, x1
   10e94:	f9009e62 	str	x2, [x19, #312]
   10e98:	17ffffed 	b	10e4c <_ZN9__gnu_cxx27__verbose_terminate_handlerEv@@Base+0xa4ac>
   10e9c:	510006f7 	sub	w23, w23, #0x1
   10ea0:	93407ef6 	sxtw	x22, w23
   10ea4:	17ffffe4 	b	10e34 <_ZN9__gnu_cxx27__verbose_terminate_handlerEv@@Base+0xa494>
   10ea8:	f9400682 	ldr	x2, [x20, #8]
   10eac:	aa1303e0 	mov	x0, x19
   10eb0:	2a1503e1 	mov	w1, w21
   10eb4:	97fff919 	bl	f318 <_ZN9__gnu_cxx27__verbose_terminate_handlerEv@@Base+0x8978>
   10eb8:	17fff929 	b	f35c <_ZN9__gnu_cxx27__verbose_terminate_handlerEv@@Base+0x89bc>
   10ebc:	f9400682 	ldr	x2, [x20, #8]
   10ec0:	aa1303e0 	mov	x0, x19
   10ec4:	2a1503e1 	mov	w1, w21
   10ec8:	97fff914 	bl	f318 <_ZN9__gnu_cxx27__verbose_terminate_handlerEv@@Base+0x8978>
   10ecc:	17fff924 	b	f35c <_ZN9__gnu_cxx27__verbose_terminate_handlerEv@@Base+0x89bc>
   10ed0:	f9400682 	ldr	x2, [x20, #8]
   10ed4:	aa1303e0 	mov	x0, x19
   10ed8:	2a1503e1 	mov	w1, w21
   10edc:	97fff90f 	bl	f318 <_ZN9__gnu_cxx27__verbose_terminate_handlerEv@@Base+0x8978>
   10ee0:	17fff91f 	b	f35c <_ZN9__gnu_cxx27__verbose_terminate_handlerEv@@Base+0x89bc>
   10ee4:	f9400682 	ldr	x2, [x20, #8]
   10ee8:	aa1303e0 	mov	x0, x19
   10eec:	2a1503e1 	mov	w1, w21
   10ef0:	97fff90a 	bl	f318 <_ZN9__gnu_cxx27__verbose_terminate_handlerEv@@Base+0x8978>
   10ef4:	17fff91a 	b	f35c <_ZN9__gnu_cxx27__verbose_terminate_handlerEv@@Base+0x89bc>
   10ef8:	f9400682 	ldr	x2, [x20, #8]
   10efc:	aa1303e0 	mov	x0, x19
   10f00:	2a1503e1 	mov	w1, w21
   10f04:	97fff905 	bl	f318 <_ZN9__gnu_cxx27__verbose_terminate_handlerEv@@Base+0x8978>
   10f08:	17fff915 	b	f35c <_ZN9__gnu_cxx27__verbose_terminate_handlerEv@@Base+0x89bc>
   10f0c:	f9400682 	ldr	x2, [x20, #8]
   10f10:	aa1303e0 	mov	x0, x19
   10f14:	2a1503e1 	mov	w1, w21
   10f18:	97fff900 	bl	f318 <_ZN9__gnu_cxx27__verbose_terminate_handlerEv@@Base+0x8978>
   10f1c:	17fff910 	b	f35c <_ZN9__gnu_cxx27__verbose_terminate_handlerEv@@Base+0x89bc>
   10f20:	f9400682 	ldr	x2, [x20, #8]
   10f24:	aa1303e0 	mov	x0, x19
   10f28:	2a1503e1 	mov	w1, w21
   10f2c:	97fff8fb 	bl	f318 <_ZN9__gnu_cxx27__verbose_terminate_handlerEv@@Base+0x8978>
   10f30:	17fff90b 	b	f35c <_ZN9__gnu_cxx27__verbose_terminate_handlerEv@@Base+0x89bc>
   10f34:	f940b261 	ldr	x1, [x19, #352]
   10f38:	b40000c1 	cbz	x1, 10f50 <_ZN9__gnu_cxx27__verbose_terminate_handlerEv@@Base+0xa5b0>
   10f3c:	9103c3a0 	add	x0, x29, #0xf0
   10f40:	f9409262 	ldr	x2, [x19, #288]
   10f44:	f9003fa1 	str	x1, [x29, #120]
   10f48:	f8180c02 	str	x2, [x0, #-128]!
   10f4c:	f9009260 	str	x0, [x19, #288]
   10f50:	f9400682 	ldr	x2, [x20, #8]
   10f54:	b9400040 	ldr	w0, [x2]
   10f58:	7100101f 	cmp	w0, #0x4
   10f5c:	54004660 	b.eq	11828 <_ZN9__gnu_cxx27__verbose_terminate_handlerEv@@Base+0xae88>  // b.none
   10f60:	aa1303e0 	mov	x0, x19
   10f64:	2a1503e1 	mov	w1, w21
   10f68:	97fff8ec 	bl	f318 <_ZN9__gnu_cxx27__verbose_terminate_handlerEv@@Base+0x8978>
   10f6c:	f940b260 	ldr	x0, [x19, #352]
   10f70:	b4ff1f60 	cbz	x0, f35c <_ZN9__gnu_cxx27__verbose_terminate_handlerEv@@Base+0x89bc>
   10f74:	f9403ba0 	ldr	x0, [x29, #112]
   10f78:	f9009260 	str	x0, [x19, #288]
   10f7c:	17fff8f8 	b	f35c <_ZN9__gnu_cxx27__verbose_terminate_handlerEv@@Base+0x89bc>
   10f80:	f9400a82 	ldr	x2, [x20, #16]
   10f84:	aa1303e0 	mov	x0, x19
   10f88:	2a1503e1 	mov	w1, w21
   10f8c:	97fff8e3 	bl	f318 <_ZN9__gnu_cxx27__verbose_terminate_handlerEv@@Base+0x8978>
   10f90:	17fff8f3 	b	f35c <_ZN9__gnu_cxx27__verbose_terminate_handlerEv@@Base+0x89bc>
   10f94:	f9400682 	ldr	x2, [x20, #8]
   10f98:	9101c3b6 	add	x22, x29, #0x70
   10f9c:	90000041 	adrp	x1, 18000 <_ZTSN10__cxxabiv117__class_type_infoE@@Base>
   10fa0:	aa1603e0 	mov	x0, x22
   10fa4:	9115e021 	add	x1, x1, #0x578
   10fa8:	91000442 	add	x2, x2, #0x1
   10fac:	d2800014 	mov	x20, #0x0                   	// #0
   10fb0:	97ffcea4 	bl	4a40 <sprintf@plt>
   10fb4:	aa1603e0 	mov	x0, x22
   10fb8:	97ffceae 	bl	4a70 <strlen@plt>
   10fbc:	aa0003f7 	mov	x23, x0
   10fc0:	f9408261 	ldr	x1, [x19, #256]
   10fc4:	b5000140 	cbnz	x0, 10fec <_ZN9__gnu_cxx27__verbose_terminate_handlerEv@@Base+0xa64c>
   10fc8:	14000017 	b	11024 <_ZN9__gnu_cxx27__verbose_terminate_handlerEv@@Base+0xa684>
   10fcc:	aa0103e0 	mov	x0, x1
   10fd0:	91000421 	add	x1, x1, #0x1
   10fd4:	f9008261 	str	x1, [x19, #256]
   10fd8:	91000694 	add	x20, x20, #0x1
   10fdc:	38206a75 	strb	w21, [x19, x0]
   10fe0:	eb17029f 	cmp	x20, x23
   10fe4:	39042275 	strb	w21, [x19, #264]
   10fe8:	540001e0 	b.eq	11024 <_ZN9__gnu_cxx27__verbose_terminate_handlerEv@@Base+0xa684>  // b.none
   10fec:	f103fc3f 	cmp	x1, #0xff
   10ff0:	38746ad5 	ldrb	w21, [x22, x20]
   10ff4:	54fffec1 	b.ne	10fcc <_ZN9__gnu_cxx27__verbose_terminate_handlerEv@@Base+0xa62c>  // b.any
   10ff8:	f9408e62 	ldr	x2, [x19, #280]
   10ffc:	aa1303e0 	mov	x0, x19
   11000:	f9408a63 	ldr	x3, [x19, #272]
   11004:	3903fe7f 	strb	wzr, [x19, #255]
   11008:	d63f0060 	blr	x3
   1100c:	f9409e62 	ldr	x2, [x19, #312]
   11010:	d2800021 	mov	x1, #0x1                   	// #1
   11014:	d2800000 	mov	x0, #0x0                   	// #0
   11018:	8b010042 	add	x2, x2, x1
   1101c:	f9009e62 	str	x2, [x19, #312]
   11020:	17ffffed 	b	10fd4 <_ZN9__gnu_cxx27__verbose_terminate_handlerEv@@Base+0xa634>
   11024:	f103fc3f 	cmp	x1, #0xff
   11028:	54005bc0 	b.eq	11ba0 <_ZN9__gnu_cxx27__verbose_terminate_handlerEv@@Base+0xb200>  // b.none
   1102c:	91000420 	add	x0, x1, #0x1
   11030:	f9008260 	str	x0, [x19, #256]
   11034:	52800fa0 	mov	w0, #0x7d                  	// #125
   11038:	38216a60 	strb	w0, [x19, x1]
   1103c:	39042260 	strb	w0, [x19, #264]
   11040:	17fff8c7 	b	f35c <_ZN9__gnu_cxx27__verbose_terminate_handlerEv@@Base+0x89bc>
   11044:	f9400682 	ldr	x2, [x20, #8]
   11048:	2a1503e1 	mov	w1, w21
   1104c:	aa1303e0 	mov	x0, x19
   11050:	97fff8b2 	bl	f318 <_ZN9__gnu_cxx27__verbose_terminate_handlerEv@@Base+0x8978>
   11054:	f9408261 	ldr	x1, [x19, #256]
   11058:	f103fc3f 	cmp	x1, #0xff
   1105c:	54005880 	b.eq	11b6c <_ZN9__gnu_cxx27__verbose_terminate_handlerEv@@Base+0xb1cc>  // b.none
   11060:	91000420 	add	x0, x1, #0x1
   11064:	f9008260 	str	x0, [x19, #256]
   11068:	52800522 	mov	w2, #0x29                  	// #41
   1106c:	38216a62 	strb	w2, [x19, x1]
   11070:	39042262 	strb	w2, [x19, #264]
   11074:	f103fc1f 	cmp	x0, #0xff
   11078:	52800475 	mov	w21, #0x23                  	// #35
   1107c:	54000540 	b.eq	11124 <_ZN9__gnu_cxx27__verbose_terminate_handlerEv@@Base+0xa784>  // b.none
   11080:	91000401 	add	x1, x0, #0x1
   11084:	f9008261 	str	x1, [x19, #256]
   11088:	9101c3b6 	add	x22, x29, #0x70
   1108c:	38206a75 	strb	w21, [x19, x0]
   11090:	f0000021 	adrp	x1, 18000 <_ZTSN10__cxxabiv117__class_type_infoE@@Base>
   11094:	39042275 	strb	w21, [x19, #264]
   11098:	9115e021 	add	x1, x1, #0x578
   1109c:	aa1603e0 	mov	x0, x22
   110a0:	b9401282 	ldr	w2, [x20, #16]
   110a4:	d2800014 	mov	x20, #0x0                   	// #0
   110a8:	11000442 	add	w2, w2, #0x1
   110ac:	93407c42 	sxtw	x2, w2
   110b0:	97ffce64 	bl	4a40 <sprintf@plt>
   110b4:	aa1603e0 	mov	x0, x22
   110b8:	97ffce6e 	bl	4a70 <strlen@plt>
   110bc:	aa0003f7 	mov	x23, x0
   110c0:	f9408261 	ldr	x1, [x19, #256]
   110c4:	b5000140 	cbnz	x0, 110ec <_ZN9__gnu_cxx27__verbose_terminate_handlerEv@@Base+0xa74c>
   110c8:	14000023 	b	11154 <_ZN9__gnu_cxx27__verbose_terminate_handlerEv@@Base+0xa7b4>
   110cc:	aa0103e0 	mov	x0, x1
   110d0:	91000421 	add	x1, x1, #0x1
   110d4:	f9008261 	str	x1, [x19, #256]
   110d8:	91000694 	add	x20, x20, #0x1
   110dc:	38206a75 	strb	w21, [x19, x0]
   110e0:	eb17029f 	cmp	x20, x23
   110e4:	39042275 	strb	w21, [x19, #264]
   110e8:	54000360 	b.eq	11154 <_ZN9__gnu_cxx27__verbose_terminate_handlerEv@@Base+0xa7b4>  // b.none
   110ec:	f103fc3f 	cmp	x1, #0xff
   110f0:	38746ad5 	ldrb	w21, [x22, x20]
   110f4:	54fffec1 	b.ne	110cc <_ZN9__gnu_cxx27__verbose_terminate_handlerEv@@Base+0xa72c>  // b.any
   110f8:	f9408e62 	ldr	x2, [x19, #280]
   110fc:	aa1303e0 	mov	x0, x19
   11100:	f9408a63 	ldr	x3, [x19, #272]
   11104:	3903fe7f 	strb	wzr, [x19, #255]
   11108:	d63f0060 	blr	x3
   1110c:	f9409e62 	ldr	x2, [x19, #312]
   11110:	d2800021 	mov	x1, #0x1                   	// #1
   11114:	d2800000 	mov	x0, #0x0                   	// #0
   11118:	8b010042 	add	x2, x2, x1
   1111c:	f9009e62 	str	x2, [x19, #312]
   11120:	17ffffed 	b	110d4 <_ZN9__gnu_cxx27__verbose_terminate_handlerEv@@Base+0xa734>
   11124:	f9408e62 	ldr	x2, [x19, #280]
   11128:	aa0003e1 	mov	x1, x0
   1112c:	f9408a63 	ldr	x3, [x19, #272]
   11130:	aa1303e0 	mov	x0, x19
   11134:	3903fe7f 	strb	wzr, [x19, #255]
   11138:	d63f0060 	blr	x3
   1113c:	f9409e62 	ldr	x2, [x19, #312]
   11140:	d2800021 	mov	x1, #0x1                   	// #1
   11144:	d2800000 	mov	x0, #0x0                   	// #0
   11148:	8b010042 	add	x2, x2, x1
   1114c:	f9009e62 	str	x2, [x19, #312]
   11150:	17ffffcd 	b	11084 <_ZN9__gnu_cxx27__verbose_terminate_handlerEv@@Base+0xa6e4>
   11154:	f103fc3f 	cmp	x1, #0xff
   11158:	54005a60 	b.eq	11ca4 <_ZN9__gnu_cxx27__verbose_terminate_handlerEv@@Base+0xb304>  // b.none
   1115c:	91000420 	add	x0, x1, #0x1
   11160:	f9008260 	str	x0, [x19, #256]
   11164:	52800fa0 	mov	w0, #0x7d                  	// #125
   11168:	38216a60 	strb	w0, [x19, x1]
   1116c:	39042260 	strb	w0, [x19, #264]
   11170:	17fff87b 	b	f35c <_ZN9__gnu_cxx27__verbose_terminate_handlerEv@@Base+0x89bc>
   11174:	f9400682 	ldr	x2, [x20, #8]
   11178:	aa1303e0 	mov	x0, x19
   1117c:	2a1503e1 	mov	w1, w21
   11180:	97fff866 	bl	f318 <_ZN9__gnu_cxx27__verbose_terminate_handlerEv@@Base+0x8978>
   11184:	17fff876 	b	f35c <_ZN9__gnu_cxx27__verbose_terminate_handlerEv@@Base+0x89bc>
   11188:	f9400682 	ldr	x2, [x20, #8]
   1118c:	2a1503e1 	mov	w1, w21
   11190:	aa1303e0 	mov	x0, x19
   11194:	97fff861 	bl	f318 <_ZN9__gnu_cxx27__verbose_terminate_handlerEv@@Base+0x8978>
   11198:	f9408261 	ldr	x1, [x19, #256]
   1119c:	f103fc3f 	cmp	x1, #0xff
   111a0:	540054e0 	b.eq	11c3c <_ZN9__gnu_cxx27__verbose_terminate_handlerEv@@Base+0xb29c>  // b.none
   111a4:	91000423 	add	x3, x1, #0x1
   111a8:	f9008263 	str	x3, [x19, #256]
   111ac:	528005a0 	mov	w0, #0x2d                  	// #45
   111b0:	38216a60 	strb	w0, [x19, x1]
   111b4:	39042260 	strb	w0, [x19, #264]
   111b8:	f103fc7f 	cmp	x3, #0xff
   111bc:	52800d37 	mov	w23, #0x69                  	// #105
   111c0:	54005200 	b.eq	11c00 <_ZN9__gnu_cxx27__verbose_terminate_handlerEv@@Base+0xb260>  // b.none
   111c4:	91000464 	add	x4, x3, #0x1
   111c8:	f9008264 	str	x4, [x19, #256]
   111cc:	38236a77 	strb	w23, [x19, x3]
   111d0:	f103fc9f 	cmp	x4, #0xff
   111d4:	39042277 	strb	w23, [x19, #264]
   111d8:	52800dd7 	mov	w23, #0x6e                  	// #110
   111dc:	54004f80 	b.eq	11bcc <_ZN9__gnu_cxx27__verbose_terminate_handlerEv@@Base+0xb22c>  // b.none
   111e0:	91000481 	add	x1, x4, #0x1
   111e4:	f9008261 	str	x1, [x19, #256]
   111e8:	38246a77 	strb	w23, [x19, x4]
   111ec:	f103fc3f 	cmp	x1, #0xff
   111f0:	39042277 	strb	w23, [x19, #264]
   111f4:	528005b6 	mov	w22, #0x2d                  	// #45
   111f8:	54000140 	b.eq	11220 <_ZN9__gnu_cxx27__verbose_terminate_handlerEv@@Base+0xa880>  // b.none
   111fc:	91000420 	add	x0, x1, #0x1
   11200:	f9008260 	str	x0, [x19, #256]
   11204:	aa1303e0 	mov	x0, x19
   11208:	38216a76 	strb	w22, [x19, x1]
   1120c:	2a1503e1 	mov	w1, w21
   11210:	39042276 	strb	w22, [x19, #264]
   11214:	f9400a82 	ldr	x2, [x20, #16]
   11218:	97fff840 	bl	f318 <_ZN9__gnu_cxx27__verbose_terminate_handlerEv@@Base+0x8978>
   1121c:	17fff850 	b	f35c <_ZN9__gnu_cxx27__verbose_terminate_handlerEv@@Base+0x89bc>
   11220:	f9408e62 	ldr	x2, [x19, #280]
   11224:	aa1303e0 	mov	x0, x19
   11228:	f9408a63 	ldr	x3, [x19, #272]
   1122c:	3903fe7f 	strb	wzr, [x19, #255]
   11230:	d63f0060 	blr	x3
   11234:	f9409e62 	ldr	x2, [x19, #312]
   11238:	d2800020 	mov	x0, #0x1                   	// #1
   1123c:	d2800001 	mov	x1, #0x0                   	// #0
   11240:	8b000042 	add	x2, x2, x0
   11244:	f9009e62 	str	x2, [x19, #312]
   11248:	17ffffee 	b	11200 <_ZN9__gnu_cxx27__verbose_terminate_handlerEv@@Base+0xa860>
   1124c:	f9400682 	ldr	x2, [x20, #8]
   11250:	aa1303e0 	mov	x0, x19
   11254:	2a1503e1 	mov	w1, w21
   11258:	97fff830 	bl	f318 <_ZN9__gnu_cxx27__verbose_terminate_handlerEv@@Base+0x8978>
   1125c:	17fff840 	b	f35c <_ZN9__gnu_cxx27__verbose_terminate_handlerEv@@Base+0x89bc>
   11260:	aa1303e0 	mov	x0, x19
   11264:	2a1503e1 	mov	w1, w21
   11268:	aa1403e2 	mov	x2, x20
   1126c:	940006ae 	bl	12d24 <_ZN9__gnu_cxx27__verbose_terminate_handlerEv@@Base+0xc384>
   11270:	17fffa76 	b	fc48 <_ZN9__gnu_cxx27__verbose_terminate_handlerEv@@Base+0x92a8>
   11274:	f9400699 	ldr	x25, [x20, #8]
   11278:	35ff8596 	cbnz	w22, 10328 <_ZN9__gnu_cxx27__verbose_terminate_handlerEv@@Base+0x9988>
   1127c:	17fff838 	b	f35c <_ZN9__gnu_cxx27__verbose_terminate_handlerEv@@Base+0x89bc>
   11280:	f9400680 	ldr	x0, [x20, #8]
   11284:	b9801816 	ldrsw	x22, [x0, #24]
   11288:	f9400817 	ldr	x23, [x0, #16]
   1128c:	b4ff0696 	cbz	x22, f35c <_ZN9__gnu_cxx27__verbose_terminate_handlerEv@@Base+0x89bc>
   11290:	f9408261 	ldr	x1, [x19, #256]
   11294:	d2800014 	mov	x20, #0x0                   	// #0
   11298:	14000009 	b	112bc <_ZN9__gnu_cxx27__verbose_terminate_handlerEv@@Base+0xa91c>
   1129c:	aa0103e0 	mov	x0, x1
   112a0:	91000421 	add	x1, x1, #0x1
   112a4:	f9008261 	str	x1, [x19, #256]
   112a8:	91000694 	add	x20, x20, #0x1
   112ac:	38206a75 	strb	w21, [x19, x0]
   112b0:	eb1402df 	cmp	x22, x20
   112b4:	39042275 	strb	w21, [x19, #264]
   112b8:	54ff0520 	b.eq	f35c <_ZN9__gnu_cxx27__verbose_terminate_handlerEv@@Base+0x89bc>  // b.none
   112bc:	f103fc3f 	cmp	x1, #0xff
   112c0:	38746af5 	ldrb	w21, [x23, x20]
   112c4:	54fffec1 	b.ne	1129c <_ZN9__gnu_cxx27__verbose_terminate_handlerEv@@Base+0xa8fc>  // b.any
   112c8:	f9408e62 	ldr	x2, [x19, #280]
   112cc:	aa1303e0 	mov	x0, x19
   112d0:	f9408a63 	ldr	x3, [x19, #272]
   112d4:	3903fe7f 	strb	wzr, [x19, #255]
   112d8:	d63f0060 	blr	x3
   112dc:	f9409e62 	ldr	x2, [x19, #312]
   112e0:	d2800021 	mov	x1, #0x1                   	// #1
   112e4:	d2800000 	mov	x0, #0x0                   	// #0
   112e8:	8b010042 	add	x2, x2, x1
   112ec:	f9009e62 	str	x2, [x19, #312]
   112f0:	17ffffed 	b	112a4 <_ZN9__gnu_cxx27__verbose_terminate_handlerEv@@Base+0xa904>
   112f4:	54008560 	b.eq	123a0 <_ZN9__gnu_cxx27__verbose_terminate_handlerEv@@Base+0xba00>  // b.none
   112f8:	91000461 	add	x1, x3, #0x1
   112fc:	f9008261 	str	x1, [x19, #256]
   11300:	52800be0 	mov	w0, #0x5f                  	// #95
   11304:	38236a60 	strb	w0, [x19, x3]
   11308:	39042260 	strb	w0, [x19, #264]
   1130c:	f103fc3f 	cmp	x1, #0xff
   11310:	528008d4 	mov	w20, #0x46                  	// #70
   11314:	54009960 	b.eq	12640 <_ZN9__gnu_cxx27__verbose_terminate_handlerEv@@Base+0xbca0>  // b.none
   11318:	91000424 	add	x4, x1, #0x1
   1131c:	f9008264 	str	x4, [x19, #256]
   11320:	38216a74 	strb	w20, [x19, x1]
   11324:	f103fc9f 	cmp	x4, #0xff
   11328:	39042274 	strb	w20, [x19, #264]
   1132c:	52800e54 	mov	w20, #0x72                  	// #114
   11330:	540096a0 	b.eq	12604 <_ZN9__gnu_cxx27__verbose_terminate_handlerEv@@Base+0xbc64>  // b.none
   11334:	91000483 	add	x3, x4, #0x1
   11338:	f9008263 	str	x3, [x19, #256]
   1133c:	38246a74 	strb	w20, [x19, x4]
   11340:	f103fc7f 	cmp	x3, #0xff
   11344:	39042274 	strb	w20, [x19, #264]
   11348:	52800c35 	mov	w21, #0x61                  	// #97
   1134c:	540093e0 	b.eq	125c8 <_ZN9__gnu_cxx27__verbose_terminate_handlerEv@@Base+0xbc28>  // b.none
   11350:	91000461 	add	x1, x3, #0x1
   11354:	f9008261 	str	x1, [x19, #256]
   11358:	38236a75 	strb	w21, [x19, x3]
   1135c:	f103fc3f 	cmp	x1, #0xff
   11360:	39042275 	strb	w21, [x19, #264]
   11364:	52800c75 	mov	w21, #0x63                  	// #99
   11368:	54009180 	b.eq	12598 <_ZN9__gnu_cxx27__verbose_terminate_handlerEv@@Base+0xbbf8>  // b.none
   1136c:	91000420 	add	x0, x1, #0x1
   11370:	f9008260 	str	x0, [x19, #256]
   11374:	38216a75 	strb	w21, [x19, x1]
   11378:	f103fc1f 	cmp	x0, #0xff
   1137c:	39042275 	strb	w21, [x19, #264]
   11380:	52800e94 	mov	w20, #0x74                  	// #116
   11384:	540000c0 	b.eq	1139c <_ZN9__gnu_cxx27__verbose_terminate_handlerEv@@Base+0xa9fc>  // b.none
   11388:	91000401 	add	x1, x0, #0x1
   1138c:	f9008261 	str	x1, [x19, #256]
   11390:	38206a74 	strb	w20, [x19, x0]
   11394:	39042274 	strb	w20, [x19, #264]
   11398:	17fff7f1 	b	f35c <_ZN9__gnu_cxx27__verbose_terminate_handlerEv@@Base+0x89bc>
   1139c:	f9408e62 	ldr	x2, [x19, #280]
   113a0:	aa0003e1 	mov	x1, x0
   113a4:	f9408a63 	ldr	x3, [x19, #272]
   113a8:	aa1303e0 	mov	x0, x19
   113ac:	3903fe7f 	strb	wzr, [x19, #255]
   113b0:	d63f0060 	blr	x3
   113b4:	f9409e62 	ldr	x2, [x19, #312]
   113b8:	d2800021 	mov	x1, #0x1                   	// #1
   113bc:	d2800000 	mov	x0, #0x0                   	// #0
   113c0:	8b010042 	add	x2, x2, x1
   113c4:	f9009e62 	str	x2, [x19, #312]
   113c8:	17fffff1 	b	1138c <_ZN9__gnu_cxx27__verbose_terminate_handlerEv@@Base+0xa9ec>
   113cc:	54007620 	b.eq	12290 <_ZN9__gnu_cxx27__verbose_terminate_handlerEv@@Base+0xb8f0>  // b.none
   113d0:	91000423 	add	x3, x1, #0x1
   113d4:	f9008263 	str	x3, [x19, #256]
   113d8:	52800f60 	mov	w0, #0x7b                  	// #123
   113dc:	38216a60 	strb	w0, [x19, x1]
   113e0:	39042260 	strb	w0, [x19, #264]
   113e4:	f103fc7f 	cmp	x3, #0xff
   113e8:	52800e15 	mov	w21, #0x70                  	// #112
   113ec:	54007340 	b.eq	12254 <_ZN9__gnu_cxx27__verbose_terminate_handlerEv@@Base+0xb8b4>  // b.none
   113f0:	91000461 	add	x1, x3, #0x1
   113f4:	f9008261 	str	x1, [x19, #256]
   113f8:	38236a75 	strb	w21, [x19, x3]
   113fc:	f103fc3f 	cmp	x1, #0xff
   11400:	39042275 	strb	w21, [x19, #264]
   11404:	52800c35 	mov	w21, #0x61                  	// #97
   11408:	540070a0 	b.eq	1221c <_ZN9__gnu_cxx27__verbose_terminate_handlerEv@@Base+0xb87c>  // b.none
   1140c:	91000423 	add	x3, x1, #0x1
   11410:	f9008263 	str	x3, [x19, #256]
   11414:	38216a75 	strb	w21, [x19, x1]
   11418:	f103fc7f 	cmp	x3, #0xff
   1141c:	39042275 	strb	w21, [x19, #264]
   11420:	52800e56 	mov	w22, #0x72                  	// #114
   11424:	54006de0 	b.eq	121e0 <_ZN9__gnu_cxx27__verbose_terminate_handlerEv@@Base+0xb840>  // b.none
   11428:	91000461 	add	x1, x3, #0x1
   1142c:	f9008261 	str	x1, [x19, #256]
   11430:	38236a76 	strb	w22, [x19, x3]
   11434:	f103fc3f 	cmp	x1, #0xff
   11438:	39042276 	strb	w22, [x19, #264]
   1143c:	52800db6 	mov	w22, #0x6d                  	// #109
   11440:	54006b80 	b.eq	121b0 <_ZN9__gnu_cxx27__verbose_terminate_handlerEv@@Base+0xb810>  // b.none
   11444:	91000420 	add	x0, x1, #0x1
   11448:	f9008260 	str	x0, [x19, #256]
   1144c:	38216a76 	strb	w22, [x19, x1]
   11450:	f103fc1f 	cmp	x0, #0xff
   11454:	39042276 	strb	w22, [x19, #264]
   11458:	52800475 	mov	w21, #0x23                  	// #35
   1145c:	54000500 	b.eq	114fc <_ZN9__gnu_cxx27__verbose_terminate_handlerEv@@Base+0xab5c>  // b.none
   11460:	91000401 	add	x1, x0, #0x1
   11464:	f9008261 	str	x1, [x19, #256]
   11468:	9101c3b6 	add	x22, x29, #0x70
   1146c:	38206a75 	strb	w21, [x19, x0]
   11470:	f0000021 	adrp	x1, 18000 <_ZTSN10__cxxabiv117__class_type_infoE@@Base>
   11474:	9115e021 	add	x1, x1, #0x578
   11478:	aa1403e2 	mov	x2, x20
   1147c:	39042275 	strb	w21, [x19, #264]
   11480:	aa1603e0 	mov	x0, x22
   11484:	d2800014 	mov	x20, #0x0                   	// #0
   11488:	97ffcd6e 	bl	4a40 <sprintf@plt>
   1148c:	aa1603e0 	mov	x0, x22
   11490:	97ffcd78 	bl	4a70 <strlen@plt>
   11494:	aa0003f7 	mov	x23, x0
   11498:	f9408261 	ldr	x1, [x19, #256]
   1149c:	b5000140 	cbnz	x0, 114c4 <_ZN9__gnu_cxx27__verbose_terminate_handlerEv@@Base+0xab24>
   114a0:	14000023 	b	1152c <_ZN9__gnu_cxx27__verbose_terminate_handlerEv@@Base+0xab8c>
   114a4:	aa0103e0 	mov	x0, x1
   114a8:	91000421 	add	x1, x1, #0x1
   114ac:	f9008261 	str	x1, [x19, #256]
   114b0:	91000694 	add	x20, x20, #0x1
   114b4:	38206a75 	strb	w21, [x19, x0]
   114b8:	eb17029f 	cmp	x20, x23
   114bc:	39042275 	strb	w21, [x19, #264]
   114c0:	54000360 	b.eq	1152c <_ZN9__gnu_cxx27__verbose_terminate_handlerEv@@Base+0xab8c>  // b.none
   114c4:	f103fc3f 	cmp	x1, #0xff
   114c8:	38746ad5 	ldrb	w21, [x22, x20]
   114cc:	54fffec1 	b.ne	114a4 <_ZN9__gnu_cxx27__verbose_terminate_handlerEv@@Base+0xab04>  // b.any
   114d0:	f9408e62 	ldr	x2, [x19, #280]
   114d4:	aa1303e0 	mov	x0, x19
   114d8:	f9408a63 	ldr	x3, [x19, #272]
   114dc:	3903fe7f 	strb	wzr, [x19, #255]
   114e0:	d63f0060 	blr	x3
   114e4:	f9409e62 	ldr	x2, [x19, #312]
   114e8:	d2800021 	mov	x1, #0x1                   	// #1
   114ec:	d2800000 	mov	x0, #0x0                   	// #0
   114f0:	8b010042 	add	x2, x2, x1
   114f4:	f9009e62 	str	x2, [x19, #312]
   114f8:	17ffffed 	b	114ac <_ZN9__gnu_cxx27__verbose_terminate_handlerEv@@Base+0xab0c>
   114fc:	f9408e62 	ldr	x2, [x19, #280]
   11500:	aa0003e1 	mov	x1, x0
   11504:	f9408a63 	ldr	x3, [x19, #272]
   11508:	aa1303e0 	mov	x0, x19
   1150c:	3903fe7f 	strb	wzr, [x19, #255]
   11510:	d63f0060 	blr	x3
   11514:	f9409e62 	ldr	x2, [x19, #312]
   11518:	d2800021 	mov	x1, #0x1                   	// #1
   1151c:	d2800000 	mov	x0, #0x0                   	// #0
   11520:	8b010042 	add	x2, x2, x1
   11524:	f9009e62 	str	x2, [x19, #312]
   11528:	17ffffcf 	b	11464 <_ZN9__gnu_cxx27__verbose_terminate_handlerEv@@Base+0xaac4>
   1152c:	f103fc3f 	cmp	x1, #0xff
   11530:	54007a80 	b.eq	12480 <_ZN9__gnu_cxx27__verbose_terminate_handlerEv@@Base+0xbae0>  // b.none
   11534:	91000420 	add	x0, x1, #0x1
   11538:	f9008260 	str	x0, [x19, #256]
   1153c:	52800fa0 	mov	w0, #0x7d                  	// #125
   11540:	38216a60 	strb	w0, [x19, x1]
   11544:	39042260 	strb	w0, [x19, #264]
   11548:	17fff785 	b	f35c <_ZN9__gnu_cxx27__verbose_terminate_handlerEv@@Base+0x89bc>
   1154c:	54007140 	b.eq	12374 <_ZN9__gnu_cxx27__verbose_terminate_handlerEv@@Base+0xb9d4>  // b.none
   11550:	91000420 	add	x0, x1, #0x1
   11554:	f9008260 	str	x0, [x19, #256]
   11558:	528005c0 	mov	w0, #0x2e                  	// #46
   1155c:	38216a60 	strb	w0, [x19, x1]
   11560:	39042260 	strb	w0, [x19, #264]
   11564:	17fff7c5 	b	f478 <_ZN9__gnu_cxx27__verbose_terminate_handlerEv@@Base+0x8ad8>
   11568:	f9409664 	ldr	x4, [x19, #296]
   1156c:	aa0203f4 	mov	x20, x2
   11570:	17fff9a9 	b	fc14 <_ZN9__gnu_cxx27__verbose_terminate_handlerEv@@Base+0x9274>
   11574:	f9408263 	ldr	x3, [x19, #256]
   11578:	17fffcb9 	b	1085c <_ZN9__gnu_cxx27__verbose_terminate_handlerEv@@Base+0x9ebc>
   1157c:	121976b5 	and	w21, w21, #0xffffff9f
   11580:	f9409663 	ldr	x3, [x19, #296]
   11584:	91004282 	add	x2, x20, #0x10
   11588:	aa1303e0 	mov	x0, x19
   1158c:	2a1503e1 	mov	w1, w21
   11590:	9400097c 	bl	13b80 <_ZN9__gnu_cxx27__verbose_terminate_handlerEv@@Base+0xd1e0>
   11594:	f9400682 	ldr	x2, [x20, #8]
   11598:	b4feee22 	cbz	x2, f35c <_ZN9__gnu_cxx27__verbose_terminate_handlerEv@@Base+0x89bc>
   1159c:	aa1303e0 	mov	x0, x19
   115a0:	2a1503e1 	mov	w1, w21
   115a4:	97fff75d 	bl	f318 <_ZN9__gnu_cxx27__verbose_terminate_handlerEv@@Base+0x8978>
   115a8:	17fff76d 	b	f35c <_ZN9__gnu_cxx27__verbose_terminate_handlerEv@@Base+0x89bc>
   115ac:	f103fc3f 	cmp	x1, #0xff
   115b0:	54008c40 	b.eq	12738 <_ZN9__gnu_cxx27__verbose_terminate_handlerEv@@Base+0xbd98>  // b.none
   115b4:	91000420 	add	x0, x1, #0x1
   115b8:	f9008260 	str	x0, [x19, #256]
   115bc:	52800400 	mov	w0, #0x20                  	// #32
   115c0:	38216a60 	strb	w0, [x19, x1]
   115c4:	39042260 	strb	w0, [x19, #264]
   115c8:	f9400714 	ldr	x20, [x24, #8]
   115cc:	17fffe15 	b	10e20 <_ZN9__gnu_cxx27__verbose_terminate_handlerEv@@Base+0xa480>
   115d0:	f9408261 	ldr	x1, [x19, #256]
   115d4:	f103fc3f 	cmp	x1, #0xff
   115d8:	54009000 	b.eq	127d8 <_ZN9__gnu_cxx27__verbose_terminate_handlerEv@@Base+0xbe38>  // b.none
   115dc:	91000423 	add	x3, x1, #0x1
   115e0:	f9008263 	str	x3, [x19, #256]
   115e4:	52800be0 	mov	w0, #0x5f                  	// #95
   115e8:	38216a60 	strb	w0, [x19, x1]
   115ec:	39042260 	strb	w0, [x19, #264]
   115f0:	f103fc7f 	cmp	x3, #0xff
   115f4:	52800a76 	mov	w22, #0x53                  	// #83
   115f8:	54009440 	b.eq	12880 <_ZN9__gnu_cxx27__verbose_terminate_handlerEv@@Base+0xbee0>  // b.none
   115fc:	91000464 	add	x4, x3, #0x1
   11600:	f9008264 	str	x4, [x19, #256]
   11604:	38236a76 	strb	w22, [x19, x3]
   11608:	f103fc9f 	cmp	x4, #0xff
   1160c:	39042276 	strb	w22, [x19, #264]
   11610:	52800c37 	mov	w23, #0x61                  	// #97
   11614:	54009180 	b.eq	12844 <_ZN9__gnu_cxx27__verbose_terminate_handlerEv@@Base+0xbea4>  // b.none
   11618:	91000481 	add	x1, x4, #0x1
   1161c:	f9008261 	str	x1, [x19, #256]
   11620:	38246a77 	strb	w23, [x19, x4]
   11624:	f103fc3f 	cmp	x1, #0xff
   11628:	39042277 	strb	w23, [x19, #264]
   1162c:	52800e97 	mov	w23, #0x74                  	// #116
   11630:	54008f20 	b.eq	12814 <_ZN9__gnu_cxx27__verbose_terminate_handlerEv@@Base+0xbe74>  // b.none
   11634:	91000420 	add	x0, x1, #0x1
   11638:	f9008260 	str	x0, [x19, #256]
   1163c:	38216a77 	strb	w23, [x19, x1]
   11640:	f103fc1f 	cmp	x0, #0xff
   11644:	39042277 	strb	w23, [x19, #264]
   11648:	52800416 	mov	w22, #0x20                  	// #32
   1164c:	540000c0 	b.eq	11664 <_ZN9__gnu_cxx27__verbose_terminate_handlerEv@@Base+0xacc4>  // b.none
   11650:	91000401 	add	x1, x0, #0x1
   11654:	f9008261 	str	x1, [x19, #256]
   11658:	38206a76 	strb	w22, [x19, x0]
   1165c:	39042276 	strb	w22, [x19, #264]
   11660:	17fffc6d 	b	10814 <_ZN9__gnu_cxx27__verbose_terminate_handlerEv@@Base+0x9e74>
   11664:	f9408e62 	ldr	x2, [x19, #280]
   11668:	aa0003e1 	mov	x1, x0
   1166c:	f9408a63 	ldr	x3, [x19, #272]
   11670:	aa1303e0 	mov	x0, x19
   11674:	3903fe7f 	strb	wzr, [x19, #255]
   11678:	d63f0060 	blr	x3
   1167c:	f9409e62 	ldr	x2, [x19, #312]
   11680:	d2800021 	mov	x1, #0x1                   	// #1
   11684:	d2800000 	mov	x0, #0x0                   	// #0
   11688:	8b010042 	add	x2, x2, x1
   1168c:	f9009e62 	str	x2, [x19, #312]
   11690:	17fffff1 	b	11654 <_ZN9__gnu_cxx27__verbose_terminate_handlerEv@@Base+0xacb4>
   11694:	b9414a65 	ldr	w5, [x19, #328]
   11698:	f940a266 	ldr	x6, [x19, #320]
   1169c:	6b1f00bf 	cmp	w5, wzr
   116a0:	540001ed 	b.le	116dc <_ZN9__gnu_cxx27__verbose_terminate_handlerEv@@Base+0xad3c>
   116a4:	f94000c0 	ldr	x0, [x6]
   116a8:	eb00005f 	cmp	x2, x0
   116ac:	54001260 	b.eq	118f8 <_ZN9__gnu_cxx27__verbose_terminate_handlerEv@@Base+0xaf58>  // b.none
   116b0:	510004a3 	sub	w3, w5, #0x1
   116b4:	910040c0 	add	x0, x6, #0x10
   116b8:	91000463 	add	x3, x3, #0x1
   116bc:	8b0310c3 	add	x3, x6, x3, lsl #4
   116c0:	14000005 	b	116d4 <_ZN9__gnu_cxx27__verbose_terminate_handlerEv@@Base+0xad34>
   116c4:	aa0003e4 	mov	x4, x0
   116c8:	f8410401 	ldr	x1, [x0], #16
   116cc:	eb01005f 	cmp	x2, x1
   116d0:	54001160 	b.eq	118fc <_ZN9__gnu_cxx27__verbose_terminate_handlerEv@@Base+0xaf5c>  // b.none
   116d4:	eb03001f 	cmp	x0, x3
   116d8:	54ffff61 	b.ne	116c4 <_ZN9__gnu_cxx27__verbose_terminate_handlerEv@@Base+0xad24>  // b.any
   116dc:	b9414e60 	ldr	w0, [x19, #332]
   116e0:	6b0000bf 	cmp	w5, w0
   116e4:	5400a92a 	b.ge	12c08 <_ZN9__gnu_cxx27__verbose_terminate_handlerEv@@Base+0xc268>  // b.tcont
   116e8:	937c7ca1 	sbfiz	x1, x5, #4, #32
   116ec:	f9409263 	ldr	x3, [x19, #288]
   116f0:	110004a5 	add	w5, w5, #0x1
   116f4:	b9014a65 	str	w5, [x19, #328]
   116f8:	8b0100c0 	add	x0, x6, x1
   116fc:	f82168c2 	str	x2, [x6, x1]
   11700:	91002000 	add	x0, x0, #0x8
   11704:	b40002e3 	cbz	x3, 11760 <_ZN9__gnu_cxx27__verbose_terminate_handlerEv@@Base+0xadc0>
   11708:	b9415a65 	ldr	w5, [x19, #344]
   1170c:	b9415e66 	ldr	w6, [x19, #348]
   11710:	6b0500df 	cmp	w6, w5
   11714:	5400a7ad 	b.le	12c08 <_ZN9__gnu_cxx27__verbose_terminate_handlerEv@@Base+0xc268>
   11718:	110004a1 	add	w1, w5, #0x1
   1171c:	110004c6 	add	w6, w6, #0x1
   11720:	937c7ca5 	sbfiz	x5, x5, #4, #32
   11724:	14000005 	b	11738 <_ZN9__gnu_cxx27__verbose_terminate_handlerEv@@Base+0xad98>
   11728:	11000421 	add	w1, w1, #0x1
   1172c:	910040a5 	add	x5, x5, #0x10
   11730:	6b06003f 	cmp	w1, w6
   11734:	5400a680 	b.eq	12c04 <_ZN9__gnu_cxx27__verbose_terminate_handlerEv@@Base+0xc264>  // b.none
   11738:	f940aa64 	ldr	x4, [x19, #336]
   1173c:	2a0103e7 	mov	w7, w1
   11740:	f9400468 	ldr	x8, [x3, #8]
   11744:	8b050084 	add	x4, x4, x5
   11748:	f9000488 	str	x8, [x4, #8]
   1174c:	f9000004 	str	x4, [x0]
   11750:	aa0403e0 	mov	x0, x4
   11754:	f9400063 	ldr	x3, [x3]
   11758:	b5fffe83 	cbnz	x3, 11728 <_ZN9__gnu_cxx27__verbose_terminate_handlerEv@@Base+0xad88>
   1175c:	b9015a61 	str	w1, [x19, #344]
   11760:	f900001f 	str	xzr, [x0]
   11764:	91002041 	add	x1, x2, #0x8
   11768:	aa1303e0 	mov	x0, x19
   1176c:	52800017 	mov	w23, #0x0                   	// #0
   11770:	97ffd6bf 	bl	726c <_ZN9__gnu_cxx27__verbose_terminate_handlerEv@@Base+0x8cc>
   11774:	aa0003e2 	mov	x2, x0
   11778:	b5000d40 	cbnz	x0, 11920 <_ZN9__gnu_cxx27__verbose_terminate_handlerEv@@Base+0xaf80>
   1177c:	17fff706 	b	f394 <_ZN9__gnu_cxx27__verbose_terminate_handlerEv@@Base+0x89f4>
   11780:	f94006c0 	ldr	x0, [x22, #8]
   11784:	f0000021 	adrp	x1, 18000 <_ZTSN10__cxxabiv117__class_type_infoE@@Base>
   11788:	911ea021 	add	x1, x1, #0x7a8
   1178c:	f9400017 	ldr	x23, [x0]
   11790:	aa1703e0 	mov	x0, x23
   11794:	97ffcca3 	bl	4a20 <strcmp@plt>
   11798:	35004560 	cbnz	w0, 12044 <_ZN9__gnu_cxx27__verbose_terminate_handlerEv@@Base+0xb6a4>
   1179c:	b9400280 	ldr	w0, [x20]
   117a0:	71000c1f 	cmp	w0, #0x3
   117a4:	54008d60 	b.eq	12950 <_ZN9__gnu_cxx27__verbose_terminate_handlerEv@@Base+0xbfb0>  // b.none
   117a8:	7100e01f 	cmp	w0, #0x38
   117ac:	5400a1a0 	b.eq	12be0 <_ZN9__gnu_cxx27__verbose_terminate_handlerEv@@Base+0xc240>  // b.none
   117b0:	aa1303e0 	mov	x0, x19
   117b4:	2a1503e1 	mov	w1, w21
   117b8:	aa1603e2 	mov	x2, x22
   117bc:	9400099d 	bl	13e30 <_ZN9__gnu_cxx27__verbose_terminate_handlerEv@@Base+0xd490>
   117c0:	f0000021 	adrp	x1, 18000 <_ZTSN10__cxxabiv117__class_type_infoE@@Base>
   117c4:	aa1703e0 	mov	x0, x23
   117c8:	911ec021 	add	x1, x1, #0x7b0
   117cc:	97ffcc95 	bl	4a20 <strcmp@plt>
   117d0:	34003de0 	cbz	w0, 11f8c <_ZN9__gnu_cxx27__verbose_terminate_handlerEv@@Base+0xb5ec>
   117d4:	f0000021 	adrp	x1, 18000 <_ZTSN10__cxxabiv117__class_type_infoE@@Base>
   117d8:	aa1703e0 	mov	x0, x23
   117dc:	912c0021 	add	x1, x1, #0xb00
   117e0:	97ffcc90 	bl	4a20 <strcmp@plt>
   117e4:	35ff8ac0 	cbnz	w0, 1093c <_ZN9__gnu_cxx27__verbose_terminate_handlerEv@@Base+0x9f9c>
   117e8:	aa1303e0 	mov	x0, x19
   117ec:	52800501 	mov	w1, #0x28                  	// #40
   117f0:	97ffd65f 	bl	716c <_ZN9__gnu_cxx27__verbose_terminate_handlerEv@@Base+0x7cc>
   117f4:	2a1503e1 	mov	w1, w21
   117f8:	aa1303e0 	mov	x0, x19
   117fc:	aa1403e2 	mov	x2, x20
   11800:	97fff6c6 	bl	f318 <_ZN9__gnu_cxx27__verbose_terminate_handlerEv@@Base+0x8978>
   11804:	f9408261 	ldr	x1, [x19, #256]
   11808:	f103fc3f 	cmp	x1, #0xff
   1180c:	540087c0 	b.eq	12904 <_ZN9__gnu_cxx27__verbose_terminate_handlerEv@@Base+0xbf64>  // b.none
   11810:	91000420 	add	x0, x1, #0x1
   11814:	f9008260 	str	x0, [x19, #256]
   11818:	52800520 	mov	w0, #0x29                  	// #41
   1181c:	38216a60 	strb	w0, [x19, x1]
   11820:	39042260 	strb	w0, [x19, #264]
   11824:	17fff6ce 	b	f35c <_ZN9__gnu_cxx27__verbose_terminate_handlerEv@@Base+0x89bc>
   11828:	f9400442 	ldr	x2, [x2, #8]
   1182c:	aa1303e0 	mov	x0, x19
   11830:	2a1503e1 	mov	w1, w21
   11834:	97fff6b9 	bl	f318 <_ZN9__gnu_cxx27__verbose_terminate_handlerEv@@Base+0x8978>
   11838:	f940b260 	ldr	x0, [x19, #352]
   1183c:	b4000060 	cbz	x0, 11848 <_ZN9__gnu_cxx27__verbose_terminate_handlerEv@@Base+0xaea8>
   11840:	f9403ba0 	ldr	x0, [x29, #112]
   11844:	f9009260 	str	x0, [x19, #288]
   11848:	39442260 	ldrb	w0, [x19, #264]
   1184c:	7100f01f 	cmp	w0, #0x3c
   11850:	54008480 	b.eq	128e0 <_ZN9__gnu_cxx27__verbose_terminate_handlerEv@@Base+0xbf40>  // b.none
   11854:	f9408261 	ldr	x1, [x19, #256]
   11858:	f103fc3f 	cmp	x1, #0xff
   1185c:	54007aa0 	b.eq	127b0 <_ZN9__gnu_cxx27__verbose_terminate_handlerEv@@Base+0xbe10>  // b.none
   11860:	91000420 	add	x0, x1, #0x1
   11864:	f9008260 	str	x0, [x19, #256]
   11868:	52800780 	mov	w0, #0x3c                  	// #60
   1186c:	38216a60 	strb	w0, [x19, x1]
   11870:	39042260 	strb	w0, [x19, #264]
   11874:	2a1503e1 	mov	w1, w21
   11878:	aa1303e0 	mov	x0, x19
   1187c:	f9400682 	ldr	x2, [x20, #8]
   11880:	f9400842 	ldr	x2, [x2, #16]
   11884:	97fff6a5 	bl	f318 <_ZN9__gnu_cxx27__verbose_terminate_handlerEv@@Base+0x8978>
   11888:	39442260 	ldrb	w0, [x19, #264]
   1188c:	7100f81f 	cmp	w0, #0x3e
   11890:	54008160 	b.eq	128bc <_ZN9__gnu_cxx27__verbose_terminate_handlerEv@@Base+0xbf1c>  // b.none
   11894:	f9408261 	ldr	x1, [x19, #256]
   11898:	f103fc3f 	cmp	x1, #0xff
   1189c:	54007760 	b.eq	12788 <_ZN9__gnu_cxx27__verbose_terminate_handlerEv@@Base+0xbde8>  // b.none
   118a0:	91000420 	add	x0, x1, #0x1
   118a4:	f9008260 	str	x0, [x19, #256]
   118a8:	528007c0 	mov	w0, #0x3e                  	// #62
   118ac:	38216a60 	strb	w0, [x19, x1]
   118b0:	39042260 	strb	w0, [x19, #264]
   118b4:	17fff6aa 	b	f35c <_ZN9__gnu_cxx27__verbose_terminate_handlerEv@@Base+0x89bc>
   118b8:	f9408261 	ldr	x1, [x19, #256]
   118bc:	f103fc3f 	cmp	x1, #0xff
   118c0:	54007500 	b.eq	12760 <_ZN9__gnu_cxx27__verbose_terminate_handlerEv@@Base+0xbdc0>  // b.none
   118c4:	91000420 	add	x0, x1, #0x1
   118c8:	f9008260 	str	x0, [x19, #256]
   118cc:	52800500 	mov	w0, #0x28                  	// #40
   118d0:	38216a60 	strb	w0, [x19, x1]
   118d4:	39042260 	strb	w0, [x19, #264]
   118d8:	2a1503e1 	mov	w1, w21
   118dc:	aa1303e0 	mov	x0, x19
   118e0:	f94006c2 	ldr	x2, [x22, #8]
   118e4:	97fff68d 	bl	f318 <_ZN9__gnu_cxx27__verbose_terminate_handlerEv@@Base+0x8978>
   118e8:	aa1303e0 	mov	x0, x19
   118ec:	52800521 	mov	w1, #0x29                  	// #41
   118f0:	97ffd61f 	bl	716c <_ZN9__gnu_cxx27__verbose_terminate_handlerEv@@Base+0x7cc>
   118f4:	17fffc12 	b	1093c <_ZN9__gnu_cxx27__verbose_terminate_handlerEv@@Base+0x9f9c>
   118f8:	aa0603e4 	mov	x4, x6
   118fc:	f9400483 	ldr	x3, [x4, #8]
   11900:	91002041 	add	x1, x2, #0x8
   11904:	f9409276 	ldr	x22, [x19, #288]
   11908:	aa1303e0 	mov	x0, x19
   1190c:	f9009263 	str	x3, [x19, #288]
   11910:	52800037 	mov	w23, #0x1                   	// #1
   11914:	97ffd656 	bl	726c <_ZN9__gnu_cxx27__verbose_terminate_handlerEv@@Base+0x8cc>
   11918:	aa0003e2 	mov	x2, x0
   1191c:	b4fed3a0 	cbz	x0, f390 <_ZN9__gnu_cxx27__verbose_terminate_handlerEv@@Base+0x89f0>
   11920:	b9400040 	ldr	w0, [x2]
   11924:	7100bc1f 	cmp	w0, #0x2f
   11928:	54ff1a41 	b.ne	fc70 <_ZN9__gnu_cxx27__verbose_terminate_handlerEv@@Base+0x92d0>  // b.any
   1192c:	b9413660 	ldr	w0, [x19, #308]
   11930:	14000007 	b	1194c <_ZN9__gnu_cxx27__verbose_terminate_handlerEv@@Base+0xafac>
   11934:	f9400842 	ldr	x2, [x2, #16]
   11938:	51000400 	sub	w0, w0, #0x1
   1193c:	b4fed282 	cbz	x2, f38c <_ZN9__gnu_cxx27__verbose_terminate_handlerEv@@Base+0x89ec>
   11940:	b9400041 	ldr	w1, [x2]
   11944:	7100bc3f 	cmp	w1, #0x2f
   11948:	54fed221 	b.ne	f38c <_ZN9__gnu_cxx27__verbose_terminate_handlerEv@@Base+0x89ec>  // b.any
   1194c:	6b1f001f 	cmp	w0, wzr
   11950:	54ffff2c 	b.gt	11934 <_ZN9__gnu_cxx27__verbose_terminate_handlerEv@@Base+0xaf94>
   11954:	54fed1c1 	b.ne	f38c <_ZN9__gnu_cxx27__verbose_terminate_handlerEv@@Base+0x89ec>  // b.any
   11958:	f9400442 	ldr	x2, [x2, #8]
   1195c:	b4fed182 	cbz	x2, f38c <_ZN9__gnu_cxx27__verbose_terminate_handlerEv@@Base+0x89ec>
   11960:	b9400040 	ldr	w0, [x2]
   11964:	17fff8c3 	b	fc70 <_ZN9__gnu_cxx27__verbose_terminate_handlerEv@@Base+0x92d0>
   11968:	38366a7f 	strb	wzr, [x19, x22]
   1196c:	aa1603e1 	mov	x1, x22
   11970:	aa1303e0 	mov	x0, x19
   11974:	d2800016 	mov	x22, #0x0                   	// #0
   11978:	f9408a63 	ldr	x3, [x19, #272]
   1197c:	f9408e62 	ldr	x2, [x19, #280]
   11980:	d63f0060 	blr	x3
   11984:	f9409e60 	ldr	x0, [x19, #312]
   11988:	91000400 	add	x0, x0, #0x1
   1198c:	f9009e60 	str	x0, [x19, #312]
   11990:	17fffb6f 	b	1074c <_ZN9__gnu_cxx27__verbose_terminate_handlerEv@@Base+0x9dac>
   11994:	f9400682 	ldr	x2, [x20, #8]
   11998:	aa1303e0 	mov	x0, x19
   1199c:	2a1503e1 	mov	w1, w21
   119a0:	97fff65e 	bl	f318 <_ZN9__gnu_cxx27__verbose_terminate_handlerEv@@Base+0x8978>
   119a4:	17fff66e 	b	f35c <_ZN9__gnu_cxx27__verbose_terminate_handlerEv@@Base+0x89bc>
   119a8:	b9413660 	ldr	w0, [x19, #308]
   119ac:	14000007 	b	119c8 <_ZN9__gnu_cxx27__verbose_terminate_handlerEv@@Base+0xb028>
   119b0:	f9400842 	ldr	x2, [x2, #16]
   119b4:	51000400 	sub	w0, w0, #0x1
   119b8:	b4fecee2 	cbz	x2, f394 <_ZN9__gnu_cxx27__verbose_terminate_handlerEv@@Base+0x89f4>
   119bc:	b9400041 	ldr	w1, [x2]
   119c0:	7100bc3f 	cmp	w1, #0x2f
   119c4:	54fece81 	b.ne	f394 <_ZN9__gnu_cxx27__verbose_terminate_handlerEv@@Base+0x89f4>  // b.any
   119c8:	6b1f001f 	cmp	w0, wzr
   119cc:	54ffff2c 	b.gt	119b0 <_ZN9__gnu_cxx27__verbose_terminate_handlerEv@@Base+0xb010>
   119d0:	54fece21 	b.ne	f394 <_ZN9__gnu_cxx27__verbose_terminate_handlerEv@@Base+0x89f4>  // b.any
   119d4:	f9400442 	ldr	x2, [x2, #8]
   119d8:	b5ff5ac2 	cbnz	x2, 10530 <_ZN9__gnu_cxx27__verbose_terminate_handlerEv@@Base+0x9b90>
   119dc:	17fff66e 	b	f394 <_ZN9__gnu_cxx27__verbose_terminate_handlerEv@@Base+0x89f4>
   119e0:	f9400695 	ldr	x21, [x20, #8]
   119e4:	b9801296 	ldrsw	x22, [x20, #16]
   119e8:	8b1602b6 	add	x22, x21, x22
   119ec:	eb1602bf 	cmp	x21, x22
   119f0:	54000183 	b.cc	11a20 <_ZN9__gnu_cxx27__verbose_terminate_handlerEv@@Base+0xb080>  // b.lo, b.ul, b.last
   119f4:	17fff65a 	b	f35c <_ZN9__gnu_cxx27__verbose_terminate_handlerEv@@Base+0x89bc>
   119f8:	f9408261 	ldr	x1, [x19, #256]
   119fc:	f103fc3f 	cmp	x1, #0xff
   11a00:	540005e0 	b.eq	11abc <_ZN9__gnu_cxx27__verbose_terminate_handlerEv@@Base+0xb11c>  // b.none
   11a04:	91000420 	add	x0, x1, #0x1
   11a08:	f9008260 	str	x0, [x19, #256]
   11a0c:	38216a74 	strb	w20, [x19, x1]
   11a10:	39042274 	strb	w20, [x19, #264]
   11a14:	910006b5 	add	x21, x21, #0x1
   11a18:	eb1502df 	cmp	x22, x21
   11a1c:	54feca09 	b.ls	f35c <_ZN9__gnu_cxx27__verbose_terminate_handlerEv@@Base+0x89bc>  // b.plast
   11a20:	cb1502c0 	sub	x0, x22, x21
   11a24:	394002b4 	ldrb	w20, [x21]
   11a28:	f1000c1f 	cmp	x0, #0x3
   11a2c:	54fffe6d 	b.le	119f8 <_ZN9__gnu_cxx27__verbose_terminate_handlerEv@@Base+0xb058>
   11a30:	71017e9f 	cmp	w20, #0x5f
   11a34:	54fffe21 	b.ne	119f8 <_ZN9__gnu_cxx27__verbose_terminate_handlerEv@@Base+0xb058>  // b.any
   11a38:	394006a0 	ldrb	w0, [x21, #1]
   11a3c:	71017c1f 	cmp	w0, #0x5f
   11a40:	54fffdc1 	b.ne	119f8 <_ZN9__gnu_cxx27__verbose_terminate_handlerEv@@Base+0xb058>  // b.any
   11a44:	39400aa1 	ldrb	w1, [x21, #2]
   11a48:	2a0003f4 	mov	w20, w0
   11a4c:	7101543f 	cmp	w1, #0x55
   11a50:	54fffd41 	b.ne	119f8 <_ZN9__gnu_cxx27__verbose_terminate_handlerEv@@Base+0xb058>  // b.any
   11a54:	91000eb7 	add	x23, x21, #0x3
   11a58:	eb1702df 	cmp	x22, x23
   11a5c:	54fffce9 	b.ls	119f8 <_ZN9__gnu_cxx27__verbose_terminate_handlerEv@@Base+0xb058>  // b.plast
   11a60:	d2800002 	mov	x2, #0x0                   	// #0
   11a64:	14000007 	b	11a80 <_ZN9__gnu_cxx27__verbose_terminate_handlerEv@@Base+0xb0e0>
   11a68:	5100dc20 	sub	w0, w1, #0x37
   11a6c:	910006f7 	add	x23, x23, #0x1
   11a70:	93407c00 	sxtw	x0, w0
   11a74:	eb1602ff 	cmp	x23, x22
   11a78:	8b021002 	add	x2, x0, x2, lsl #4
   11a7c:	54008a20 	b.eq	12bc0 <_ZN9__gnu_cxx27__verbose_terminate_handlerEv@@Base+0xc220>  // b.none
   11a80:	394002e1 	ldrb	w1, [x23]
   11a84:	5100c020 	sub	w0, w1, #0x30
   11a88:	53001c03 	uxtb	w3, w0
   11a8c:	7100247f 	cmp	w3, #0x9
   11a90:	54fffee9 	b.ls	11a6c <_ZN9__gnu_cxx27__verbose_terminate_handlerEv@@Base+0xb0cc>  // b.plast
   11a94:	51010420 	sub	w0, w1, #0x41
   11a98:	53001c00 	uxtb	w0, w0
   11a9c:	7100141f 	cmp	w0, #0x5
   11aa0:	54fffe49 	b.ls	11a68 <_ZN9__gnu_cxx27__verbose_terminate_handlerEv@@Base+0xb0c8>  // b.plast
   11aa4:	51018420 	sub	w0, w1, #0x61
   11aa8:	53001c00 	uxtb	w0, w0
   11aac:	7100141f 	cmp	w0, #0x5
   11ab0:	54008de8 	b.hi	12c6c <_ZN9__gnu_cxx27__verbose_terminate_handlerEv@@Base+0xc2cc>  // b.pmore
   11ab4:	51015c20 	sub	w0, w1, #0x57
   11ab8:	17ffffed 	b	11a6c <_ZN9__gnu_cxx27__verbose_terminate_handlerEv@@Base+0xb0cc>
   11abc:	f9408e62 	ldr	x2, [x19, #280]
   11ac0:	aa1303e0 	mov	x0, x19
   11ac4:	f9408a63 	ldr	x3, [x19, #272]
   11ac8:	3903fe7f 	strb	wzr, [x19, #255]
   11acc:	d63f0060 	blr	x3
   11ad0:	f9409e62 	ldr	x2, [x19, #312]
   11ad4:	d2800020 	mov	x0, #0x1                   	// #1
   11ad8:	d2800001 	mov	x1, #0x0                   	// #0
   11adc:	8b000042 	add	x2, x2, x0
   11ae0:	f9009e62 	str	x2, [x19, #312]
   11ae4:	17ffffc9 	b	11a08 <_ZN9__gnu_cxx27__verbose_terminate_handlerEv@@Base+0xb068>
   11ae8:	f9408e62 	ldr	x2, [x19, #280]
   11aec:	aa1303e0 	mov	x0, x19
   11af0:	f9408a63 	ldr	x3, [x19, #272]
   11af4:	3903fe7f 	strb	wzr, [x19, #255]
   11af8:	d63f0060 	blr	x3
   11afc:	f9409e62 	ldr	x2, [x19, #312]
   11b00:	d2800020 	mov	x0, #0x1                   	// #1
   11b04:	d2800001 	mov	x1, #0x0                   	// #0
   11b08:	8b000042 	add	x2, x2, x0
   11b0c:	f9009e62 	str	x2, [x19, #312]
   11b10:	17fffca1 	b	10d94 <_ZN9__gnu_cxx27__verbose_terminate_handlerEv@@Base+0xa3f4>
   11b14:	f9408e62 	ldr	x2, [x19, #280]
   11b18:	aa1303e0 	mov	x0, x19
   11b1c:	f9408a63 	ldr	x3, [x19, #272]
   11b20:	3903fe7f 	strb	wzr, [x19, #255]
   11b24:	d63f0060 	blr	x3
   11b28:	f9409e62 	ldr	x2, [x19, #312]
   11b2c:	d2800020 	mov	x0, #0x1                   	// #1
   11b30:	d2800001 	mov	x1, #0x0                   	// #0
   11b34:	8b000042 	add	x2, x2, x0
   11b38:	f9009e62 	str	x2, [x19, #312]
   11b3c:	17fffb2f 	b	107f8 <_ZN9__gnu_cxx27__verbose_terminate_handlerEv@@Base+0x9e58>
   11b40:	f9408e62 	ldr	x2, [x19, #280]
   11b44:	aa1303e0 	mov	x0, x19
   11b48:	f9408a63 	ldr	x3, [x19, #272]
   11b4c:	3903fe7f 	strb	wzr, [x19, #255]
   11b50:	d63f0060 	blr	x3
   11b54:	f9409e62 	ldr	x2, [x19, #312]
   11b58:	d2800020 	mov	x0, #0x1                   	// #1
   11b5c:	d2800001 	mov	x1, #0x0                   	// #0
   11b60:	8b000042 	add	x2, x2, x0
   11b64:	f9009e62 	str	x2, [x19, #312]
   11b68:	17fffb18 	b	107c8 <_ZN9__gnu_cxx27__verbose_terminate_handlerEv@@Base+0x9e28>
   11b6c:	f9408e62 	ldr	x2, [x19, #280]
   11b70:	aa1303e0 	mov	x0, x19
   11b74:	f9408a63 	ldr	x3, [x19, #272]
   11b78:	52800475 	mov	w21, #0x23                  	// #35
   11b7c:	3903fe7f 	strb	wzr, [x19, #255]
   11b80:	d63f0060 	blr	x3
   11b84:	f9409e61 	ldr	x1, [x19, #312]
   11b88:	d2800020 	mov	x0, #0x1                   	// #1
   11b8c:	52800522 	mov	w2, #0x29                  	// #41
   11b90:	39000262 	strb	w2, [x19]
   11b94:	8b000021 	add	x1, x1, x0
   11b98:	f9009e61 	str	x1, [x19, #312]
   11b9c:	17fffd39 	b	11080 <_ZN9__gnu_cxx27__verbose_terminate_handlerEv@@Base+0xa6e0>
   11ba0:	f9408e62 	ldr	x2, [x19, #280]
   11ba4:	aa1303e0 	mov	x0, x19
   11ba8:	f9408a63 	ldr	x3, [x19, #272]
   11bac:	3903fe7f 	strb	wzr, [x19, #255]
   11bb0:	d63f0060 	blr	x3
   11bb4:	f9409e62 	ldr	x2, [x19, #312]
   11bb8:	d2800020 	mov	x0, #0x1                   	// #1
   11bbc:	d2800001 	mov	x1, #0x0                   	// #0
   11bc0:	8b000042 	add	x2, x2, x0
   11bc4:	f9009e62 	str	x2, [x19, #312]
   11bc8:	17fffd1a 	b	11030 <_ZN9__gnu_cxx27__verbose_terminate_handlerEv@@Base+0xa690>
   11bcc:	f9408a63 	ldr	x3, [x19, #272]
   11bd0:	aa1303e0 	mov	x0, x19
   11bd4:	f9408e62 	ldr	x2, [x19, #280]
   11bd8:	aa0403e1 	mov	x1, x4
   11bdc:	3903fe7f 	strb	wzr, [x19, #255]
   11be0:	528005b6 	mov	w22, #0x2d                  	// #45
   11be4:	d63f0060 	blr	x3
   11be8:	39000277 	strb	w23, [x19]
   11bec:	f9409e60 	ldr	x0, [x19, #312]
   11bf0:	d2800021 	mov	x1, #0x1                   	// #1
   11bf4:	8b010000 	add	x0, x0, x1
   11bf8:	f9009e60 	str	x0, [x19, #312]
   11bfc:	17fffd80 	b	111fc <_ZN9__gnu_cxx27__verbose_terminate_handlerEv@@Base+0xa85c>
   11c00:	f9408a64 	ldr	x4, [x19, #272]
   11c04:	aa1303e0 	mov	x0, x19
   11c08:	f9408e62 	ldr	x2, [x19, #280]
   11c0c:	aa0303e1 	mov	x1, x3
   11c10:	3903fe7f 	strb	wzr, [x19, #255]
   11c14:	528005b6 	mov	w22, #0x2d                  	// #45
   11c18:	d63f0080 	blr	x4
   11c1c:	39000277 	strb	w23, [x19]
   11c20:	f9409e60 	ldr	x0, [x19, #312]
   11c24:	d2800041 	mov	x1, #0x2                   	// #2
   11c28:	91000400 	add	x0, x0, #0x1
   11c2c:	f9009e60 	str	x0, [x19, #312]
   11c30:	52800dc0 	mov	w0, #0x6e                  	// #110
   11c34:	39000660 	strb	w0, [x19, #1]
   11c38:	17fffd71 	b	111fc <_ZN9__gnu_cxx27__verbose_terminate_handlerEv@@Base+0xa85c>
   11c3c:	f9408a63 	ldr	x3, [x19, #272]
   11c40:	aa1303e0 	mov	x0, x19
   11c44:	f9408e62 	ldr	x2, [x19, #280]
   11c48:	52800dd7 	mov	w23, #0x6e                  	// #110
   11c4c:	3903fe7f 	strb	wzr, [x19, #255]
   11c50:	d63f0060 	blr	x3
   11c54:	f9409e60 	ldr	x0, [x19, #312]
   11c58:	528005a1 	mov	w1, #0x2d                  	// #45
   11c5c:	d2800044 	mov	x4, #0x2                   	// #2
   11c60:	39000261 	strb	w1, [x19]
   11c64:	91000400 	add	x0, x0, #0x1
   11c68:	f9009e60 	str	x0, [x19, #312]
   11c6c:	52800d20 	mov	w0, #0x69                  	// #105
   11c70:	39000660 	strb	w0, [x19, #1]
   11c74:	17fffd5b 	b	111e0 <_ZN9__gnu_cxx27__verbose_terminate_handlerEv@@Base+0xa840>
   11c78:	f9408e62 	ldr	x2, [x19, #280]
   11c7c:	aa1303e0 	mov	x0, x19
   11c80:	f9408a63 	ldr	x3, [x19, #272]
   11c84:	3903fe7f 	strb	wzr, [x19, #255]
   11c88:	d63f0060 	blr	x3
   11c8c:	f9409e62 	ldr	x2, [x19, #312]
   11c90:	d2800020 	mov	x0, #0x1                   	// #1
   11c94:	d2800001 	mov	x1, #0x0                   	// #0
   11c98:	8b000042 	add	x2, x2, x0
   11c9c:	f9009e62 	str	x2, [x19, #312]
   11ca0:	17fffc4f 	b	10ddc <_ZN9__gnu_cxx27__verbose_terminate_handlerEv@@Base+0xa43c>
   11ca4:	f9408e62 	ldr	x2, [x19, #280]
   11ca8:	aa1303e0 	mov	x0, x19
   11cac:	f9408a63 	ldr	x3, [x19, #272]
   11cb0:	3903fe7f 	strb	wzr, [x19, #255]
   11cb4:	d63f0060 	blr	x3
   11cb8:	f9409e62 	ldr	x2, [x19, #312]
   11cbc:	d2800020 	mov	x0, #0x1                   	// #1
   11cc0:	d2800001 	mov	x1, #0x0                   	// #0
   11cc4:	8b000042 	add	x2, x2, x0
   11cc8:	f9009e62 	str	x2, [x19, #312]
   11ccc:	17fffd25 	b	11160 <_ZN9__gnu_cxx27__verbose_terminate_handlerEv@@Base+0xa7c0>
   11cd0:	52800020 	mov	w0, #0x1                   	// #1
   11cd4:	b9013260 	str	w0, [x19, #304]
   11cd8:	17fff5a1 	b	f35c <_ZN9__gnu_cxx27__verbose_terminate_handlerEv@@Base+0x89bc>
   11cdc:	f9408e62 	ldr	x2, [x19, #280]
   11ce0:	aa1303e0 	mov	x0, x19
   11ce4:	f9408a63 	ldr	x3, [x19, #272]
   11ce8:	3903fe7f 	strb	wzr, [x19, #255]
   11cec:	d63f0060 	blr	x3
   11cf0:	f9409e62 	ldr	x2, [x19, #312]
   11cf4:	d2800020 	mov	x0, #0x1                   	// #1
   11cf8:	d2800001 	mov	x1, #0x0                   	// #0
   11cfc:	8b000042 	add	x2, x2, x0
   11d00:	f9009e62 	str	x2, [x19, #312]
   11d04:	17fff809 	b	fd28 <_ZN9__gnu_cxx27__verbose_terminate_handlerEv@@Base+0x9388>
   11d08:	f9408e62 	ldr	x2, [x19, #280]
   11d0c:	aa1303e0 	mov	x0, x19
   11d10:	f9408a63 	ldr	x3, [x19, #272]
   11d14:	3903fe7f 	strb	wzr, [x19, #255]
   11d18:	d63f0060 	blr	x3
   11d1c:	f9409e62 	ldr	x2, [x19, #312]
   11d20:	d2800020 	mov	x0, #0x1                   	// #1
   11d24:	d2800001 	mov	x1, #0x0                   	// #0
   11d28:	8b000042 	add	x2, x2, x0
   11d2c:	f9009e62 	str	x2, [x19, #312]
   11d30:	17fff7ef 	b	fcec <_ZN9__gnu_cxx27__verbose_terminate_handlerEv@@Base+0x934c>
   11d34:	f9408e62 	ldr	x2, [x19, #280]
   11d38:	aa1303e0 	mov	x0, x19
   11d3c:	f9408a63 	ldr	x3, [x19, #272]
   11d40:	3903fe7f 	strb	wzr, [x19, #255]
   11d44:	d63f0060 	blr	x3
   11d48:	f9409e62 	ldr	x2, [x19, #312]
   11d4c:	d2800020 	mov	x0, #0x1                   	// #1
   11d50:	d2800001 	mov	x1, #0x0                   	// #0
   11d54:	8b000042 	add	x2, x2, x0
   11d58:	f9009e62 	str	x2, [x19, #312]
   11d5c:	17fff9bf 	b	10458 <_ZN9__gnu_cxx27__verbose_terminate_handlerEv@@Base+0x9ab8>
   11d60:	f9408e62 	ldr	x2, [x19, #280]
   11d64:	aa1303e0 	mov	x0, x19
   11d68:	f9408a63 	ldr	x3, [x19, #272]
   11d6c:	3903fe7f 	strb	wzr, [x19, #255]
   11d70:	d63f0060 	blr	x3
   11d74:	f9409e62 	ldr	x2, [x19, #312]
   11d78:	d2800020 	mov	x0, #0x1                   	// #1
   11d7c:	d2800001 	mov	x1, #0x0                   	// #0
   11d80:	8b000042 	add	x2, x2, x0
   11d84:	f9009e62 	str	x2, [x19, #312]
   11d88:	17fff84e 	b	fec0 <_ZN9__gnu_cxx27__verbose_terminate_handlerEv@@Base+0x9520>
   11d8c:	f9408a64 	ldr	x4, [x19, #272]
   11d90:	aa1303e0 	mov	x0, x19
   11d94:	f9408e62 	ldr	x2, [x19, #280]
   11d98:	aa0303e1 	mov	x1, x3
   11d9c:	3903fe7f 	strb	wzr, [x19, #255]
   11da0:	52800756 	mov	w22, #0x3a                  	// #58
   11da4:	d63f0080 	blr	x4
   11da8:	39000277 	strb	w23, [x19]
   11dac:	f9409e60 	ldr	x0, [x19, #312]
   11db0:	d2800021 	mov	x1, #0x1                   	// #1
   11db4:	8b010000 	add	x0, x0, x1
   11db8:	f9009e60 	str	x0, [x19, #312]
   11dbc:	17fff99b 	b	10428 <_ZN9__gnu_cxx27__verbose_terminate_handlerEv@@Base+0x9a88>
   11dc0:	f9408a63 	ldr	x3, [x19, #272]
   11dc4:	aa1303e0 	mov	x0, x19
   11dc8:	f9408e62 	ldr	x2, [x19, #280]
   11dcc:	52800756 	mov	w22, #0x3a                  	// #58
   11dd0:	3903fe7f 	strb	wzr, [x19, #255]
   11dd4:	d63f0060 	blr	x3
   11dd8:	39000277 	strb	w23, [x19]
   11ddc:	f9409e60 	ldr	x0, [x19, #312]
   11de0:	d2800041 	mov	x1, #0x2                   	// #2
   11de4:	91000400 	add	x0, x0, #0x1
   11de8:	f9009e60 	str	x0, [x19, #312]
   11dec:	52800d20 	mov	w0, #0x69                  	// #105
   11df0:	39000660 	strb	w0, [x19, #1]
   11df4:	17fff98d 	b	10428 <_ZN9__gnu_cxx27__verbose_terminate_handlerEv@@Base+0x9a88>
   11df8:	f9408a64 	ldr	x4, [x19, #272]
   11dfc:	aa1303e0 	mov	x0, x19
   11e00:	f9408e62 	ldr	x2, [x19, #280]
   11e04:	aa0303e1 	mov	x1, x3
   11e08:	3903fe7f 	strb	wzr, [x19, #255]
   11e0c:	52800d37 	mov	w23, #0x69                  	// #105
   11e10:	d63f0080 	blr	x4
   11e14:	39000276 	strb	w22, [x19]
   11e18:	f9409e60 	ldr	x0, [x19, #312]
   11e1c:	d2800043 	mov	x3, #0x2                   	// #2
   11e20:	91000400 	add	x0, x0, #0x1
   11e24:	f9009e60 	str	x0, [x19, #312]
   11e28:	52800c40 	mov	w0, #0x62                  	// #98
   11e2c:	39000660 	strb	w0, [x19, #1]
   11e30:	17fff977 	b	1040c <_ZN9__gnu_cxx27__verbose_terminate_handlerEv@@Base+0x9a6c>
   11e34:	f9408a63 	ldr	x3, [x19, #272]
   11e38:	aa1303e0 	mov	x0, x19
   11e3c:	f9408e62 	ldr	x2, [x19, #280]
   11e40:	52800c57 	mov	w23, #0x62                  	// #98
   11e44:	3903fe7f 	strb	wzr, [x19, #255]
   11e48:	d63f0060 	blr	x3
   11e4c:	f9409e60 	ldr	x0, [x19, #312]
   11e50:	52800b61 	mov	w1, #0x5b                  	// #91
   11e54:	39000261 	strb	w1, [x19]
   11e58:	d2800041 	mov	x1, #0x2                   	// #2
   11e5c:	91000400 	add	x0, x0, #0x1
   11e60:	f9009e60 	str	x0, [x19, #312]
   11e64:	52800c20 	mov	w0, #0x61                  	// #97
   11e68:	39000660 	strb	w0, [x19, #1]
   11e6c:	17fff961 	b	103f0 <_ZN9__gnu_cxx27__verbose_terminate_handlerEv@@Base+0x9a50>
   11e70:	f0000021 	adrp	x1, 18000 <_ZTSN10__cxxabiv117__class_type_infoE@@Base>
   11e74:	aa1303e0 	mov	x0, x19
   11e78:	91172021 	add	x1, x1, #0x5c8
   11e7c:	f9002fa2 	str	x2, [x29, #88]
   11e80:	97ffd57c 	bl	7470 <_ZN9__gnu_cxx27__verbose_terminate_handlerEv@@Base+0xad0>
   11e84:	f9402fa2 	ldr	x2, [x29, #88]
   11e88:	aa1303e0 	mov	x0, x19
   11e8c:	b9401041 	ldr	w1, [x2, #16]
   11e90:	11000421 	add	w1, w1, #0x1
   11e94:	93407c21 	sxtw	x1, w1
   11e98:	97ffd5f8 	bl	7678 <_ZN9__gnu_cxx27__verbose_terminate_handlerEv@@Base+0xcd8>
   11e9c:	f0000021 	adrp	x1, 18000 <_ZTSN10__cxxabiv117__class_type_infoE@@Base>
   11ea0:	aa1303e0 	mov	x0, x19
   11ea4:	91176021 	add	x1, x1, #0x5d8
   11ea8:	97ffd572 	bl	7470 <_ZN9__gnu_cxx27__verbose_terminate_handlerEv@@Base+0xad0>
   11eac:	f9402fa2 	ldr	x2, [x29, #88]
   11eb0:	f9400442 	ldr	x2, [x2, #8]
   11eb4:	17fff575 	b	f488 <_ZN9__gnu_cxx27__verbose_terminate_handlerEv@@Base+0x8ae8>
   11eb8:	f9408e62 	ldr	x2, [x19, #280]
   11ebc:	aa1303e0 	mov	x0, x19
   11ec0:	f9408a63 	ldr	x3, [x19, #272]
   11ec4:	3903fe7f 	strb	wzr, [x19, #255]
   11ec8:	d63f0060 	blr	x3
   11ecc:	f9409e62 	ldr	x2, [x19, #312]
   11ed0:	d2800020 	mov	x0, #0x1                   	// #1
   11ed4:	d2800001 	mov	x1, #0x0                   	// #0
   11ed8:	8b000042 	add	x2, x2, x0
   11edc:	f9009e62 	str	x2, [x19, #312]
   11ee0:	17fff967 	b	1047c <_ZN9__gnu_cxx27__verbose_terminate_handlerEv@@Base+0x9adc>
   11ee4:	f9408e62 	ldr	x2, [x19, #280]
   11ee8:	aa1303e0 	mov	x0, x19
   11eec:	f9408a63 	ldr	x3, [x19, #272]
   11ef0:	3903fe7f 	strb	wzr, [x19, #255]
   11ef4:	d63f0060 	blr	x3
   11ef8:	f9409e62 	ldr	x2, [x19, #312]
   11efc:	d2800020 	mov	x0, #0x1                   	// #1
   11f00:	d2800001 	mov	x1, #0x0                   	// #0
   11f04:	8b000042 	add	x2, x2, x0
   11f08:	f9009e62 	str	x2, [x19, #312]
   11f0c:	17fff7da 	b	fe74 <_ZN9__gnu_cxx27__verbose_terminate_handlerEv@@Base+0x94d4>
   11f10:	f9408e62 	ldr	x2, [x19, #280]
   11f14:	aa1303e0 	mov	x0, x19
   11f18:	f9408a63 	ldr	x3, [x19, #272]
   11f1c:	3903fe7f 	strb	wzr, [x19, #255]
   11f20:	d63f0060 	blr	x3
   11f24:	f9409e62 	ldr	x2, [x19, #312]
   11f28:	d2800020 	mov	x0, #0x1                   	// #1
   11f2c:	d2800001 	mov	x1, #0x0                   	// #0
   11f30:	8b000042 	add	x2, x2, x0
   11f34:	f9009e62 	str	x2, [x19, #312]
   11f38:	17fff7c3 	b	fe44 <_ZN9__gnu_cxx27__verbose_terminate_handlerEv@@Base+0x94a4>
   11f3c:	f9409664 	ldr	x4, [x19, #296]
   11f40:	9101c3a0 	add	x0, x29, #0x70
   11f44:	f9009660 	str	x0, [x19, #296]
   11f48:	2a1603e1 	mov	w1, w22
   11f4c:	f9409263 	ldr	x3, [x19, #288]
   11f50:	aa1303e0 	mov	x0, x19
   11f54:	f9400682 	ldr	x2, [x20, #8]
   11f58:	f9003ba4 	str	x4, [x29, #112]
   11f5c:	f9003fb4 	str	x20, [x29, #120]
   11f60:	b90083bf 	str	wzr, [x29, #128]
   11f64:	f90047a3 	str	x3, [x29, #136]
   11f68:	97fff4ec 	bl	f318 <_ZN9__gnu_cxx27__verbose_terminate_handlerEv@@Base+0x8978>
   11f6c:	f9403ba0 	ldr	x0, [x29, #112]
   11f70:	f9009660 	str	x0, [x19, #296]
   11f74:	b94083a0 	ldr	w0, [x29, #128]
   11f78:	35fe9f20 	cbnz	w0, f35c <_ZN9__gnu_cxx27__verbose_terminate_handlerEv@@Base+0x89bc>
   11f7c:	aa1303e0 	mov	x0, x19
   11f80:	52800401 	mov	w1, #0x20                  	// #32
   11f84:	97ffd47a 	bl	716c <_ZN9__gnu_cxx27__verbose_terminate_handlerEv@@Base+0x7cc>
   11f88:	17fff5a2 	b	f610 <_ZN9__gnu_cxx27__verbose_terminate_handlerEv@@Base+0x8c70>
   11f8c:	aa1303e0 	mov	x0, x19
   11f90:	2a1503e1 	mov	w1, w21
   11f94:	aa1403e2 	mov	x2, x20
   11f98:	97fff4e0 	bl	f318 <_ZN9__gnu_cxx27__verbose_terminate_handlerEv@@Base+0x8978>
   11f9c:	17fff4f0 	b	f35c <_ZN9__gnu_cxx27__verbose_terminate_handlerEv@@Base+0x89bc>
   11fa0:	f9400a81 	ldr	x1, [x20, #16]
   11fa4:	b9400021 	ldr	w1, [x1]
   11fa8:	35fef461 	cbnz	w1, fe34 <_ZN9__gnu_cxx27__verbose_terminate_handlerEv@@Base+0x9494>
   11fac:	7100f41f 	cmp	w0, #0x3d
   11fb0:	54006a80 	b.eq	12d00 <_ZN9__gnu_cxx27__verbose_terminate_handlerEv@@Base+0xc360>  // b.none
   11fb4:	f9400a82 	ldr	x2, [x20, #16]
   11fb8:	aa1303e0 	mov	x0, x19
   11fbc:	2a1503e1 	mov	w1, w21
   11fc0:	51000ad6 	sub	w22, w22, #0x2
   11fc4:	97fff4d5 	bl	f318 <_ZN9__gnu_cxx27__verbose_terminate_handlerEv@@Base+0x8978>
   11fc8:	710012df 	cmp	w22, #0x4
   11fcc:	54fe9c88 	b.hi	f35c <_ZN9__gnu_cxx27__verbose_terminate_handlerEv@@Base+0x89bc>  // b.pmore
   11fd0:	f0000020 	adrp	x0, 18000 <_ZTSN10__cxxabiv117__class_type_infoE@@Base>
   11fd4:	91136000 	add	x0, x0, #0x4d8
   11fd8:	38764800 	ldrb	w0, [x0, w22, uxtw]
   11fdc:	10000061 	adr	x1, 11fe8 <_ZN9__gnu_cxx27__verbose_terminate_handlerEv@@Base+0xb648>
   11fe0:	8b208820 	add	x0, x1, w0, sxtb #2
   11fe4:	d61f0000 	br	x0
   11fe8:	f0000021 	adrp	x1, 18000 <_ZTSN10__cxxabiv117__class_type_infoE@@Base>
   11fec:	aa1303e0 	mov	x0, x19
   11ff0:	911f6021 	add	x1, x1, #0x7d8
   11ff4:	97ffd51f 	bl	7470 <_ZN9__gnu_cxx27__verbose_terminate_handlerEv@@Base+0xad0>
   11ff8:	17fff4d9 	b	f35c <_ZN9__gnu_cxx27__verbose_terminate_handlerEv@@Base+0x89bc>
   11ffc:	f0000021 	adrp	x1, 18000 <_ZTSN10__cxxabiv117__class_type_infoE@@Base>
   12000:	aa1303e0 	mov	x0, x19
   12004:	911f4021 	add	x1, x1, #0x7d0
   12008:	97ffd51a 	bl	7470 <_ZN9__gnu_cxx27__verbose_terminate_handlerEv@@Base+0xad0>
   1200c:	17fff4d4 	b	f35c <_ZN9__gnu_cxx27__verbose_terminate_handlerEv@@Base+0x89bc>
   12010:	aa1303e0 	mov	x0, x19
   12014:	52800d81 	mov	w1, #0x6c                  	// #108
   12018:	97ffd455 	bl	716c <_ZN9__gnu_cxx27__verbose_terminate_handlerEv@@Base+0x7cc>
   1201c:	17fff4d0 	b	f35c <_ZN9__gnu_cxx27__verbose_terminate_handlerEv@@Base+0x89bc>
   12020:	aa1303e0 	mov	x0, x19
   12024:	52800ea1 	mov	w1, #0x75                  	// #117
   12028:	97ffd451 	bl	716c <_ZN9__gnu_cxx27__verbose_terminate_handlerEv@@Base+0x7cc>
   1202c:	17fff4cc 	b	f35c <_ZN9__gnu_cxx27__verbose_terminate_handlerEv@@Base+0x89bc>
   12030:	d0000021 	adrp	x1, 18000 <_ZTSN10__cxxabiv117__class_type_infoE@@Base>
   12034:	aa1303e0 	mov	x0, x19
   12038:	911f8021 	add	x1, x1, #0x7e0
   1203c:	97ffd50d 	bl	7470 <_ZN9__gnu_cxx27__verbose_terminate_handlerEv@@Base+0xad0>
   12040:	17fff4c7 	b	f35c <_ZN9__gnu_cxx27__verbose_terminate_handlerEv@@Base+0x89bc>
   12044:	b9400280 	ldr	w0, [x20]
   12048:	17fffdd8 	b	117a8 <_ZN9__gnu_cxx27__verbose_terminate_handlerEv@@Base+0xae08>
   1204c:	f9408a63 	ldr	x3, [x19, #272]
   12050:	aa1303e0 	mov	x0, x19
   12054:	f9408e62 	ldr	x2, [x19, #280]
   12058:	3903fe7f 	strb	wzr, [x19, #255]
   1205c:	d63f0060 	blr	x3
   12060:	f9409e60 	ldr	x0, [x19, #312]
   12064:	d2800023 	mov	x3, #0x1                   	// #1
   12068:	d2800001 	mov	x1, #0x0                   	// #0
   1206c:	8b030000 	add	x0, x0, x3
   12070:	f9009e60 	str	x0, [x19, #312]
   12074:	17fff9f6 	b	1084c <_ZN9__gnu_cxx27__verbose_terminate_handlerEv@@Base+0x9eac>
   12078:	f9400a82 	ldr	x2, [x20, #16]
   1207c:	aa1303e0 	mov	x0, x19
   12080:	2a1503e1 	mov	w1, w21
   12084:	97fff4a5 	bl	f318 <_ZN9__gnu_cxx27__verbose_terminate_handlerEv@@Base+0x8978>
   12088:	f9009679 	str	x25, [x19, #296]
   1208c:	b94083a0 	ldr	w0, [x29, #128]
   12090:	35fe9660 	cbnz	w0, f35c <_ZN9__gnu_cxx27__verbose_terminate_handlerEv@@Base+0x89bc>
   12094:	aa1903e3 	mov	x3, x25
   12098:	17fff5a2 	b	f720 <_ZN9__gnu_cxx27__verbose_terminate_handlerEv@@Base+0x8d80>
   1209c:	f9400442 	ldr	x2, [x2, #8]
   120a0:	f9409661 	ldr	x1, [x19, #296]
   120a4:	f9409260 	ldr	x0, [x19, #288]
   120a8:	f9003ba1 	str	x1, [x29, #112]
   120ac:	9101c3a1 	add	x1, x29, #0x70
   120b0:	f9003fb4 	str	x20, [x29, #120]
   120b4:	f9009661 	str	x1, [x19, #296]
   120b8:	b90083bf 	str	wzr, [x29, #128]
   120bc:	f90047a0 	str	x0, [x29, #136]
   120c0:	b5fedba2 	cbnz	x2, fc34 <_ZN9__gnu_cxx27__verbose_terminate_handlerEv@@Base+0x9294>
   120c4:	17fff6db 	b	fc30 <_ZN9__gnu_cxx27__verbose_terminate_handlerEv@@Base+0x9290>
   120c8:	aa1303e0 	mov	x0, x19
   120cc:	52800401 	mov	w1, #0x20                  	// #32
   120d0:	97ffd427 	bl	716c <_ZN9__gnu_cxx27__verbose_terminate_handlerEv@@Base+0x7cc>
   120d4:	17fff711 	b	fd18 <_ZN9__gnu_cxx27__verbose_terminate_handlerEv@@Base+0x9378>
   120d8:	aa1303e0 	mov	x0, x19
   120dc:	52800401 	mov	w1, #0x20                  	// #32
   120e0:	97ffd423 	bl	716c <_ZN9__gnu_cxx27__verbose_terminate_handlerEv@@Base+0x7cc>
   120e4:	17fff6fe 	b	fcdc <_ZN9__gnu_cxx27__verbose_terminate_handlerEv@@Base+0x933c>
   120e8:	aa1303e0 	mov	x0, x19
   120ec:	52800b61 	mov	w1, #0x5b                  	// #91
   120f0:	97ffd41f 	bl	716c <_ZN9__gnu_cxx27__verbose_terminate_handlerEv@@Base+0x7cc>
   120f4:	f9400a82 	ldr	x2, [x20, #16]
   120f8:	aa1303e0 	mov	x0, x19
   120fc:	2a1503e1 	mov	w1, w21
   12100:	97fff486 	bl	f318 <_ZN9__gnu_cxx27__verbose_terminate_handlerEv@@Base+0x8978>
   12104:	aa1303e0 	mov	x0, x19
   12108:	52800ba1 	mov	w1, #0x5d                  	// #93
   1210c:	97ffd418 	bl	716c <_ZN9__gnu_cxx27__verbose_terminate_handlerEv@@Base+0x7cc>
   12110:	17fff493 	b	f35c <_ZN9__gnu_cxx27__verbose_terminate_handlerEv@@Base+0x89bc>
   12114:	aa1303e0 	mov	x0, x19
   12118:	528005a1 	mov	w1, #0x2d                  	// #45
   1211c:	97ffd414 	bl	716c <_ZN9__gnu_cxx27__verbose_terminate_handlerEv@@Base+0x7cc>
   12120:	17fff75c 	b	fe90 <_ZN9__gnu_cxx27__verbose_terminate_handlerEv@@Base+0x94f0>
   12124:	121976b6 	and	w22, w21, #0xffffff9f
   12128:	17fff53a 	b	f610 <_ZN9__gnu_cxx27__verbose_terminate_handlerEv@@Base+0x8c70>
   1212c:	39400004 	ldrb	w4, [x0]
   12130:	5101c885 	sub	w5, w4, #0x72
   12134:	53001ca5 	uxtb	w5, w5
   12138:	710004bf 	cmp	w5, #0x1
   1213c:	540000a9 	b.ls	12150 <_ZN9__gnu_cxx27__verbose_terminate_handlerEv@@Base+0xb7b0>  // b.plast
   12140:	51018c84 	sub	w4, w4, #0x63
   12144:	53001c84 	uxtb	w4, w4
   12148:	7100049f 	cmp	w4, #0x1
   1214c:	54ff4ea8 	b.hi	10b20 <_ZN9__gnu_cxx27__verbose_terminate_handlerEv@@Base+0xa180>  // b.pmore
   12150:	2a1503e1 	mov	w1, w21
   12154:	aa1303e0 	mov	x0, x19
   12158:	94000736 	bl	13e30 <_ZN9__gnu_cxx27__verbose_terminate_handlerEv@@Base+0xd490>
   1215c:	aa1303e0 	mov	x0, x19
   12160:	52800781 	mov	w1, #0x3c                  	// #60
   12164:	97ffd402 	bl	716c <_ZN9__gnu_cxx27__verbose_terminate_handlerEv@@Base+0x7cc>
   12168:	f9400a82 	ldr	x2, [x20, #16]
   1216c:	aa1303e0 	mov	x0, x19
   12170:	2a1503e1 	mov	w1, w21
   12174:	f9400442 	ldr	x2, [x2, #8]
   12178:	97fff468 	bl	f318 <_ZN9__gnu_cxx27__verbose_terminate_handlerEv@@Base+0x8978>
   1217c:	d0000021 	adrp	x1, 18000 <_ZTSN10__cxxabiv117__class_type_infoE@@Base>
   12180:	aa1303e0 	mov	x0, x19
   12184:	91224021 	add	x1, x1, #0x890
   12188:	97ffd4ba 	bl	7470 <_ZN9__gnu_cxx27__verbose_terminate_handlerEv@@Base+0xad0>
   1218c:	f9400a82 	ldr	x2, [x20, #16]
   12190:	2a1503e1 	mov	w1, w21
   12194:	aa1303e0 	mov	x0, x19
   12198:	f9400842 	ldr	x2, [x2, #16]
   1219c:	97fff45f 	bl	f318 <_ZN9__gnu_cxx27__verbose_terminate_handlerEv@@Base+0x8978>
   121a0:	aa1303e0 	mov	x0, x19
   121a4:	52800521 	mov	w1, #0x29                  	// #41
   121a8:	97ffd3f1 	bl	716c <_ZN9__gnu_cxx27__verbose_terminate_handlerEv@@Base+0x7cc>
   121ac:	17fff46c 	b	f35c <_ZN9__gnu_cxx27__verbose_terminate_handlerEv@@Base+0x89bc>
   121b0:	f9408a63 	ldr	x3, [x19, #272]
   121b4:	aa1303e0 	mov	x0, x19
   121b8:	f9408e62 	ldr	x2, [x19, #280]
   121bc:	52800475 	mov	w21, #0x23                  	// #35
   121c0:	3903fe7f 	strb	wzr, [x19, #255]
   121c4:	d63f0060 	blr	x3
   121c8:	39000276 	strb	w22, [x19]
   121cc:	f9409e61 	ldr	x1, [x19, #312]
   121d0:	d2800020 	mov	x0, #0x1                   	// #1
   121d4:	8b000021 	add	x1, x1, x0
   121d8:	f9009e61 	str	x1, [x19, #312]
   121dc:	17fffca1 	b	11460 <_ZN9__gnu_cxx27__verbose_terminate_handlerEv@@Base+0xaac0>
   121e0:	f9408a64 	ldr	x4, [x19, #272]
   121e4:	aa1303e0 	mov	x0, x19
   121e8:	f9408e62 	ldr	x2, [x19, #280]
   121ec:	aa0303e1 	mov	x1, x3
   121f0:	3903fe7f 	strb	wzr, [x19, #255]
   121f4:	52800475 	mov	w21, #0x23                  	// #35
   121f8:	d63f0080 	blr	x4
   121fc:	39000276 	strb	w22, [x19]
   12200:	f9409e61 	ldr	x1, [x19, #312]
   12204:	d2800040 	mov	x0, #0x2                   	// #2
   12208:	91000421 	add	x1, x1, #0x1
   1220c:	f9009e61 	str	x1, [x19, #312]
   12210:	52800da1 	mov	w1, #0x6d                  	// #109
   12214:	39000661 	strb	w1, [x19, #1]
   12218:	17fffc92 	b	11460 <_ZN9__gnu_cxx27__verbose_terminate_handlerEv@@Base+0xaac0>
   1221c:	f9408a63 	ldr	x3, [x19, #272]
   12220:	aa1303e0 	mov	x0, x19
   12224:	f9408e62 	ldr	x2, [x19, #280]
   12228:	52800db6 	mov	w22, #0x6d                  	// #109
   1222c:	3903fe7f 	strb	wzr, [x19, #255]
   12230:	d63f0060 	blr	x3
   12234:	39000275 	strb	w21, [x19]
   12238:	f9409e60 	ldr	x0, [x19, #312]
   1223c:	d2800041 	mov	x1, #0x2                   	// #2
   12240:	91000400 	add	x0, x0, #0x1
   12244:	f9009e60 	str	x0, [x19, #312]
   12248:	52800e40 	mov	w0, #0x72                  	// #114
   1224c:	39000660 	strb	w0, [x19, #1]
   12250:	17fffc7d 	b	11444 <_ZN9__gnu_cxx27__verbose_terminate_handlerEv@@Base+0xaaa4>
   12254:	f9408a64 	ldr	x4, [x19, #272]
   12258:	aa1303e0 	mov	x0, x19
   1225c:	f9408e62 	ldr	x2, [x19, #280]
   12260:	aa0303e1 	mov	x1, x3
   12264:	3903fe7f 	strb	wzr, [x19, #255]
   12268:	52800e56 	mov	w22, #0x72                  	// #114
   1226c:	d63f0080 	blr	x4
   12270:	39000275 	strb	w21, [x19]
   12274:	f9409e60 	ldr	x0, [x19, #312]
   12278:	d2800043 	mov	x3, #0x2                   	// #2
   1227c:	91000400 	add	x0, x0, #0x1
   12280:	f9009e60 	str	x0, [x19, #312]
   12284:	52800c20 	mov	w0, #0x61                  	// #97
   12288:	39000660 	strb	w0, [x19, #1]
   1228c:	17fffc67 	b	11428 <_ZN9__gnu_cxx27__verbose_terminate_handlerEv@@Base+0xaa88>
   12290:	f9408a63 	ldr	x3, [x19, #272]
   12294:	aa1303e0 	mov	x0, x19
   12298:	f9408e62 	ldr	x2, [x19, #280]
   1229c:	52800c35 	mov	w21, #0x61                  	// #97
   122a0:	3903fe7f 	strb	wzr, [x19, #255]
   122a4:	d63f0060 	blr	x3
   122a8:	f9409e60 	ldr	x0, [x19, #312]
   122ac:	52800f61 	mov	w1, #0x7b                  	// #123
   122b0:	39000261 	strb	w1, [x19]
   122b4:	d2800041 	mov	x1, #0x2                   	// #2
   122b8:	91000400 	add	x0, x0, #0x1
   122bc:	f9009e60 	str	x0, [x19, #312]
   122c0:	52800e00 	mov	w0, #0x70                  	// #112
   122c4:	39000660 	strb	w0, [x19, #1]
   122c8:	17fffc51 	b	1140c <_ZN9__gnu_cxx27__verbose_terminate_handlerEv@@Base+0xaa6c>
   122cc:	f9408a63 	ldr	x3, [x19, #272]
   122d0:	aa1303e0 	mov	x0, x19
   122d4:	f9408e62 	ldr	x2, [x19, #280]
   122d8:	52800d35 	mov	w21, #0x69                  	// #105
   122dc:	3903fe7f 	strb	wzr, [x19, #255]
   122e0:	d63f0060 	blr	x3
   122e4:	f9409e60 	ldr	x0, [x19, #312]
   122e8:	52800e81 	mov	w1, #0x74                  	// #116
   122ec:	39000261 	strb	w1, [x19]
   122f0:	d2800041 	mov	x1, #0x2                   	// #2
   122f4:	91000400 	add	x0, x0, #0x1
   122f8:	f9009e60 	str	x0, [x19, #312]
   122fc:	52800d00 	mov	w0, #0x68                  	// #104
   12300:	39000660 	strb	w0, [x19, #1]
   12304:	17fff6a4 	b	fd94 <_ZN9__gnu_cxx27__verbose_terminate_handlerEv@@Base+0x93f4>
   12308:	f9408a63 	ldr	x3, [x19, #272]
   1230c:	aa1303e0 	mov	x0, x19
   12310:	f9408e62 	ldr	x2, [x19, #280]
   12314:	52800e74 	mov	w20, #0x73                  	// #115
   12318:	3903fe7f 	strb	wzr, [x19, #255]
   1231c:	d63f0060 	blr	x3
   12320:	39000275 	strb	w21, [x19]
   12324:	f9409e61 	ldr	x1, [x19, #312]
   12328:	d2800020 	mov	x0, #0x1                   	// #1
   1232c:	8b000021 	add	x1, x1, x0
   12330:	f9009e61 	str	x1, [x19, #312]
   12334:	17fff69f 	b	fdb0 <_ZN9__gnu_cxx27__verbose_terminate_handlerEv@@Base+0x9410>
   12338:	f9408a64 	ldr	x4, [x19, #272]
   1233c:	aa1303e0 	mov	x0, x19
   12340:	f9408e62 	ldr	x2, [x19, #280]
   12344:	aa0303e1 	mov	x1, x3
   12348:	3903fe7f 	strb	wzr, [x19, #255]
   1234c:	52800e74 	mov	w20, #0x73                  	// #115
   12350:	d63f0080 	blr	x4
   12354:	39000275 	strb	w21, [x19]
   12358:	f9409e61 	ldr	x1, [x19, #312]
   1235c:	d2800040 	mov	x0, #0x2                   	// #2
   12360:	91000421 	add	x1, x1, #0x1
   12364:	f9009e61 	str	x1, [x19, #312]
   12368:	52800d21 	mov	w1, #0x69                  	// #105
   1236c:	39000661 	strb	w1, [x19, #1]
   12370:	17fff690 	b	fdb0 <_ZN9__gnu_cxx27__verbose_terminate_handlerEv@@Base+0x9410>
   12374:	f9408e62 	ldr	x2, [x19, #280]
   12378:	aa1303e0 	mov	x0, x19
   1237c:	f9408a63 	ldr	x3, [x19, #272]
   12380:	3903fe7f 	strb	wzr, [x19, #255]
   12384:	d63f0060 	blr	x3
   12388:	f9409e62 	ldr	x2, [x19, #312]
   1238c:	d2800020 	mov	x0, #0x1                   	// #1
   12390:	d2800001 	mov	x1, #0x0                   	// #0
   12394:	8b000042 	add	x2, x2, x0
   12398:	f9009e62 	str	x2, [x19, #312]
   1239c:	17fffc6e 	b	11554 <_ZN9__gnu_cxx27__verbose_terminate_handlerEv@@Base+0xabb4>
   123a0:	f9408a64 	ldr	x4, [x19, #272]
   123a4:	aa1303e0 	mov	x0, x19
   123a8:	f9408e62 	ldr	x2, [x19, #280]
   123ac:	aa0303e1 	mov	x1, x3
   123b0:	3903fe7f 	strb	wzr, [x19, #255]
   123b4:	52800e54 	mov	w20, #0x72                  	// #114
   123b8:	d63f0080 	blr	x4
   123bc:	f9409e60 	ldr	x0, [x19, #312]
   123c0:	52800be1 	mov	w1, #0x5f                  	// #95
   123c4:	d2800044 	mov	x4, #0x2                   	// #2
   123c8:	39000261 	strb	w1, [x19]
   123cc:	91000400 	add	x0, x0, #0x1
   123d0:	f9009e60 	str	x0, [x19, #312]
   123d4:	528008c0 	mov	w0, #0x46                  	// #70
   123d8:	39000660 	strb	w0, [x19, #1]
   123dc:	17fffbd6 	b	11334 <_ZN9__gnu_cxx27__verbose_terminate_handlerEv@@Base+0xa994>
   123e0:	d0000021 	adrp	x1, 18000 <_ZTSN10__cxxabiv117__class_type_infoE@@Base>
   123e4:	f94006c0 	ldr	x0, [x22, #8]
   123e8:	91178021 	add	x1, x1, #0x5e0
   123ec:	d28000c2 	mov	x2, #0x6                   	// #6
   123f0:	97ffc9b0 	bl	4ab0 <strncmp@plt>
   123f4:	35fec660 	cbnz	w0, fcc0 <_ZN9__gnu_cxx27__verbose_terminate_handlerEv@@Base+0x9320>
   123f8:	f9400a82 	ldr	x2, [x20, #16]
   123fc:	aa1303e0 	mov	x0, x19
   12400:	2a1503e1 	mov	w1, w21
   12404:	97fff3c5 	bl	f318 <_ZN9__gnu_cxx27__verbose_terminate_handlerEv@@Base+0x8978>
   12408:	d0000021 	adrp	x1, 18000 <_ZTSN10__cxxabiv117__class_type_infoE@@Base>
   1240c:	aa1303e0 	mov	x0, x19
   12410:	9117a021 	add	x1, x1, #0x5e8
   12414:	97ffd417 	bl	7470 <_ZN9__gnu_cxx27__verbose_terminate_handlerEv@@Base+0xad0>
   12418:	17fff648 	b	fd38 <_ZN9__gnu_cxx27__verbose_terminate_handlerEv@@Base+0x9398>
   1241c:	f9408a63 	ldr	x3, [x19, #272]
   12420:	aa1303e0 	mov	x0, x19
   12424:	f9408e62 	ldr	x2, [x19, #280]
   12428:	52800db4 	mov	w20, #0x6d                  	// #109
   1242c:	3903fe7f 	strb	wzr, [x19, #255]
   12430:	d63f0060 	blr	x3
   12434:	39000275 	strb	w21, [x19]
   12438:	f9409e61 	ldr	x1, [x19, #312]
   1243c:	d2800020 	mov	x0, #0x1                   	// #1
   12440:	8b000021 	add	x1, x1, x0
   12444:	f9009e61 	str	x1, [x19, #312]
   12448:	17fff92d 	b	108fc <_ZN9__gnu_cxx27__verbose_terminate_handlerEv@@Base+0x9f5c>
   1244c:	f9408e62 	ldr	x2, [x19, #280]
   12450:	aa1303e0 	mov	x0, x19
   12454:	f9408a63 	ldr	x3, [x19, #272]
   12458:	52800756 	mov	w22, #0x3a                  	// #58
   1245c:	3903fe7f 	strb	wzr, [x19, #255]
   12460:	d63f0060 	blr	x3
   12464:	f9409e61 	ldr	x1, [x19, #312]
   12468:	d2800020 	mov	x0, #0x1                   	// #1
   1246c:	52800742 	mov	w2, #0x3a                  	// #58
   12470:	39000262 	strb	w2, [x19]
   12474:	8b000021 	add	x1, x1, x0
   12478:	f9009e61 	str	x1, [x19, #312]
   1247c:	17fff3fb 	b	f468 <_ZN9__gnu_cxx27__verbose_terminate_handlerEv@@Base+0x8ac8>
   12480:	f9408e62 	ldr	x2, [x19, #280]
   12484:	aa1303e0 	mov	x0, x19
   12488:	f9408a63 	ldr	x3, [x19, #272]
   1248c:	3903fe7f 	strb	wzr, [x19, #255]
   12490:	d63f0060 	blr	x3
   12494:	f9409e62 	ldr	x2, [x19, #312]
   12498:	d2800020 	mov	x0, #0x1                   	// #1
   1249c:	d2800001 	mov	x1, #0x0                   	// #0
   124a0:	8b000042 	add	x2, x2, x0
   124a4:	f9009e62 	str	x2, [x19, #312]
   124a8:	17fffc24 	b	11538 <_ZN9__gnu_cxx27__verbose_terminate_handlerEv@@Base+0xab98>
   124ac:	f9408a64 	ldr	x4, [x19, #272]
   124b0:	aa1303e0 	mov	x0, x19
   124b4:	f9408e62 	ldr	x2, [x19, #280]
   124b8:	aa0303e1 	mov	x1, x3
   124bc:	3903fe7f 	strb	wzr, [x19, #255]
   124c0:	52800db4 	mov	w20, #0x6d                  	// #109
   124c4:	d63f0080 	blr	x4
   124c8:	39000275 	strb	w21, [x19]
   124cc:	f9409e61 	ldr	x1, [x19, #312]
   124d0:	d2800040 	mov	x0, #0x2                   	// #2
   124d4:	91000421 	add	x1, x1, #0x1
   124d8:	f9009e61 	str	x1, [x19, #312]
   124dc:	52800ea1 	mov	w1, #0x75                  	// #117
   124e0:	39000661 	strb	w1, [x19, #1]
   124e4:	17fff906 	b	108fc <_ZN9__gnu_cxx27__verbose_terminate_handlerEv@@Base+0x9f5c>
   124e8:	f9408a63 	ldr	x3, [x19, #272]
   124ec:	aa1303e0 	mov	x0, x19
   124f0:	f9408e62 	ldr	x2, [x19, #280]
   124f4:	aa0403e1 	mov	x1, x4
   124f8:	3903fe7f 	strb	wzr, [x19, #255]
   124fc:	52800eb5 	mov	w21, #0x75                  	// #117
   12500:	d63f0060 	blr	x3
   12504:	39000274 	strb	w20, [x19]
   12508:	f9409e60 	ldr	x0, [x19, #312]
   1250c:	d2800041 	mov	x1, #0x2                   	// #2
   12510:	39000674 	strb	w20, [x19, #1]
   12514:	91000400 	add	x0, x0, #0x1
   12518:	f9009e60 	str	x0, [x19, #312]
   1251c:	17fff8f1 	b	108e0 <_ZN9__gnu_cxx27__verbose_terminate_handlerEv@@Base+0x9f40>
   12520:	f9408a63 	ldr	x3, [x19, #272]
   12524:	aa1303e0 	mov	x0, x19
   12528:	f9408e62 	ldr	x2, [x19, #280]
   1252c:	52800c75 	mov	w21, #0x63                  	// #99
   12530:	3903fe7f 	strb	wzr, [x19, #255]
   12534:	d63f0060 	blr	x3
   12538:	39000274 	strb	w20, [x19]
   1253c:	f9409e60 	ldr	x0, [x19, #312]
   12540:	d2800043 	mov	x3, #0x2                   	// #2
   12544:	91000400 	add	x0, x0, #0x1
   12548:	f9009e60 	str	x0, [x19, #312]
   1254c:	52800c60 	mov	w0, #0x63                  	// #99
   12550:	39000660 	strb	w0, [x19, #1]
   12554:	17fff8dc 	b	108c4 <_ZN9__gnu_cxx27__verbose_terminate_handlerEv@@Base+0x9f24>
   12558:	f9408a64 	ldr	x4, [x19, #272]
   1255c:	aa1303e0 	mov	x0, x19
   12560:	f9408e62 	ldr	x2, [x19, #280]
   12564:	aa0303e1 	mov	x1, x3
   12568:	3903fe7f 	strb	wzr, [x19, #255]
   1256c:	52800c74 	mov	w20, #0x63                  	// #99
   12570:	d63f0080 	blr	x4
   12574:	f9409e60 	ldr	x0, [x19, #312]
   12578:	52800be1 	mov	w1, #0x5f                  	// #95
   1257c:	d2800044 	mov	x4, #0x2                   	// #2
   12580:	39000261 	strb	w1, [x19]
   12584:	91000400 	add	x0, x0, #0x1
   12588:	f9009e60 	str	x0, [x19, #312]
   1258c:	52800820 	mov	w0, #0x41                  	// #65
   12590:	39000660 	strb	w0, [x19, #1]
   12594:	17fff8c5 	b	108a8 <_ZN9__gnu_cxx27__verbose_terminate_handlerEv@@Base+0x9f08>
   12598:	f9408a63 	ldr	x3, [x19, #272]
   1259c:	aa1303e0 	mov	x0, x19
   125a0:	f9408e62 	ldr	x2, [x19, #280]
   125a4:	52800e94 	mov	w20, #0x74                  	// #116
   125a8:	3903fe7f 	strb	wzr, [x19, #255]
   125ac:	d63f0060 	blr	x3
   125b0:	39000275 	strb	w21, [x19]
   125b4:	f9409e61 	ldr	x1, [x19, #312]
   125b8:	d2800020 	mov	x0, #0x1                   	// #1
   125bc:	8b000021 	add	x1, x1, x0
   125c0:	f9009e61 	str	x1, [x19, #312]
   125c4:	17fffb71 	b	11388 <_ZN9__gnu_cxx27__verbose_terminate_handlerEv@@Base+0xa9e8>
   125c8:	f9408a64 	ldr	x4, [x19, #272]
   125cc:	aa1303e0 	mov	x0, x19
   125d0:	f9408e62 	ldr	x2, [x19, #280]
   125d4:	aa0303e1 	mov	x1, x3
   125d8:	3903fe7f 	strb	wzr, [x19, #255]
   125dc:	52800e94 	mov	w20, #0x74                  	// #116
   125e0:	d63f0080 	blr	x4
   125e4:	39000275 	strb	w21, [x19]
   125e8:	f9409e61 	ldr	x1, [x19, #312]
   125ec:	d2800040 	mov	x0, #0x2                   	// #2
   125f0:	91000421 	add	x1, x1, #0x1
   125f4:	f9009e61 	str	x1, [x19, #312]
   125f8:	52800c61 	mov	w1, #0x63                  	// #99
   125fc:	39000661 	strb	w1, [x19, #1]
   12600:	17fffb62 	b	11388 <_ZN9__gnu_cxx27__verbose_terminate_handlerEv@@Base+0xa9e8>
   12604:	f9408a63 	ldr	x3, [x19, #272]
   12608:	aa1303e0 	mov	x0, x19
   1260c:	f9408e62 	ldr	x2, [x19, #280]
   12610:	aa0403e1 	mov	x1, x4
   12614:	3903fe7f 	strb	wzr, [x19, #255]
   12618:	52800c75 	mov	w21, #0x63                  	// #99
   1261c:	d63f0060 	blr	x3
   12620:	39000274 	strb	w20, [x19]
   12624:	f9409e60 	ldr	x0, [x19, #312]
   12628:	d2800041 	mov	x1, #0x2                   	// #2
   1262c:	91000400 	add	x0, x0, #0x1
   12630:	f9009e60 	str	x0, [x19, #312]
   12634:	52800c20 	mov	w0, #0x61                  	// #97
   12638:	39000660 	strb	w0, [x19, #1]
   1263c:	17fffb4c 	b	1136c <_ZN9__gnu_cxx27__verbose_terminate_handlerEv@@Base+0xa9cc>
   12640:	f9408a63 	ldr	x3, [x19, #272]
   12644:	aa1303e0 	mov	x0, x19
   12648:	f9408e62 	ldr	x2, [x19, #280]
   1264c:	52800c35 	mov	w21, #0x61                  	// #97
   12650:	3903fe7f 	strb	wzr, [x19, #255]
   12654:	d63f0060 	blr	x3
   12658:	39000274 	strb	w20, [x19]
   1265c:	f9409e60 	ldr	x0, [x19, #312]
   12660:	d2800043 	mov	x3, #0x2                   	// #2
   12664:	91000400 	add	x0, x0, #0x1
   12668:	f9009e60 	str	x0, [x19, #312]
   1266c:	52800e40 	mov	w0, #0x72                  	// #114
   12670:	39000660 	strb	w0, [x19, #1]
   12674:	17fffb37 	b	11350 <_ZN9__gnu_cxx27__verbose_terminate_handlerEv@@Base+0xa9b0>
   12678:	aa1303e0 	mov	x0, x19
   1267c:	52800b61 	mov	w1, #0x5b                  	// #91
   12680:	97ffd2bb 	bl	716c <_ZN9__gnu_cxx27__verbose_terminate_handlerEv@@Base+0x7cc>
   12684:	f9400a82 	ldr	x2, [x20, #16]
   12688:	2a1503e1 	mov	w1, w21
   1268c:	aa1303e0 	mov	x0, x19
   12690:	f9400842 	ldr	x2, [x2, #16]
   12694:	97fff321 	bl	f318 <_ZN9__gnu_cxx27__verbose_terminate_handlerEv@@Base+0x8978>
   12698:	aa1303e0 	mov	x0, x19
   1269c:	52800ba1 	mov	w1, #0x5d                  	// #93
   126a0:	97ffd2b3 	bl	716c <_ZN9__gnu_cxx27__verbose_terminate_handlerEv@@Base+0x7cc>
   126a4:	17fff93f 	b	10ba0 <_ZN9__gnu_cxx27__verbose_terminate_handlerEv@@Base+0xa200>
   126a8:	aa1303e0 	mov	x0, x19
   126ac:	2a1503e1 	mov	w1, w21
   126b0:	aa1603e2 	mov	x2, x22
   126b4:	940005df 	bl	13e30 <_ZN9__gnu_cxx27__verbose_terminate_handlerEv@@Base+0xd490>
   126b8:	17fff935 	b	10b8c <_ZN9__gnu_cxx27__verbose_terminate_handlerEv@@Base+0xa1ec>
   126bc:	aa1303e0 	mov	x0, x19
   126c0:	2a1503e1 	mov	w1, w21
   126c4:	94000610 	bl	13f04 <_ZN9__gnu_cxx27__verbose_terminate_handlerEv@@Base+0xd564>
   126c8:	aa1303e0 	mov	x0, x19
   126cc:	2a1503e1 	mov	w1, w21
   126d0:	aa1703e2 	mov	x2, x23
   126d4:	940005d7 	bl	13e30 <_ZN9__gnu_cxx27__verbose_terminate_handlerEv@@Base+0xd490>
   126d8:	aa1603e2 	mov	x2, x22
   126dc:	aa1303e0 	mov	x0, x19
   126e0:	2a1503e1 	mov	w1, w21
   126e4:	94000608 	bl	13f04 <_ZN9__gnu_cxx27__verbose_terminate_handlerEv@@Base+0xd564>
   126e8:	d0000021 	adrp	x1, 18000 <_ZTSN10__cxxabiv117__class_type_infoE@@Base>
   126ec:	aa1303e0 	mov	x0, x19
   126f0:	911f0021 	add	x1, x1, #0x7c0
   126f4:	97ffd35f 	bl	7470 <_ZN9__gnu_cxx27__verbose_terminate_handlerEv@@Base+0xad0>
   126f8:	aa1303e0 	mov	x0, x19
   126fc:	2a1503e1 	mov	w1, w21
   12700:	aa1403e2 	mov	x2, x20
   12704:	94000600 	bl	13f04 <_ZN9__gnu_cxx27__verbose_terminate_handlerEv@@Base+0xd564>
   12708:	17fff315 	b	f35c <_ZN9__gnu_cxx27__verbose_terminate_handlerEv@@Base+0x89bc>
   1270c:	f9400840 	ldr	x0, [x2, #16]
   12710:	b9400000 	ldr	w0, [x0]
   12714:	7100a41f 	cmp	w0, #0x29
   12718:	54000060 	b.eq	12724 <_ZN9__gnu_cxx27__verbose_terminate_handlerEv@@Base+0xbd84>  // b.none
   1271c:	52800020 	mov	w0, #0x1                   	// #1
   12720:	b9013260 	str	w0, [x19, #304]
   12724:	f9400442 	ldr	x2, [x2, #8]
   12728:	aa1303e0 	mov	x0, x19
   1272c:	2a1503e1 	mov	w1, w21
   12730:	940005f5 	bl	13f04 <_ZN9__gnu_cxx27__verbose_terminate_handlerEv@@Base+0xd564>
   12734:	17fff90a 	b	10b5c <_ZN9__gnu_cxx27__verbose_terminate_handlerEv@@Base+0xa1bc>
   12738:	f9408a63 	ldr	x3, [x19, #272]
   1273c:	aa1303e0 	mov	x0, x19
   12740:	f9408e62 	ldr	x2, [x19, #280]
   12744:	3903fe7f 	strb	wzr, [x19, #255]
   12748:	d63f0060 	blr	x3
   1274c:	f9409e60 	ldr	x0, [x19, #312]
   12750:	d2800001 	mov	x1, #0x0                   	// #0
   12754:	91000400 	add	x0, x0, #0x1
   12758:	f9009e60 	str	x0, [x19, #312]
   1275c:	17fffb96 	b	115b4 <_ZN9__gnu_cxx27__verbose_terminate_handlerEv@@Base+0xac14>
   12760:	f9408a63 	ldr	x3, [x19, #272]
   12764:	aa1303e0 	mov	x0, x19
   12768:	f9408e62 	ldr	x2, [x19, #280]
   1276c:	3903fe7f 	strb	wzr, [x19, #255]
   12770:	d63f0060 	blr	x3
   12774:	f9409e60 	ldr	x0, [x19, #312]
   12778:	d2800001 	mov	x1, #0x0                   	// #0
   1277c:	91000400 	add	x0, x0, #0x1
   12780:	f9009e60 	str	x0, [x19, #312]
   12784:	17fffc50 	b	118c4 <_ZN9__gnu_cxx27__verbose_terminate_handlerEv@@Base+0xaf24>
   12788:	f9408a63 	ldr	x3, [x19, #272]
   1278c:	aa1303e0 	mov	x0, x19
   12790:	f9408e62 	ldr	x2, [x19, #280]
   12794:	3903fe7f 	strb	wzr, [x19, #255]
   12798:	d63f0060 	blr	x3
   1279c:	f9409e60 	ldr	x0, [x19, #312]
   127a0:	d2800001 	mov	x1, #0x0                   	// #0
   127a4:	91000400 	add	x0, x0, #0x1
   127a8:	f9009e60 	str	x0, [x19, #312]
   127ac:	17fffc3d 	b	118a0 <_ZN9__gnu_cxx27__verbose_terminate_handlerEv@@Base+0xaf00>
   127b0:	f9408a63 	ldr	x3, [x19, #272]
   127b4:	aa1303e0 	mov	x0, x19
   127b8:	f9408e62 	ldr	x2, [x19, #280]
   127bc:	3903fe7f 	strb	wzr, [x19, #255]
   127c0:	d63f0060 	blr	x3
   127c4:	f9409e60 	ldr	x0, [x19, #312]
   127c8:	d2800001 	mov	x1, #0x0                   	// #0
   127cc:	91000400 	add	x0, x0, #0x1
   127d0:	f9009e60 	str	x0, [x19, #312]
   127d4:	17fffc23 	b	11860 <_ZN9__gnu_cxx27__verbose_terminate_handlerEv@@Base+0xaec0>
   127d8:	f9408a63 	ldr	x3, [x19, #272]
   127dc:	aa1303e0 	mov	x0, x19
   127e0:	f9408e62 	ldr	x2, [x19, #280]
   127e4:	52800c37 	mov	w23, #0x61                  	// #97
   127e8:	3903fe7f 	strb	wzr, [x19, #255]
   127ec:	d63f0060 	blr	x3
   127f0:	f9409e60 	ldr	x0, [x19, #312]
   127f4:	52800be1 	mov	w1, #0x5f                  	// #95
   127f8:	d2800044 	mov	x4, #0x2                   	// #2
   127fc:	39000261 	strb	w1, [x19]
   12800:	91000400 	add	x0, x0, #0x1
   12804:	f9009e60 	str	x0, [x19, #312]
   12808:	52800a60 	mov	w0, #0x53                  	// #83
   1280c:	39000660 	strb	w0, [x19, #1]
   12810:	17fffb82 	b	11618 <_ZN9__gnu_cxx27__verbose_terminate_handlerEv@@Base+0xac78>
   12814:	f9408a63 	ldr	x3, [x19, #272]
   12818:	aa1303e0 	mov	x0, x19
   1281c:	f9408e62 	ldr	x2, [x19, #280]
   12820:	52800416 	mov	w22, #0x20                  	// #32
   12824:	3903fe7f 	strb	wzr, [x19, #255]
   12828:	d63f0060 	blr	x3
   1282c:	39000277 	strb	w23, [x19]
   12830:	f9409e61 	ldr	x1, [x19, #312]
   12834:	d2800020 	mov	x0, #0x1                   	// #1
   12838:	8b000021 	add	x1, x1, x0
   1283c:	f9009e61 	str	x1, [x19, #312]
   12840:	17fffb84 	b	11650 <_ZN9__gnu_cxx27__verbose_terminate_handlerEv@@Base+0xacb0>
   12844:	f9408a63 	ldr	x3, [x19, #272]
   12848:	aa1303e0 	mov	x0, x19
   1284c:	f9408e62 	ldr	x2, [x19, #280]
   12850:	aa0403e1 	mov	x1, x4
   12854:	3903fe7f 	strb	wzr, [x19, #255]
   12858:	52800416 	mov	w22, #0x20                  	// #32
   1285c:	d63f0060 	blr	x3
   12860:	39000277 	strb	w23, [x19]
   12864:	f9409e61 	ldr	x1, [x19, #312]
   12868:	d2800040 	mov	x0, #0x2                   	// #2
   1286c:	91000421 	add	x1, x1, #0x1
   12870:	f9009e61 	str	x1, [x19, #312]
   12874:	52800e81 	mov	w1, #0x74                  	// #116
   12878:	39000661 	strb	w1, [x19, #1]
   1287c:	17fffb75 	b	11650 <_ZN9__gnu_cxx27__verbose_terminate_handlerEv@@Base+0xacb0>
   12880:	f9408a64 	ldr	x4, [x19, #272]
   12884:	aa1303e0 	mov	x0, x19
   12888:	f9408e62 	ldr	x2, [x19, #280]
   1288c:	aa0303e1 	mov	x1, x3
   12890:	3903fe7f 	strb	wzr, [x19, #255]
   12894:	52800e97 	mov	w23, #0x74                  	// #116
   12898:	d63f0080 	blr	x4
   1289c:	39000276 	strb	w22, [x19]
   128a0:	f9409e60 	ldr	x0, [x19, #312]
   128a4:	d2800041 	mov	x1, #0x2                   	// #2
   128a8:	91000400 	add	x0, x0, #0x1
   128ac:	f9009e60 	str	x0, [x19, #312]
   128b0:	52800c20 	mov	w0, #0x61                  	// #97
   128b4:	39000660 	strb	w0, [x19, #1]
   128b8:	17fffb5f 	b	11634 <_ZN9__gnu_cxx27__verbose_terminate_handlerEv@@Base+0xac94>
   128bc:	f9408261 	ldr	x1, [x19, #256]
   128c0:	f103fc3f 	cmp	x1, #0xff
   128c4:	54001a80 	b.eq	12c14 <_ZN9__gnu_cxx27__verbose_terminate_handlerEv@@Base+0xc274>  // b.none
   128c8:	91000420 	add	x0, x1, #0x1
   128cc:	f9008260 	str	x0, [x19, #256]
   128d0:	52800400 	mov	w0, #0x20                  	// #32
   128d4:	38216a60 	strb	w0, [x19, x1]
   128d8:	39042260 	strb	w0, [x19, #264]
   128dc:	17fffbee 	b	11894 <_ZN9__gnu_cxx27__verbose_terminate_handlerEv@@Base+0xaef4>
   128e0:	f9408261 	ldr	x1, [x19, #256]
   128e4:	f103fc3f 	cmp	x1, #0xff
   128e8:	54001ac0 	b.eq	12c40 <_ZN9__gnu_cxx27__verbose_terminate_handlerEv@@Base+0xc2a0>  // b.none
   128ec:	91000420 	add	x0, x1, #0x1
   128f0:	f9008260 	str	x0, [x19, #256]
   128f4:	52800400 	mov	w0, #0x20                  	// #32
   128f8:	38216a60 	strb	w0, [x19, x1]
   128fc:	39042260 	strb	w0, [x19, #264]
   12900:	17fffbd5 	b	11854 <_ZN9__gnu_cxx27__verbose_terminate_handlerEv@@Base+0xaeb4>
   12904:	f9408a63 	ldr	x3, [x19, #272]
   12908:	aa1303e0 	mov	x0, x19
   1290c:	f9408e62 	ldr	x2, [x19, #280]
   12910:	3903fe7f 	strb	wzr, [x19, #255]
   12914:	d63f0060 	blr	x3
   12918:	f9409e60 	ldr	x0, [x19, #312]
   1291c:	d2800001 	mov	x1, #0x0                   	// #0
   12920:	91000400 	add	x0, x0, #0x1
   12924:	f9009e60 	str	x0, [x19, #312]
   12928:	17fffbba 	b	11810 <_ZN9__gnu_cxx27__verbose_terminate_handlerEv@@Base+0xae70>
   1292c:	f9400682 	ldr	x2, [x20, #8]
   12930:	aa1303e0 	mov	x0, x19
   12934:	2a1503e1 	mov	w1, w21
   12938:	94000573 	bl	13f04 <_ZN9__gnu_cxx27__verbose_terminate_handlerEv@@Base+0xd564>
   1293c:	d0000021 	adrp	x1, 18000 <_ZTSN10__cxxabiv117__class_type_infoE@@Base>
   12940:	aa1303e0 	mov	x0, x19
   12944:	91206021 	add	x1, x1, #0x818
   12948:	97ffd2ca 	bl	7470 <_ZN9__gnu_cxx27__verbose_terminate_handlerEv@@Base+0xad0>
   1294c:	17fff284 	b	f35c <_ZN9__gnu_cxx27__verbose_terminate_handlerEv@@Base+0x89bc>
   12950:	f9400680 	ldr	x0, [x20, #8]
   12954:	b9400001 	ldr	w1, [x0]
   12958:	7100043f 	cmp	w1, #0x1
   1295c:	54ff72a1 	b.ne	117b0 <_ZN9__gnu_cxx27__verbose_terminate_handlerEv@@Base+0xae10>  // b.any
   12960:	f9400a81 	ldr	x1, [x20, #16]
   12964:	b9400021 	ldr	w1, [x1]
   12968:	7100a43f 	cmp	w1, #0x29
   1296c:	9a801294 	csel	x20, x20, x0, ne	// ne = any
   12970:	17fffb90 	b	117b0 <_ZN9__gnu_cxx27__verbose_terminate_handlerEv@@Base+0xae10>
   12974:	d2800004 	mov	x4, #0x0                   	// #0
   12978:	52800017 	mov	w23, #0x0                   	// #0
   1297c:	17fff4a6 	b	fc14 <_ZN9__gnu_cxx27__verbose_terminate_handlerEv@@Base+0x9274>
   12980:	52800058 	mov	w24, #0x2                   	// #2
   12984:	7100101f 	cmp	w0, #0x4
   12988:	540010e0 	b.eq	12ba4 <_ZN9__gnu_cxx27__verbose_terminate_handlerEv@@Base+0xc204>  // b.none
   1298c:	7100081f 	cmp	w0, #0x2
   12990:	540008a1 	b.ne	12aa4 <_ZN9__gnu_cxx27__verbose_terminate_handlerEv@@Base+0xc104>  // b.any
   12994:	f9400ae6 	ldr	x6, [x23, #16]
   12998:	b94000c0 	ldr	w0, [x6]
   1299c:	7101181f 	cmp	w0, #0x46
   129a0:	54001140 	b.eq	12bc8 <_ZN9__gnu_cxx27__verbose_terminate_handlerEv@@Base+0xc228>  // b.none
   129a4:	b94000c0 	ldr	w0, [x6]
   129a8:	51007000 	sub	w0, w0, #0x1c
   129ac:	7100101f 	cmp	w0, #0x4
   129b0:	540007a8 	b.hi	12aa4 <_ZN9__gnu_cxx27__verbose_terminate_handlerEv@@Base+0xc104>  // b.pmore
   129b4:	7100131f 	cmp	w24, #0x4
   129b8:	54fe5d60 	b.eq	f564 <_ZN9__gnu_cxx27__verbose_terminate_handlerEv@@Base+0x8bc4>  // b.none
   129bc:	51000702 	sub	w2, w24, #0x1
   129c0:	d37b7f07 	ubfiz	x7, x24, #5, #32
   129c4:	8b0702c3 	add	x3, x22, x7
   129c8:	f9009663 	str	x3, [x19, #296]
   129cc:	8b0216c2 	add	x2, x22, x2, lsl #5
   129d0:	11000705 	add	w5, w24, #0x1
   129d4:	a9400440 	ldp	x0, x1, [x2]
   129d8:	a9000460 	stp	x0, x1, [x3]
   129dc:	a9410440 	ldp	x0, x1, [x2, #16]
   129e0:	a9010460 	stp	x0, x1, [x3, #16]
   129e4:	f8276ac2 	str	x2, [x22, x7]
   129e8:	f9000446 	str	x6, [x2, #8]
   129ec:	b900105f 	str	wzr, [x2, #16]
   129f0:	f9000c44 	str	x4, [x2, #24]
   129f4:	f94004c2 	ldr	x2, [x6, #8]
   129f8:	b9400040 	ldr	w0, [x2]
   129fc:	51007000 	sub	w0, w0, #0x1c
   12a00:	7100101f 	cmp	w0, #0x4
   12a04:	540004e8 	b.hi	12aa0 <_ZN9__gnu_cxx27__verbose_terminate_handlerEv@@Base+0xc100>  // b.pmore
   12a08:	710010bf 	cmp	w5, #0x4
   12a0c:	54fe5ac0 	b.eq	f564 <_ZN9__gnu_cxx27__verbose_terminate_handlerEv@@Base+0x8bc4>  // b.none
   12a10:	d37b7ca7 	ubfiz	x7, x5, #5, #32
   12a14:	11000b05 	add	w5, w24, #0x2
   12a18:	8b0702c6 	add	x6, x22, x7
   12a1c:	f9009666 	str	x6, [x19, #296]
   12a20:	a9400460 	ldp	x0, x1, [x3]
   12a24:	a90004c0 	stp	x0, x1, [x6]
   12a28:	a9410460 	ldp	x0, x1, [x3, #16]
   12a2c:	a90104c0 	stp	x0, x1, [x6, #16]
   12a30:	f8276ac3 	str	x3, [x22, x7]
   12a34:	f9000462 	str	x2, [x3, #8]
   12a38:	b900107f 	str	wzr, [x3, #16]
   12a3c:	f9000c64 	str	x4, [x3, #24]
   12a40:	f9400446 	ldr	x6, [x2, #8]
   12a44:	b94000c0 	ldr	w0, [x6]
   12a48:	51007000 	sub	w0, w0, #0x1c
   12a4c:	7100101f 	cmp	w0, #0x4
   12a50:	54000288 	b.hi	12aa0 <_ZN9__gnu_cxx27__verbose_terminate_handlerEv@@Base+0xc100>  // b.pmore
   12a54:	710010bf 	cmp	w5, #0x4
   12a58:	54fe5860 	b.eq	f564 <_ZN9__gnu_cxx27__verbose_terminate_handlerEv@@Base+0x8bc4>  // b.none
   12a5c:	a94406c0 	ldp	x0, x1, [x22, #64]
   12a60:	a9450ec2 	ldp	x2, x3, [x22, #80]
   12a64:	a90606c0 	stp	x0, x1, [x22, #96]
   12a68:	910102c7 	add	x7, x22, #0x40
   12a6c:	910182c5 	add	x5, x22, #0x60
   12a70:	a9070ec2 	stp	x2, x3, [x22, #112]
   12a74:	f9009665 	str	x5, [x19, #296]
   12a78:	f90026c6 	str	x6, [x22, #72]
   12a7c:	f90032c7 	str	x7, [x22, #96]
   12a80:	b90052df 	str	wzr, [x22, #80]
   12a84:	f9002ec4 	str	x4, [x22, #88]
   12a88:	f94004c0 	ldr	x0, [x6, #8]
   12a8c:	b9400000 	ldr	w0, [x0]
   12a90:	51007000 	sub	w0, w0, #0x1c
   12a94:	7100101f 	cmp	w0, #0x4
   12a98:	54fe5669 	b.ls	f564 <_ZN9__gnu_cxx27__verbose_terminate_handlerEv@@Base+0x8bc4>  // b.plast
   12a9c:	52800085 	mov	w5, #0x4                   	// #4
   12aa0:	2a0503f8 	mov	w24, w5
   12aa4:	f9400a82 	ldr	x2, [x20, #16]
   12aa8:	aa1303e0 	mov	x0, x19
   12aac:	2a1503e1 	mov	w1, w21
   12ab0:	97fff21a 	bl	f318 <_ZN9__gnu_cxx27__verbose_terminate_handlerEv@@Base+0x8978>
   12ab4:	b94002e0 	ldr	w0, [x23]
   12ab8:	7100101f 	cmp	w0, #0x4
   12abc:	54000061 	b.ne	12ac8 <_ZN9__gnu_cxx27__verbose_terminate_handlerEv@@Base+0xc128>  // b.any
   12ac0:	f94033a0 	ldr	x0, [x29, #96]
   12ac4:	f9009260 	str	x0, [x19, #288]
   12ac8:	51000717 	sub	w23, w24, #0x1
   12acc:	d37b7ef4 	ubfiz	x20, x23, #5, #32
   12ad0:	8b1402d4 	add	x20, x22, x20
   12ad4:	b9401280 	ldr	w0, [x20, #16]
   12ad8:	34000360 	cbz	w0, 12b44 <_ZN9__gnu_cxx27__verbose_terminate_handlerEv@@Base+0xc1a4>
   12adc:	340001f7 	cbz	w23, 12b18 <_ZN9__gnu_cxx27__verbose_terminate_handlerEv@@Base+0xc178>
   12ae0:	51000b17 	sub	w23, w24, #0x2
   12ae4:	d37b7ef4 	ubfiz	x20, x23, #5, #32
   12ae8:	8b1402d4 	add	x20, x22, x20
   12aec:	b9401280 	ldr	w0, [x20, #16]
   12af0:	340004a0 	cbz	w0, 12b84 <_ZN9__gnu_cxx27__verbose_terminate_handlerEv@@Base+0xc1e4>
   12af4:	34000137 	cbz	w23, 12b18 <_ZN9__gnu_cxx27__verbose_terminate_handlerEv@@Base+0xc178>
   12af8:	51000f18 	sub	w24, w24, #0x3
   12afc:	d37b7f04 	ubfiz	x4, x24, #5, #32
   12b00:	8b0402d4 	add	x20, x22, x4
   12b04:	b9401280 	ldr	w0, [x20, #16]
   12b08:	340002e0 	cbz	w0, 12b64 <_ZN9__gnu_cxx27__verbose_terminate_handlerEv@@Base+0xc1c4>
   12b0c:	34000078 	cbz	w24, 12b18 <_ZN9__gnu_cxx27__verbose_terminate_handlerEv@@Base+0xc178>
   12b10:	b94083a0 	ldr	w0, [x29, #128]
   12b14:	34000060 	cbz	w0, 12b20 <_ZN9__gnu_cxx27__verbose_terminate_handlerEv@@Base+0xc180>
   12b18:	f9009679 	str	x25, [x19, #296]
   12b1c:	17fff210 	b	f35c <_ZN9__gnu_cxx27__verbose_terminate_handlerEv@@Base+0x89bc>
   12b20:	aa1303e0 	mov	x0, x19
   12b24:	52800401 	mov	w1, #0x20                  	// #32
   12b28:	97ffd191 	bl	716c <_ZN9__gnu_cxx27__verbose_terminate_handlerEv@@Base+0x7cc>
   12b2c:	f9403fa2 	ldr	x2, [x29, #120]
   12b30:	aa1303e0 	mov	x0, x19
   12b34:	2a1503e1 	mov	w1, w21
   12b38:	9400007b 	bl	12d24 <_ZN9__gnu_cxx27__verbose_terminate_handlerEv@@Base+0xc384>
   12b3c:	f9009679 	str	x25, [x19, #296]
   12b40:	17fff207 	b	f35c <_ZN9__gnu_cxx27__verbose_terminate_handlerEv@@Base+0x89bc>
   12b44:	aa1303e0 	mov	x0, x19
   12b48:	52800401 	mov	w1, #0x20                  	// #32
   12b4c:	97ffd188 	bl	716c <_ZN9__gnu_cxx27__verbose_terminate_handlerEv@@Base+0x7cc>
   12b50:	f9400682 	ldr	x2, [x20, #8]
   12b54:	aa1303e0 	mov	x0, x19
   12b58:	2a1503e1 	mov	w1, w21
   12b5c:	94000072 	bl	12d24 <_ZN9__gnu_cxx27__verbose_terminate_handlerEv@@Base+0xc384>
   12b60:	17ffffdf 	b	12adc <_ZN9__gnu_cxx27__verbose_terminate_handlerEv@@Base+0xc13c>
   12b64:	aa1303e0 	mov	x0, x19
   12b68:	52800401 	mov	w1, #0x20                  	// #32
   12b6c:	97ffd180 	bl	716c <_ZN9__gnu_cxx27__verbose_terminate_handlerEv@@Base+0x7cc>
   12b70:	f9400682 	ldr	x2, [x20, #8]
   12b74:	aa1303e0 	mov	x0, x19
   12b78:	2a1503e1 	mov	w1, w21
   12b7c:	9400006a 	bl	12d24 <_ZN9__gnu_cxx27__verbose_terminate_handlerEv@@Base+0xc384>
   12b80:	17ffffe3 	b	12b0c <_ZN9__gnu_cxx27__verbose_terminate_handlerEv@@Base+0xc16c>
   12b84:	aa1303e0 	mov	x0, x19
   12b88:	52800401 	mov	w1, #0x20                  	// #32
   12b8c:	97ffd178 	bl	716c <_ZN9__gnu_cxx27__verbose_terminate_handlerEv@@Base+0x7cc>
   12b90:	f9400682 	ldr	x2, [x20, #8]
   12b94:	aa1303e0 	mov	x0, x19
   12b98:	2a1503e1 	mov	w1, w21
   12b9c:	94000062 	bl	12d24 <_ZN9__gnu_cxx27__verbose_terminate_handlerEv@@Base+0xc384>
   12ba0:	17ffffd5 	b	12af4 <_ZN9__gnu_cxx27__verbose_terminate_handlerEv@@Base+0xc154>
   12ba4:	9103c3a0 	add	x0, x29, #0xf0
   12ba8:	f90037b7 	str	x23, [x29, #104]
   12bac:	f8170c04 	str	x4, [x0, #-144]!
   12bb0:	f9009260 	str	x0, [x19, #288]
   12bb4:	17ffffbc 	b	12aa4 <_ZN9__gnu_cxx27__verbose_terminate_handlerEv@@Base+0xc104>
   12bb8:	52800038 	mov	w24, #0x1                   	// #1
   12bbc:	17ffff72 	b	12984 <_ZN9__gnu_cxx27__verbose_terminate_handlerEv@@Base+0xbfe4>
   12bc0:	52800bf4 	mov	w20, #0x5f                  	// #95
   12bc4:	17fffb8d 	b	119f8 <_ZN9__gnu_cxx27__verbose_terminate_handlerEv@@Base+0xb058>
   12bc8:	f94004c6 	ldr	x6, [x6, #8]
   12bcc:	17ffff76 	b	129a4 <_ZN9__gnu_cxx27__verbose_terminate_handlerEv@@Base+0xc004>
   12bd0:	52800098 	mov	w24, #0x4                   	// #4
   12bd4:	17ffff6c 	b	12984 <_ZN9__gnu_cxx27__verbose_terminate_handlerEv@@Base+0xbfe4>
   12bd8:	52800078 	mov	w24, #0x3                   	// #3
   12bdc:	17ffff6a 	b	12984 <_ZN9__gnu_cxx27__verbose_terminate_handlerEv@@Base+0xbfe4>
   12be0:	f9400682 	ldr	x2, [x20, #8]
   12be4:	aa1303e0 	mov	x0, x19
   12be8:	2a1503e1 	mov	w1, w21
   12bec:	940004c6 	bl	13f04 <_ZN9__gnu_cxx27__verbose_terminate_handlerEv@@Base+0xd564>
   12bf0:	aa1303e0 	mov	x0, x19
   12bf4:	2a1503e1 	mov	w1, w21
   12bf8:	aa1603e2 	mov	x2, x22
   12bfc:	9400048d 	bl	13e30 <_ZN9__gnu_cxx27__verbose_terminate_handlerEv@@Base+0xd490>
   12c00:	17fff1d7 	b	f35c <_ZN9__gnu_cxx27__verbose_terminate_handlerEv@@Base+0x89bc>
   12c04:	b9015a67 	str	w7, [x19, #344]
   12c08:	52800020 	mov	w0, #0x1                   	// #1
   12c0c:	b9013260 	str	w0, [x19, #304]
   12c10:	17fff1d3 	b	f35c <_ZN9__gnu_cxx27__verbose_terminate_handlerEv@@Base+0x89bc>
   12c14:	f9408a63 	ldr	x3, [x19, #272]
   12c18:	aa1303e0 	mov	x0, x19
   12c1c:	f9408e62 	ldr	x2, [x19, #280]
   12c20:	3903fe7f 	strb	wzr, [x19, #255]
   12c24:	d63f0060 	blr	x3
   12c28:	f900827f 	str	xzr, [x19, #256]
   12c2c:	f9409e60 	ldr	x0, [x19, #312]
   12c30:	d2800001 	mov	x1, #0x0                   	// #0
   12c34:	91000400 	add	x0, x0, #0x1
   12c38:	f9009e60 	str	x0, [x19, #312]
   12c3c:	17ffff23 	b	128c8 <_ZN9__gnu_cxx27__verbose_terminate_handlerEv@@Base+0xbf28>
   12c40:	f9408a63 	ldr	x3, [x19, #272]
   12c44:	aa1303e0 	mov	x0, x19
   12c48:	f9408e62 	ldr	x2, [x19, #280]
   12c4c:	3903fe7f 	strb	wzr, [x19, #255]
   12c50:	d63f0060 	blr	x3
   12c54:	f900827f 	str	xzr, [x19, #256]
   12c58:	f9409e60 	ldr	x0, [x19, #312]
   12c5c:	d2800001 	mov	x1, #0x0                   	// #0
   12c60:	91000400 	add	x0, x0, #0x1
   12c64:	f9009e60 	str	x0, [x19, #312]
   12c68:	17ffff21 	b	128ec <_ZN9__gnu_cxx27__verbose_terminate_handlerEv@@Base+0xbf4c>
   12c6c:	eb1702df 	cmp	x22, x23
   12c70:	54fffa89 	b.ls	12bc0 <_ZN9__gnu_cxx27__verbose_terminate_handlerEv@@Base+0xc220>  // b.plast
   12c74:	71017c3f 	cmp	w1, #0x5f
   12c78:	54fffa41 	b.ne	12bc0 <_ZN9__gnu_cxx27__verbose_terminate_handlerEv@@Base+0xc220>  // b.any
   12c7c:	f103fc5f 	cmp	x2, #0xff
   12c80:	54fffa08 	b.hi	12bc0 <_ZN9__gnu_cxx27__verbose_terminate_handlerEv@@Base+0xc220>  // b.pmore
   12c84:	f9408261 	ldr	x1, [x19, #256]
   12c88:	53001c54 	uxtb	w20, w2
   12c8c:	f103fc3f 	cmp	x1, #0xff
   12c90:	54000161 	b.ne	12cbc <_ZN9__gnu_cxx27__verbose_terminate_handlerEv@@Base+0xc31c>  // b.any
   12c94:	f9408a63 	ldr	x3, [x19, #272]
   12c98:	aa1303e0 	mov	x0, x19
   12c9c:	f9408e62 	ldr	x2, [x19, #280]
   12ca0:	3903fe7f 	strb	wzr, [x19, #255]
   12ca4:	d63f0060 	blr	x3
   12ca8:	f900827f 	str	xzr, [x19, #256]
   12cac:	f9409e60 	ldr	x0, [x19, #312]
   12cb0:	d2800001 	mov	x1, #0x0                   	// #0
   12cb4:	91000400 	add	x0, x0, #0x1
   12cb8:	f9009e60 	str	x0, [x19, #312]
   12cbc:	91000420 	add	x0, x1, #0x1
   12cc0:	f9008260 	str	x0, [x19, #256]
   12cc4:	38216a74 	strb	w20, [x19, x1]
   12cc8:	aa1703f5 	mov	x21, x23
   12ccc:	39042274 	strb	w20, [x19, #264]
   12cd0:	17fffb51 	b	11a14 <_ZN9__gnu_cxx27__verbose_terminate_handlerEv@@Base+0xb074>
   12cd4:	f9400420 	ldr	x0, [x1, #8]
   12cd8:	39400000 	ldrb	w0, [x0]
   12cdc:	7100c01f 	cmp	w0, #0x30
   12ce0:	54000180 	b.eq	12d10 <_ZN9__gnu_cxx27__verbose_terminate_handlerEv@@Base+0xc370>  // b.none
   12ce4:	7100c41f 	cmp	w0, #0x31
   12ce8:	54fe8a61 	b.ne	fe34 <_ZN9__gnu_cxx27__verbose_terminate_handlerEv@@Base+0x9494>  // b.any
   12cec:	d0000021 	adrp	x1, 18000 <_ZTSN10__cxxabiv117__class_type_infoE@@Base>
   12cf0:	aa1303e0 	mov	x0, x19
   12cf4:	911fc021 	add	x1, x1, #0x7f0
   12cf8:	97ffd1de 	bl	7470 <_ZN9__gnu_cxx27__verbose_terminate_handlerEv@@Base+0xad0>
   12cfc:	17fff198 	b	f35c <_ZN9__gnu_cxx27__verbose_terminate_handlerEv@@Base+0x89bc>
   12d00:	aa1303e0 	mov	x0, x19
   12d04:	528005a1 	mov	w1, #0x2d                  	// #45
   12d08:	97ffd119 	bl	716c <_ZN9__gnu_cxx27__verbose_terminate_handlerEv@@Base+0x7cc>
   12d0c:	17fffcaa 	b	11fb4 <_ZN9__gnu_cxx27__verbose_terminate_handlerEv@@Base+0xb614>
   12d10:	d0000021 	adrp	x1, 18000 <_ZTSN10__cxxabiv117__class_type_infoE@@Base>
   12d14:	aa1303e0 	mov	x0, x19
   12d18:	911fa021 	add	x1, x1, #0x7e8
   12d1c:	97ffd1d5 	bl	7470 <_ZN9__gnu_cxx27__verbose_terminate_handlerEv@@Base+0xad0>
   12d20:	17fff18f 	b	f35c <_ZN9__gnu_cxx27__verbose_terminate_handlerEv@@Base+0x89bc>
   12d24:	a9bc7bfd 	stp	x29, x30, [sp, #-64]!
   12d28:	910003fd 	mov	x29, sp
   12d2c:	a90153f3 	stp	x19, x20, [sp, #16]
   12d30:	aa0003f3 	mov	x19, x0
   12d34:	b9400040 	ldr	w0, [x2]
   12d38:	a9025bf5 	stp	x21, x22, [sp, #32]
   12d3c:	51000c00 	sub	w0, w0, #0x3
   12d40:	aa0203f5 	mov	x21, x2
   12d44:	a90363f7 	stp	x23, x24, [sp, #48]
   12d48:	7100a81f 	cmp	w0, #0x2a
   12d4c:	2a0103f7 	mov	w23, w1
   12d50:	54000129 	b.ls	12d74 <_ZN9__gnu_cxx27__verbose_terminate_handlerEv@@Base+0xc3d4>  // b.plast
   12d54:	aa1303e0 	mov	x0, x19
   12d58:	2a1703e1 	mov	w1, w23
   12d5c:	aa1503e2 	mov	x2, x21
   12d60:	a94153f3 	ldp	x19, x20, [sp, #16]
   12d64:	a9425bf5 	ldp	x21, x22, [sp, #32]
   12d68:	a94363f7 	ldp	x23, x24, [sp, #48]
   12d6c:	a8c47bfd 	ldp	x29, x30, [sp], #64
   12d70:	17fff16a 	b	f318 <_ZN9__gnu_cxx27__verbose_terminate_handlerEv@@Base+0x8978>
   12d74:	d0000021 	adrp	x1, 18000 <_ZTSN10__cxxabiv117__class_type_infoE@@Base>
   12d78:	91138021 	add	x1, x1, #0x4e0
   12d7c:	78605820 	ldrh	w0, [x1, w0, uxtw #1]
   12d80:	10000061 	adr	x1, 12d8c <_ZN9__gnu_cxx27__verbose_terminate_handlerEv@@Base+0xc3ec>
   12d84:	8b20a820 	add	x0, x1, w0, sxth #2
   12d88:	d61f0000 	br	x0
   12d8c:	d0000034 	adrp	x20, 18000 <_ZTSN10__cxxabiv117__class_type_infoE@@Base>
   12d90:	d0000038 	adrp	x24, 18000 <_ZTSN10__cxxabiv117__class_type_infoE@@Base>
   12d94:	f9408261 	ldr	x1, [x19, #256]
   12d98:	91236294 	add	x20, x20, #0x8d8
   12d9c:	91238b18 	add	x24, x24, #0x8e2
   12da0:	14000009 	b	12dc4 <_ZN9__gnu_cxx27__verbose_terminate_handlerEv@@Base+0xc424>
   12da4:	aa0103e0 	mov	x0, x1
   12da8:	91000421 	add	x1, x1, #0x1
   12dac:	f9008261 	str	x1, [x19, #256]
   12db0:	91000694 	add	x20, x20, #0x1
   12db4:	38206a76 	strb	w22, [x19, x0]
   12db8:	eb18029f 	cmp	x20, x24
   12dbc:	39042276 	strb	w22, [x19, #264]
   12dc0:	54002440 	b.eq	13248 <_ZN9__gnu_cxx27__verbose_terminate_handlerEv@@Base+0xc8a8>  // b.none
   12dc4:	f103fc3f 	cmp	x1, #0xff
   12dc8:	39400296 	ldrb	w22, [x20]
   12dcc:	54fffec1 	b.ne	12da4 <_ZN9__gnu_cxx27__verbose_terminate_handlerEv@@Base+0xc404>  // b.any
   12dd0:	f9408e62 	ldr	x2, [x19, #280]
   12dd4:	aa1303e0 	mov	x0, x19
   12dd8:	f9408a63 	ldr	x3, [x19, #272]
   12ddc:	3903fe7f 	strb	wzr, [x19, #255]
   12de0:	d63f0060 	blr	x3
   12de4:	f9409e62 	ldr	x2, [x19, #312]
   12de8:	d2800021 	mov	x1, #0x1                   	// #1
   12dec:	d2800000 	mov	x0, #0x0                   	// #0
   12df0:	8b010042 	add	x2, x2, x1
   12df4:	f9009e62 	str	x2, [x19, #312]
   12df8:	17ffffed 	b	12dac <_ZN9__gnu_cxx27__verbose_terminate_handlerEv@@Base+0xc40c>
   12dfc:	f9400442 	ldr	x2, [x2, #8]
   12e00:	aa1303e0 	mov	x0, x19
   12e04:	2a1703e1 	mov	w1, w23
   12e08:	17ffffd6 	b	12d60 <_ZN9__gnu_cxx27__verbose_terminate_handlerEv@@Base+0xc3c0>
   12e0c:	d0000036 	adrp	x22, 18000 <_ZTSN10__cxxabiv117__class_type_infoE@@Base>
   12e10:	f9408261 	ldr	x1, [x19, #256]
   12e14:	d2800014 	mov	x20, #0x0                   	// #0
   12e18:	912262d6 	add	x22, x22, #0x898
   12e1c:	14000009 	b	12e40 <_ZN9__gnu_cxx27__verbose_terminate_handlerEv@@Base+0xc4a0>
   12e20:	aa0103e0 	mov	x0, x1
   12e24:	91000421 	add	x1, x1, #0x1
   12e28:	f9008261 	str	x1, [x19, #256]
   12e2c:	91000694 	add	x20, x20, #0x1
   12e30:	38206a75 	strb	w21, [x19, x0]
   12e34:	f100269f 	cmp	x20, #0x9
   12e38:	39042275 	strb	w21, [x19, #264]
   12e3c:	54000d80 	b.eq	12fec <_ZN9__gnu_cxx27__verbose_terminate_handlerEv@@Base+0xc64c>  // b.none
   12e40:	f103fc3f 	cmp	x1, #0xff
   12e44:	38766a95 	ldrb	w21, [x20, x22]
   12e48:	54fffec1 	b.ne	12e20 <_ZN9__gnu_cxx27__verbose_terminate_handlerEv@@Base+0xc480>  // b.any
   12e4c:	f9408e62 	ldr	x2, [x19, #280]
   12e50:	aa1303e0 	mov	x0, x19
   12e54:	f9408a63 	ldr	x3, [x19, #272]
   12e58:	3903fe7f 	strb	wzr, [x19, #255]
   12e5c:	d63f0060 	blr	x3
   12e60:	f9409e62 	ldr	x2, [x19, #312]
   12e64:	d2800021 	mov	x1, #0x1                   	// #1
   12e68:	d2800000 	mov	x0, #0x0                   	// #0
   12e6c:	8b010042 	add	x2, x2, x1
   12e70:	f9009e62 	str	x2, [x19, #312]
   12e74:	17ffffed 	b	12e28 <_ZN9__gnu_cxx27__verbose_terminate_handlerEv@@Base+0xc488>
   12e78:	d0000036 	adrp	x22, 18000 <_ZTSN10__cxxabiv117__class_type_infoE@@Base>
   12e7c:	f9408261 	ldr	x1, [x19, #256]
   12e80:	d2800014 	mov	x20, #0x0                   	// #0
   12e84:	9122a2d6 	add	x22, x22, #0x8a8
   12e88:	14000009 	b	12eac <_ZN9__gnu_cxx27__verbose_terminate_handlerEv@@Base+0xc50c>
   12e8c:	aa0103e0 	mov	x0, x1
   12e90:	91000421 	add	x1, x1, #0x1
   12e94:	f9008261 	str	x1, [x19, #256]
   12e98:	91000694 	add	x20, x20, #0x1
   12e9c:	38206a75 	strb	w21, [x19, x0]
   12ea0:	f100269f 	cmp	x20, #0x9
   12ea4:	39042275 	strb	w21, [x19, #264]
   12ea8:	54000a20 	b.eq	12fec <_ZN9__gnu_cxx27__verbose_terminate_handlerEv@@Base+0xc64c>  // b.none
   12eac:	f103fc3f 	cmp	x1, #0xff
   12eb0:	38766a95 	ldrb	w21, [x20, x22]
   12eb4:	54fffec1 	b.ne	12e8c <_ZN9__gnu_cxx27__verbose_terminate_handlerEv@@Base+0xc4ec>  // b.any
   12eb8:	f9408e62 	ldr	x2, [x19, #280]
   12ebc:	aa1303e0 	mov	x0, x19
   12ec0:	f9408a63 	ldr	x3, [x19, #272]
   12ec4:	3903fe7f 	strb	wzr, [x19, #255]
   12ec8:	d63f0060 	blr	x3
   12ecc:	f9409e62 	ldr	x2, [x19, #312]
   12ed0:	d2800021 	mov	x1, #0x1                   	// #1
   12ed4:	d2800000 	mov	x0, #0x0                   	// #0
   12ed8:	8b010042 	add	x2, x2, x1
   12edc:	f9009e62 	str	x2, [x19, #312]
   12ee0:	17ffffed 	b	12e94 <_ZN9__gnu_cxx27__verbose_terminate_handlerEv@@Base+0xc4f4>
   12ee4:	f9408261 	ldr	x1, [x19, #256]
   12ee8:	f103fc3f 	cmp	x1, #0xff
   12eec:	54002fa0 	b.eq	134e0 <_ZN9__gnu_cxx27__verbose_terminate_handlerEv@@Base+0xcb40>  // b.none
   12ef0:	91000423 	add	x3, x1, #0x1
   12ef4:	f9008263 	str	x3, [x19, #256]
   12ef8:	52800400 	mov	w0, #0x20                  	// #32
   12efc:	38216a60 	strb	w0, [x19, x1]
   12f00:	39042260 	strb	w0, [x19, #264]
   12f04:	f103fc7f 	cmp	x3, #0xff
   12f08:	52800c74 	mov	w20, #0x63                  	// #99
   12f0c:	54001d00 	b.eq	132ac <_ZN9__gnu_cxx27__verbose_terminate_handlerEv@@Base+0xc90c>  // b.none
   12f10:	91000461 	add	x1, x3, #0x1
   12f14:	f9008261 	str	x1, [x19, #256]
   12f18:	38236a74 	strb	w20, [x19, x3]
   12f1c:	f103fc3f 	cmp	x1, #0xff
   12f20:	39042274 	strb	w20, [x19, #264]
   12f24:	52800df4 	mov	w20, #0x6f                  	// #111
   12f28:	54002aa0 	b.eq	1347c <_ZN9__gnu_cxx27__verbose_terminate_handlerEv@@Base+0xcadc>  // b.none
   12f2c:	91000423 	add	x3, x1, #0x1
   12f30:	f9008263 	str	x3, [x19, #256]
   12f34:	38216a74 	strb	w20, [x19, x1]
   12f38:	f103fc7f 	cmp	x3, #0xff
   12f3c:	39042274 	strb	w20, [x19, #264]
   12f40:	52800dd5 	mov	w21, #0x6e                  	// #110
   12f44:	540027e0 	b.eq	13440 <_ZN9__gnu_cxx27__verbose_terminate_handlerEv@@Base+0xcaa0>  // b.none
   12f48:	91000461 	add	x1, x3, #0x1
   12f4c:	f9008261 	str	x1, [x19, #256]
   12f50:	38236a75 	strb	w21, [x19, x3]
   12f54:	f103fc3f 	cmp	x1, #0xff
   12f58:	39042275 	strb	w21, [x19, #264]
   12f5c:	52800e75 	mov	w21, #0x73                  	// #115
   12f60:	54002580 	b.eq	13410 <_ZN9__gnu_cxx27__verbose_terminate_handlerEv@@Base+0xca70>  // b.none
   12f64:	91000420 	add	x0, x1, #0x1
   12f68:	f9008260 	str	x0, [x19, #256]
   12f6c:	38216a75 	strb	w21, [x19, x1]
   12f70:	f103fc1f 	cmp	x0, #0xff
   12f74:	39042275 	strb	w21, [x19, #264]
   12f78:	52800e94 	mov	w20, #0x74                  	// #116
   12f7c:	54000661 	b.ne	13048 <_ZN9__gnu_cxx27__verbose_terminate_handlerEv@@Base+0xc6a8>  // b.any
   12f80:	f9408e62 	ldr	x2, [x19, #280]
   12f84:	aa0003e1 	mov	x1, x0
   12f88:	f9408a63 	ldr	x3, [x19, #272]
   12f8c:	aa1303e0 	mov	x0, x19
   12f90:	3903fe7f 	strb	wzr, [x19, #255]
   12f94:	d63f0060 	blr	x3
   12f98:	f9409e62 	ldr	x2, [x19, #312]
   12f9c:	d2800021 	mov	x1, #0x1                   	// #1
   12fa0:	d2800000 	mov	x0, #0x0                   	// #0
   12fa4:	8b010042 	add	x2, x2, x1
   12fa8:	f9009e62 	str	x2, [x19, #312]
   12fac:	14000028 	b	1304c <_ZN9__gnu_cxx27__verbose_terminate_handlerEv@@Base+0xc6ac>
   12fb0:	f9408260 	ldr	x0, [x19, #256]
   12fb4:	f103fc1f 	cmp	x0, #0xff
   12fb8:	54002b20 	b.eq	1351c <_ZN9__gnu_cxx27__verbose_terminate_handlerEv@@Base+0xcb7c>  // b.none
   12fbc:	91000401 	add	x1, x0, #0x1
   12fc0:	f9008261 	str	x1, [x19, #256]
   12fc4:	52800402 	mov	w2, #0x20                  	// #32
   12fc8:	38206a62 	strb	w2, [x19, x0]
   12fcc:	39042262 	strb	w2, [x19, #264]
   12fd0:	f103fc3f 	cmp	x1, #0xff
   12fd4:	54001bc0 	b.eq	1334c <_ZN9__gnu_cxx27__verbose_terminate_handlerEv@@Base+0xc9ac>  // b.none
   12fd8:	91000420 	add	x0, x1, #0x1
   12fdc:	f9008260 	str	x0, [x19, #256]
   12fe0:	528004c0 	mov	w0, #0x26                  	// #38
   12fe4:	38216a60 	strb	w0, [x19, x1]
   12fe8:	39042260 	strb	w0, [x19, #264]
   12fec:	a94153f3 	ldp	x19, x20, [sp, #16]
   12ff0:	a9425bf5 	ldp	x21, x22, [sp, #32]
   12ff4:	a94363f7 	ldp	x23, x24, [sp, #48]
   12ff8:	a8c47bfd 	ldp	x29, x30, [sp], #64
   12ffc:	d65f03c0 	ret
   13000:	f9408260 	ldr	x0, [x19, #256]
   13004:	f103fc1f 	cmp	x0, #0xff
   13008:	54001b80 	b.eq	13378 <_ZN9__gnu_cxx27__verbose_terminate_handlerEv@@Base+0xc9d8>  // b.none
   1300c:	91000401 	add	x1, x0, #0x1
   13010:	f9008261 	str	x1, [x19, #256]
   13014:	52800402 	mov	w2, #0x20                  	// #32
   13018:	38206a62 	strb	w2, [x19, x0]
   1301c:	39042262 	strb	w2, [x19, #264]
   13020:	f103fc3f 	cmp	x1, #0xff
   13024:	540017a0 	b.eq	13318 <_ZN9__gnu_cxx27__verbose_terminate_handlerEv@@Base+0xc978>  // b.none
   13028:	91000420 	add	x0, x1, #0x1
   1302c:	f9008260 	str	x0, [x19, #256]
   13030:	528004c2 	mov	w2, #0x26                  	// #38
   13034:	38216a62 	strb	w2, [x19, x1]
   13038:	39042262 	strb	w2, [x19, #264]
   1303c:	f103fc1f 	cmp	x0, #0xff
   13040:	528004d4 	mov	w20, #0x26                  	// #38
   13044:	54fff9e0 	b.eq	12f80 <_ZN9__gnu_cxx27__verbose_terminate_handlerEv@@Base+0xc5e0>  // b.none
   13048:	91000401 	add	x1, x0, #0x1
   1304c:	f9008261 	str	x1, [x19, #256]
   13050:	38206a74 	strb	w20, [x19, x0]
   13054:	39042274 	strb	w20, [x19, #264]
   13058:	a94153f3 	ldp	x19, x20, [sp, #16]
   1305c:	a9425bf5 	ldp	x21, x22, [sp, #32]
   13060:	a94363f7 	ldp	x23, x24, [sp, #48]
   13064:	a8c47bfd 	ldp	x29, x30, [sp], #64
   13068:	d65f03c0 	ret
   1306c:	f9408261 	ldr	x1, [x19, #256]
   13070:	f103fc3f 	cmp	x1, #0xff
   13074:	54002200 	b.eq	134b4 <_ZN9__gnu_cxx27__verbose_terminate_handlerEv@@Base+0xcb14>  // b.none
   13078:	91000420 	add	x0, x1, #0x1
   1307c:	f9008260 	str	x0, [x19, #256]
   13080:	52800402 	mov	w2, #0x20                  	// #32
   13084:	38216a62 	strb	w2, [x19, x1]
   13088:	aa1303e0 	mov	x0, x19
   1308c:	39042262 	strb	w2, [x19, #264]
   13090:	2a1703e1 	mov	w1, w23
   13094:	f9400aa2 	ldr	x2, [x21, #16]
   13098:	17ffff32 	b	12d60 <_ZN9__gnu_cxx27__verbose_terminate_handlerEv@@Base+0xc3c0>
   1309c:	3717fa97 	tbnz	w23, #2, 12fec <_ZN9__gnu_cxx27__verbose_terminate_handlerEv@@Base+0xc64c>
   130a0:	f9408261 	ldr	x1, [x19, #256]
   130a4:	f103fc3f 	cmp	x1, #0xff
   130a8:	54002680 	b.eq	13578 <_ZN9__gnu_cxx27__verbose_terminate_handlerEv@@Base+0xcbd8>  // b.none
   130ac:	91000420 	add	x0, x1, #0x1
   130b0:	f9008260 	str	x0, [x19, #256]
   130b4:	52800540 	mov	w0, #0x2a                  	// #42
   130b8:	38216a60 	strb	w0, [x19, x1]
   130bc:	39042260 	strb	w0, [x19, #264]
   130c0:	17ffffcb 	b	12fec <_ZN9__gnu_cxx27__verbose_terminate_handlerEv@@Base+0xc64c>
   130c4:	f9408261 	ldr	x1, [x19, #256]
   130c8:	17ffffc2 	b	12fd0 <_ZN9__gnu_cxx27__verbose_terminate_handlerEv@@Base+0xc630>
   130cc:	f9408261 	ldr	x1, [x19, #256]
   130d0:	17ffffd4 	b	13020 <_ZN9__gnu_cxx27__verbose_terminate_handlerEv@@Base+0xc680>
   130d4:	b0000034 	adrp	x20, 18000 <_ZTSN10__cxxabiv117__class_type_infoE@@Base>
   130d8:	b0000036 	adrp	x22, 18000 <_ZTSN10__cxxabiv117__class_type_infoE@@Base>
   130dc:	f9408261 	ldr	x1, [x19, #256]
   130e0:	9122e294 	add	x20, x20, #0x8b8
   130e4:	912302d6 	add	x22, x22, #0x8c0
   130e8:	14000009 	b	1310c <_ZN9__gnu_cxx27__verbose_terminate_handlerEv@@Base+0xc76c>
   130ec:	aa0103e0 	mov	x0, x1
   130f0:	91000421 	add	x1, x1, #0x1
   130f4:	f9008261 	str	x1, [x19, #256]
   130f8:	91000694 	add	x20, x20, #0x1
   130fc:	38206a75 	strb	w21, [x19, x0]
   13100:	eb16029f 	cmp	x20, x22
   13104:	39042275 	strb	w21, [x19, #264]
   13108:	54fff720 	b.eq	12fec <_ZN9__gnu_cxx27__verbose_terminate_handlerEv@@Base+0xc64c>  // b.none
   1310c:	f103fc3f 	cmp	x1, #0xff
   13110:	39400295 	ldrb	w21, [x20]
   13114:	54fffec1 	b.ne	130ec <_ZN9__gnu_cxx27__verbose_terminate_handlerEv@@Base+0xc74c>  // b.any
   13118:	f9408e62 	ldr	x2, [x19, #280]
   1311c:	aa1303e0 	mov	x0, x19
   13120:	f9408a63 	ldr	x3, [x19, #272]
   13124:	3903fe7f 	strb	wzr, [x19, #255]
   13128:	d63f0060 	blr	x3
   1312c:	f9409e62 	ldr	x2, [x19, #312]
   13130:	d2800021 	mov	x1, #0x1                   	// #1
   13134:	d2800000 	mov	x0, #0x0                   	// #0
   13138:	8b010042 	add	x2, x2, x1
   1313c:	f9009e62 	str	x2, [x19, #312]
   13140:	17ffffed 	b	130f4 <_ZN9__gnu_cxx27__verbose_terminate_handlerEv@@Base+0xc754>
   13144:	b0000034 	adrp	x20, 18000 <_ZTSN10__cxxabiv117__class_type_infoE@@Base>
   13148:	b0000036 	adrp	x22, 18000 <_ZTSN10__cxxabiv117__class_type_infoE@@Base>
   1314c:	f9408261 	ldr	x1, [x19, #256]
   13150:	91232294 	add	x20, x20, #0x8c8
   13154:	91234ad6 	add	x22, x22, #0x8d2
   13158:	14000009 	b	1317c <_ZN9__gnu_cxx27__verbose_terminate_handlerEv@@Base+0xc7dc>
   1315c:	aa0103e0 	mov	x0, x1
   13160:	91000421 	add	x1, x1, #0x1
   13164:	f9008261 	str	x1, [x19, #256]
   13168:	91000694 	add	x20, x20, #0x1
   1316c:	38206a75 	strb	w21, [x19, x0]
   13170:	eb16029f 	cmp	x20, x22
   13174:	39042275 	strb	w21, [x19, #264]
   13178:	54fff3a0 	b.eq	12fec <_ZN9__gnu_cxx27__verbose_terminate_handlerEv@@Base+0xc64c>  // b.none
   1317c:	f103fc3f 	cmp	x1, #0xff
   13180:	39400295 	ldrb	w21, [x20]
   13184:	54fffec1 	b.ne	1315c <_ZN9__gnu_cxx27__verbose_terminate_handlerEv@@Base+0xc7bc>  // b.any
   13188:	f9408e62 	ldr	x2, [x19, #280]
   1318c:	aa1303e0 	mov	x0, x19
   13190:	f9408a63 	ldr	x3, [x19, #272]
   13194:	3903fe7f 	strb	wzr, [x19, #255]
   13198:	d63f0060 	blr	x3
   1319c:	f9409e62 	ldr	x2, [x19, #312]
   131a0:	d2800021 	mov	x1, #0x1                   	// #1
   131a4:	d2800000 	mov	x0, #0x0                   	// #0
   131a8:	8b010042 	add	x2, x2, x1
   131ac:	f9009e62 	str	x2, [x19, #312]
   131b0:	17ffffed 	b	13164 <_ZN9__gnu_cxx27__verbose_terminate_handlerEv@@Base+0xc7c4>
   131b4:	39442260 	ldrb	w0, [x19, #264]
   131b8:	7100a01f 	cmp	w0, #0x28
   131bc:	54000120 	b.eq	131e0 <_ZN9__gnu_cxx27__verbose_terminate_handlerEv@@Base+0xc840>  // b.none
   131c0:	f9408261 	ldr	x1, [x19, #256]
   131c4:	f103fc3f 	cmp	x1, #0xff
   131c8:	54001c20 	b.eq	1354c <_ZN9__gnu_cxx27__verbose_terminate_handlerEv@@Base+0xcbac>  // b.none
   131cc:	91000420 	add	x0, x1, #0x1
   131d0:	f9008260 	str	x0, [x19, #256]
   131d4:	52800400 	mov	w0, #0x20                  	// #32
   131d8:	38216a60 	strb	w0, [x19, x1]
   131dc:	39042260 	strb	w0, [x19, #264]
   131e0:	f94006a2 	ldr	x2, [x21, #8]
   131e4:	aa1303e0 	mov	x0, x19
   131e8:	2a1703e1 	mov	w1, w23
   131ec:	97fff04b 	bl	f318 <_ZN9__gnu_cxx27__verbose_terminate_handlerEv@@Base+0x8978>
   131f0:	f9408263 	ldr	x3, [x19, #256]
   131f4:	f103fc7f 	cmp	x3, #0xff
   131f8:	54000ee0 	b.eq	133d4 <_ZN9__gnu_cxx27__verbose_terminate_handlerEv@@Base+0xca34>  // b.none
   131fc:	91000461 	add	x1, x3, #0x1
   13200:	f9008261 	str	x1, [x19, #256]
   13204:	52800754 	mov	w20, #0x3a                  	// #58
   13208:	38236a74 	strb	w20, [x19, x3]
   1320c:	39042274 	strb	w20, [x19, #264]
   13210:	f103fc3f 	cmp	x1, #0xff
   13214:	540006a0 	b.eq	132e8 <_ZN9__gnu_cxx27__verbose_terminate_handlerEv@@Base+0xc948>  // b.none
   13218:	91000420 	add	x0, x1, #0x1
   1321c:	f9008260 	str	x0, [x19, #256]
   13220:	38216a74 	strb	w20, [x19, x1]
   13224:	f103fc1f 	cmp	x0, #0xff
   13228:	39042274 	strb	w20, [x19, #264]
   1322c:	52800555 	mov	w21, #0x2a                  	// #42
   13230:	54000260 	b.eq	1327c <_ZN9__gnu_cxx27__verbose_terminate_handlerEv@@Base+0xc8dc>  // b.none
   13234:	91000401 	add	x1, x0, #0x1
   13238:	f9008261 	str	x1, [x19, #256]
   1323c:	38206a75 	strb	w21, [x19, x0]
   13240:	39042275 	strb	w21, [x19, #264]
   13244:	17ffff6a 	b	12fec <_ZN9__gnu_cxx27__verbose_terminate_handlerEv@@Base+0xc64c>
   13248:	f94006a2 	ldr	x2, [x21, #8]
   1324c:	2a1703e1 	mov	w1, w23
   13250:	aa1303e0 	mov	x0, x19
   13254:	97fff031 	bl	f318 <_ZN9__gnu_cxx27__verbose_terminate_handlerEv@@Base+0x8978>
   13258:	f9408261 	ldr	x1, [x19, #256]
   1325c:	f103fc3f 	cmp	x1, #0xff
   13260:	54000a40 	b.eq	133a8 <_ZN9__gnu_cxx27__verbose_terminate_handlerEv@@Base+0xca08>  // b.none
   13264:	91000420 	add	x0, x1, #0x1
   13268:	f9008260 	str	x0, [x19, #256]
   1326c:	52800520 	mov	w0, #0x29                  	// #41
   13270:	38216a60 	strb	w0, [x19, x1]
   13274:	39042260 	strb	w0, [x19, #264]
   13278:	17ffff5d 	b	12fec <_ZN9__gnu_cxx27__verbose_terminate_handlerEv@@Base+0xc64c>
   1327c:	f9408e62 	ldr	x2, [x19, #280]
   13280:	aa0003e1 	mov	x1, x0
   13284:	f9408a63 	ldr	x3, [x19, #272]
   13288:	aa1303e0 	mov	x0, x19
   1328c:	3903fe7f 	strb	wzr, [x19, #255]
   13290:	d63f0060 	blr	x3
   13294:	f9409e62 	ldr	x2, [x19, #312]
   13298:	d2800021 	mov	x1, #0x1                   	// #1
   1329c:	d2800000 	mov	x0, #0x0                   	// #0
   132a0:	8b010042 	add	x2, x2, x1
   132a4:	f9009e62 	str	x2, [x19, #312]
   132a8:	17ffffe4 	b	13238 <_ZN9__gnu_cxx27__verbose_terminate_handlerEv@@Base+0xc898>
   132ac:	f9408a64 	ldr	x4, [x19, #272]
   132b0:	aa1303e0 	mov	x0, x19
   132b4:	f9408e62 	ldr	x2, [x19, #280]
   132b8:	aa0303e1 	mov	x1, x3
   132bc:	3903fe7f 	strb	wzr, [x19, #255]
   132c0:	52800dd5 	mov	w21, #0x6e                  	// #110
   132c4:	d63f0080 	blr	x4
   132c8:	39000274 	strb	w20, [x19]
   132cc:	f9409e60 	ldr	x0, [x19, #312]
   132d0:	d2800043 	mov	x3, #0x2                   	// #2
   132d4:	91000400 	add	x0, x0, #0x1
   132d8:	f9009e60 	str	x0, [x19, #312]
   132dc:	52800de0 	mov	w0, #0x6f                  	// #111
   132e0:	39000660 	strb	w0, [x19, #1]
   132e4:	17ffff19 	b	12f48 <_ZN9__gnu_cxx27__verbose_terminate_handlerEv@@Base+0xc5a8>
   132e8:	f9408a63 	ldr	x3, [x19, #272]
   132ec:	aa1303e0 	mov	x0, x19
   132f0:	f9408e62 	ldr	x2, [x19, #280]
   132f4:	52800555 	mov	w21, #0x2a                  	// #42
   132f8:	3903fe7f 	strb	wzr, [x19, #255]
   132fc:	d63f0060 	blr	x3
   13300:	39000274 	strb	w20, [x19]
   13304:	f9409e61 	ldr	x1, [x19, #312]
   13308:	d2800020 	mov	x0, #0x1                   	// #1
   1330c:	8b000021 	add	x1, x1, x0
   13310:	f9009e61 	str	x1, [x19, #312]
   13314:	17ffffc8 	b	13234 <_ZN9__gnu_cxx27__verbose_terminate_handlerEv@@Base+0xc894>
   13318:	f9408e62 	ldr	x2, [x19, #280]
   1331c:	aa1303e0 	mov	x0, x19
   13320:	f9408a63 	ldr	x3, [x19, #272]
   13324:	528004d4 	mov	w20, #0x26                  	// #38
   13328:	3903fe7f 	strb	wzr, [x19, #255]
   1332c:	d63f0060 	blr	x3
   13330:	f9409e61 	ldr	x1, [x19, #312]
   13334:	d2800020 	mov	x0, #0x1                   	// #1
   13338:	528004c2 	mov	w2, #0x26                  	// #38
   1333c:	39000262 	strb	w2, [x19]
   13340:	8b000021 	add	x1, x1, x0
   13344:	f9009e61 	str	x1, [x19, #312]
   13348:	17ffff40 	b	13048 <_ZN9__gnu_cxx27__verbose_terminate_handlerEv@@Base+0xc6a8>
   1334c:	f9408e62 	ldr	x2, [x19, #280]
   13350:	aa1303e0 	mov	x0, x19
   13354:	f9408a63 	ldr	x3, [x19, #272]
   13358:	3903fe7f 	strb	wzr, [x19, #255]
   1335c:	d63f0060 	blr	x3
   13360:	f9409e62 	ldr	x2, [x19, #312]
   13364:	d2800020 	mov	x0, #0x1                   	// #1
   13368:	d2800001 	mov	x1, #0x0                   	// #0
   1336c:	8b000042 	add	x2, x2, x0
   13370:	f9009e62 	str	x2, [x19, #312]
   13374:	17ffff1a 	b	12fdc <_ZN9__gnu_cxx27__verbose_terminate_handlerEv@@Base+0xc63c>
   13378:	f9408e62 	ldr	x2, [x19, #280]
   1337c:	aa0003e1 	mov	x1, x0
   13380:	f9408a63 	ldr	x3, [x19, #272]
   13384:	aa1303e0 	mov	x0, x19
   13388:	3903fe7f 	strb	wzr, [x19, #255]
   1338c:	d63f0060 	blr	x3
   13390:	f9409e62 	ldr	x2, [x19, #312]
   13394:	d2800021 	mov	x1, #0x1                   	// #1
   13398:	d2800000 	mov	x0, #0x0                   	// #0
   1339c:	8b010042 	add	x2, x2, x1
   133a0:	f9009e62 	str	x2, [x19, #312]
   133a4:	17ffff1b 	b	13010 <_ZN9__gnu_cxx27__verbose_terminate_handlerEv@@Base+0xc670>
   133a8:	f9408e62 	ldr	x2, [x19, #280]
   133ac:	aa1303e0 	mov	x0, x19
   133b0:	f9408a63 	ldr	x3, [x19, #272]
   133b4:	3903fe7f 	strb	wzr, [x19, #255]
   133b8:	d63f0060 	blr	x3
   133bc:	f9409e62 	ldr	x2, [x19, #312]
   133c0:	d2800020 	mov	x0, #0x1                   	// #1
   133c4:	d2800001 	mov	x1, #0x0                   	// #0
   133c8:	8b000042 	add	x2, x2, x0
   133cc:	f9009e62 	str	x2, [x19, #312]
   133d0:	17ffffa6 	b	13268 <_ZN9__gnu_cxx27__verbose_terminate_handlerEv@@Base+0xc8c8>
   133d4:	f9408e62 	ldr	x2, [x19, #280]
   133d8:	aa1303e0 	mov	x0, x19
   133dc:	f9408a64 	ldr	x4, [x19, #272]
   133e0:	aa0303e1 	mov	x1, x3
   133e4:	3903fe7f 	strb	wzr, [x19, #255]
   133e8:	52800555 	mov	w21, #0x2a                  	// #42
   133ec:	d63f0080 	blr	x4
   133f0:	f9409e61 	ldr	x1, [x19, #312]
   133f4:	52800742 	mov	w2, #0x3a                  	// #58
   133f8:	d2800040 	mov	x0, #0x2                   	// #2
   133fc:	39000262 	strb	w2, [x19]
   13400:	91000421 	add	x1, x1, #0x1
   13404:	39000662 	strb	w2, [x19, #1]
   13408:	f9009e61 	str	x1, [x19, #312]
   1340c:	17ffff8a 	b	13234 <_ZN9__gnu_cxx27__verbose_terminate_handlerEv@@Base+0xc894>
   13410:	f9408a63 	ldr	x3, [x19, #272]
   13414:	aa1303e0 	mov	x0, x19
   13418:	f9408e62 	ldr	x2, [x19, #280]
   1341c:	52800e94 	mov	w20, #0x74                  	// #116
   13420:	3903fe7f 	strb	wzr, [x19, #255]
   13424:	d63f0060 	blr	x3
   13428:	39000275 	strb	w21, [x19]
   1342c:	f9409e61 	ldr	x1, [x19, #312]
   13430:	d2800020 	mov	x0, #0x1                   	// #1
   13434:	8b000021 	add	x1, x1, x0
   13438:	f9009e61 	str	x1, [x19, #312]
   1343c:	17ffff03 	b	13048 <_ZN9__gnu_cxx27__verbose_terminate_handlerEv@@Base+0xc6a8>
   13440:	f9408a64 	ldr	x4, [x19, #272]
   13444:	aa1303e0 	mov	x0, x19
   13448:	f9408e62 	ldr	x2, [x19, #280]
   1344c:	aa0303e1 	mov	x1, x3
   13450:	3903fe7f 	strb	wzr, [x19, #255]
   13454:	52800e94 	mov	w20, #0x74                  	// #116
   13458:	d63f0080 	blr	x4
   1345c:	39000275 	strb	w21, [x19]
   13460:	f9409e61 	ldr	x1, [x19, #312]
   13464:	d2800040 	mov	x0, #0x2                   	// #2
   13468:	91000421 	add	x1, x1, #0x1
   1346c:	f9009e61 	str	x1, [x19, #312]
   13470:	52800e61 	mov	w1, #0x73                  	// #115
   13474:	39000661 	strb	w1, [x19, #1]
   13478:	17fffef4 	b	13048 <_ZN9__gnu_cxx27__verbose_terminate_handlerEv@@Base+0xc6a8>
   1347c:	f9408a63 	ldr	x3, [x19, #272]
   13480:	aa1303e0 	mov	x0, x19
   13484:	f9408e62 	ldr	x2, [x19, #280]
   13488:	52800e75 	mov	w21, #0x73                  	// #115
   1348c:	3903fe7f 	strb	wzr, [x19, #255]
   13490:	d63f0060 	blr	x3
   13494:	39000274 	strb	w20, [x19]
   13498:	f9409e60 	ldr	x0, [x19, #312]
   1349c:	d2800041 	mov	x1, #0x2                   	// #2
   134a0:	91000400 	add	x0, x0, #0x1
   134a4:	f9009e60 	str	x0, [x19, #312]
   134a8:	52800dc0 	mov	w0, #0x6e                  	// #110
   134ac:	39000660 	strb	w0, [x19, #1]
   134b0:	17fffead 	b	12f64 <_ZN9__gnu_cxx27__verbose_terminate_handlerEv@@Base+0xc5c4>
   134b4:	f9408e62 	ldr	x2, [x19, #280]
   134b8:	aa1303e0 	mov	x0, x19
   134bc:	f9408a63 	ldr	x3, [x19, #272]
   134c0:	3903fe7f 	strb	wzr, [x19, #255]
   134c4:	d63f0060 	blr	x3
   134c8:	f9409e62 	ldr	x2, [x19, #312]
   134cc:	d2800020 	mov	x0, #0x1                   	// #1
   134d0:	d2800001 	mov	x1, #0x0                   	// #0
   134d4:	8b000042 	add	x2, x2, x0
   134d8:	f9009e62 	str	x2, [x19, #312]
   134dc:	17fffee8 	b	1307c <_ZN9__gnu_cxx27__verbose_terminate_handlerEv@@Base+0xc6dc>
   134e0:	f9408a63 	ldr	x3, [x19, #272]
   134e4:	aa1303e0 	mov	x0, x19
   134e8:	f9408e62 	ldr	x2, [x19, #280]
   134ec:	52800df4 	mov	w20, #0x6f                  	// #111
   134f0:	3903fe7f 	strb	wzr, [x19, #255]
   134f4:	d63f0060 	blr	x3
   134f8:	f9409e60 	ldr	x0, [x19, #312]
   134fc:	52800401 	mov	w1, #0x20                  	// #32
   13500:	39000261 	strb	w1, [x19]
   13504:	d2800041 	mov	x1, #0x2                   	// #2
   13508:	91000400 	add	x0, x0, #0x1
   1350c:	f9009e60 	str	x0, [x19, #312]
   13510:	52800c60 	mov	w0, #0x63                  	// #99
   13514:	39000660 	strb	w0, [x19, #1]
   13518:	17fffe85 	b	12f2c <_ZN9__gnu_cxx27__verbose_terminate_handlerEv@@Base+0xc58c>
   1351c:	f9408e62 	ldr	x2, [x19, #280]
   13520:	aa0003e1 	mov	x1, x0
   13524:	f9408a63 	ldr	x3, [x19, #272]
   13528:	aa1303e0 	mov	x0, x19
   1352c:	3903fe7f 	strb	wzr, [x19, #255]
   13530:	d63f0060 	blr	x3
   13534:	f9409e62 	ldr	x2, [x19, #312]
   13538:	d2800021 	mov	x1, #0x1                   	// #1
   1353c:	d2800000 	mov	x0, #0x0                   	// #0
   13540:	8b010042 	add	x2, x2, x1
   13544:	f9009e62 	str	x2, [x19, #312]
   13548:	17fffe9e 	b	12fc0 <_ZN9__gnu_cxx27__verbose_terminate_handlerEv@@Base+0xc620>
   1354c:	f9408e62 	ldr	x2, [x19, #280]
   13550:	aa1303e0 	mov	x0, x19
   13554:	f9408a63 	ldr	x3, [x19, #272]
   13558:	3903fe7f 	strb	wzr, [x19, #255]
   1355c:	d63f0060 	blr	x3
   13560:	f9409e62 	ldr	x2, [x19, #312]
   13564:	d2800020 	mov	x0, #0x1                   	// #1
   13568:	d2800001 	mov	x1, #0x0                   	// #0
   1356c:	8b000042 	add	x2, x2, x0
   13570:	f9009e62 	str	x2, [x19, #312]
   13574:	17ffff17 	b	131d0 <_ZN9__gnu_cxx27__verbose_terminate_handlerEv@@Base+0xc830>
   13578:	f9408e62 	ldr	x2, [x19, #280]
   1357c:	aa1303e0 	mov	x0, x19
   13580:	f9408a63 	ldr	x3, [x19, #272]
   13584:	3903fe7f 	strb	wzr, [x19, #255]
   13588:	d63f0060 	blr	x3
   1358c:	f9409e62 	ldr	x2, [x19, #312]
   13590:	d2800020 	mov	x0, #0x1                   	// #1
   13594:	d2800001 	mov	x1, #0x0                   	// #0
   13598:	8b000042 	add	x2, x2, x0
   1359c:	f9009e62 	str	x2, [x19, #312]
   135a0:	17fffec4 	b	130b0 <_ZN9__gnu_cxx27__verbose_terminate_handlerEv@@Base+0xc710>
   135a4:	a9bb7bfd 	stp	x29, x30, [sp, #-80]!
   135a8:	910003fd 	mov	x29, sp
   135ac:	a90153f3 	stp	x19, x20, [sp, #16]
   135b0:	a9025bf5 	stp	x21, x22, [sp, #32]
   135b4:	a90363f7 	stp	x23, x24, [sp, #48]
   135b8:	f90023f9 	str	x25, [sp, #64]
   135bc:	aa0203f3 	mov	x19, x2
   135c0:	aa0003f4 	mov	x20, x0
   135c4:	2a0103f5 	mov	w21, w1
   135c8:	2a0303f7 	mov	w23, w3
   135cc:	b40003e2 	cbz	x2, 13648 <_ZN9__gnu_cxx27__verbose_terminate_handlerEv@@Base+0xcca8>
   135d0:	b9413000 	ldr	w0, [x0, #304]
   135d4:	52800036 	mov	w22, #0x1                   	// #1
   135d8:	34000080 	cbz	w0, 135e8 <_ZN9__gnu_cxx27__verbose_terminate_handlerEv@@Base+0xcc48>
   135dc:	1400001b 	b	13648 <_ZN9__gnu_cxx27__verbose_terminate_handlerEv@@Base+0xcca8>
   135e0:	b9413280 	ldr	w0, [x20, #304]
   135e4:	35000320 	cbnz	w0, 13648 <_ZN9__gnu_cxx27__verbose_terminate_handlerEv@@Base+0xcca8>
   135e8:	b9401260 	ldr	w0, [x19, #16]
   135ec:	350002a0 	cbnz	w0, 13640 <_ZN9__gnu_cxx27__verbose_terminate_handlerEv@@Base+0xcca0>
   135f0:	f9400662 	ldr	x2, [x19, #8]
   135f4:	b9400040 	ldr	w0, [x2]
   135f8:	35000097 	cbnz	w23, 13608 <_ZN9__gnu_cxx27__verbose_terminate_handlerEv@@Base+0xcc68>
   135fc:	51007001 	sub	w1, w0, #0x1c
   13600:	7100103f 	cmp	w1, #0x4
   13604:	540001e9 	b.ls	13640 <_ZN9__gnu_cxx27__verbose_terminate_handlerEv@@Base+0xcca0>  // b.plast
   13608:	b9001276 	str	w22, [x19, #16]
   1360c:	7100a41f 	cmp	w0, #0x29
   13610:	f9400e61 	ldr	x1, [x19, #24]
   13614:	f9409298 	ldr	x24, [x20, #288]
   13618:	f9009281 	str	x1, [x20, #288]
   1361c:	54000220 	b.eq	13660 <_ZN9__gnu_cxx27__verbose_terminate_handlerEv@@Base+0xccc0>  // b.none
   13620:	7100a81f 	cmp	w0, #0x2a
   13624:	54000360 	b.eq	13690 <_ZN9__gnu_cxx27__verbose_terminate_handlerEv@@Base+0xccf0>  // b.none
   13628:	7100081f 	cmp	w0, #0x2
   1362c:	540004a0 	b.eq	136c0 <_ZN9__gnu_cxx27__verbose_terminate_handlerEv@@Base+0xcd20>  // b.none
   13630:	aa1403e0 	mov	x0, x20
   13634:	2a1503e1 	mov	w1, w21
   13638:	97fffdbb 	bl	12d24 <_ZN9__gnu_cxx27__verbose_terminate_handlerEv@@Base+0xc384>
   1363c:	f9009298 	str	x24, [x20, #288]
   13640:	f9400273 	ldr	x19, [x19]
   13644:	b5fffcf3 	cbnz	x19, 135e0 <_ZN9__gnu_cxx27__verbose_terminate_handlerEv@@Base+0xcc40>
   13648:	a94153f3 	ldp	x19, x20, [sp, #16]
   1364c:	a9425bf5 	ldp	x21, x22, [sp, #32]
   13650:	a94363f7 	ldp	x23, x24, [sp, #48]
   13654:	f94023f9 	ldr	x25, [sp, #64]
   13658:	a8c57bfd 	ldp	x29, x30, [sp], #80
   1365c:	d65f03c0 	ret
   13660:	f9400263 	ldr	x3, [x19]
   13664:	aa1403e0 	mov	x0, x20
   13668:	2a1503e1 	mov	w1, w21
   1366c:	91004042 	add	x2, x2, #0x10
   13670:	94000144 	bl	13b80 <_ZN9__gnu_cxx27__verbose_terminate_handlerEv@@Base+0xd1e0>
   13674:	f9009298 	str	x24, [x20, #288]
   13678:	a9425bf5 	ldp	x21, x22, [sp, #32]
   1367c:	a94153f3 	ldp	x19, x20, [sp, #16]
   13680:	a94363f7 	ldp	x23, x24, [sp, #48]
   13684:	f94023f9 	ldr	x25, [sp, #64]
   13688:	a8c57bfd 	ldp	x29, x30, [sp], #80
   1368c:	d65f03c0 	ret
   13690:	f9400263 	ldr	x3, [x19]
   13694:	aa1403e0 	mov	x0, x20
   13698:	2a1503e1 	mov	w1, w21
   1369c:	91002042 	add	x2, x2, #0x8
   136a0:	94000086 	bl	138b8 <_ZN9__gnu_cxx27__verbose_terminate_handlerEv@@Base+0xcf18>
   136a4:	f9009298 	str	x24, [x20, #288]
   136a8:	a9425bf5 	ldp	x21, x22, [sp, #32]
   136ac:	a94153f3 	ldp	x19, x20, [sp, #16]
   136b0:	a94363f7 	ldp	x23, x24, [sp, #48]
   136b4:	f94023f9 	ldr	x25, [sp, #64]
   136b8:	a8c57bfd 	ldp	x29, x30, [sp], #80
   136bc:	d65f03c0 	ret
   136c0:	f9409696 	ldr	x22, [x20, #296]
   136c4:	2a1503e1 	mov	w1, w21
   136c8:	f900969f 	str	xzr, [x20, #296]
   136cc:	aa1403e0 	mov	x0, x20
   136d0:	f9400442 	ldr	x2, [x2, #8]
   136d4:	97ffef11 	bl	f318 <_ZN9__gnu_cxx27__verbose_terminate_handlerEv@@Base+0x8978>
   136d8:	f9009696 	str	x22, [x20, #296]
   136dc:	f9408281 	ldr	x1, [x20, #256]
   136e0:	f103fc3f 	cmp	x1, #0xff
   136e4:	371001f5 	tbnz	w21, #2, 13720 <_ZN9__gnu_cxx27__verbose_terminate_handlerEv@@Base+0xcd80>
   136e8:	540006c0 	b.eq	137c0 <_ZN9__gnu_cxx27__verbose_terminate_handlerEv@@Base+0xce20>  // b.none
   136ec:	91000420 	add	x0, x1, #0x1
   136f0:	f9008280 	str	x0, [x20, #256]
   136f4:	52800742 	mov	w2, #0x3a                  	// #58
   136f8:	38216a82 	strb	w2, [x20, x1]
   136fc:	39042282 	strb	w2, [x20, #264]
   13700:	f103fc1f 	cmp	x0, #0xff
   13704:	52800756 	mov	w22, #0x3a                  	// #58
   13708:	54000440 	b.eq	13790 <_ZN9__gnu_cxx27__verbose_terminate_handlerEv@@Base+0xcdf0>  // b.none
   1370c:	91000401 	add	x1, x0, #0x1
   13710:	f9008281 	str	x1, [x20, #256]
   13714:	38206a96 	strb	w22, [x20, x0]
   13718:	39042296 	strb	w22, [x20, #264]
   1371c:	14000007 	b	13738 <_ZN9__gnu_cxx27__verbose_terminate_handlerEv@@Base+0xcd98>
   13720:	540006a0 	b.eq	137f4 <_ZN9__gnu_cxx27__verbose_terminate_handlerEv@@Base+0xce54>  // b.none
   13724:	91000420 	add	x0, x1, #0x1
   13728:	f9008280 	str	x0, [x20, #256]
   1372c:	528005c0 	mov	w0, #0x2e                  	// #46
   13730:	38216a80 	strb	w0, [x20, x1]
   13734:	39042280 	strb	w0, [x20, #264]
   13738:	f9400660 	ldr	x0, [x19, #8]
   1373c:	f9400813 	ldr	x19, [x0, #16]
   13740:	b9400260 	ldr	w0, [x19]
   13744:	7101181f 	cmp	w0, #0x46
   13748:	54000081 	b.ne	13758 <_ZN9__gnu_cxx27__verbose_terminate_handlerEv@@Base+0xcdb8>  // b.any
   1374c:	14000035 	b	13820 <_ZN9__gnu_cxx27__verbose_terminate_handlerEv@@Base+0xce80>
   13750:	f9400673 	ldr	x19, [x19, #8]
   13754:	b9400260 	ldr	w0, [x19]
   13758:	51007000 	sub	w0, w0, #0x1c
   1375c:	7100101f 	cmp	w0, #0x4
   13760:	54ffff89 	b.ls	13750 <_ZN9__gnu_cxx27__verbose_terminate_handlerEv@@Base+0xcdb0>  // b.plast
   13764:	aa1403e0 	mov	x0, x20
   13768:	2a1503e1 	mov	w1, w21
   1376c:	aa1303e2 	mov	x2, x19
   13770:	97ffeeea 	bl	f318 <_ZN9__gnu_cxx27__verbose_terminate_handlerEv@@Base+0x8978>
   13774:	f9009298 	str	x24, [x20, #288]
   13778:	a9425bf5 	ldp	x21, x22, [sp, #32]
   1377c:	a94153f3 	ldp	x19, x20, [sp, #16]
   13780:	a94363f7 	ldp	x23, x24, [sp, #48]
   13784:	f94023f9 	ldr	x25, [sp, #64]
   13788:	a8c57bfd 	ldp	x29, x30, [sp], #80
   1378c:	d65f03c0 	ret
   13790:	f9408e82 	ldr	x2, [x20, #280]
   13794:	aa0003e1 	mov	x1, x0
   13798:	f9408a83 	ldr	x3, [x20, #272]
   1379c:	aa1403e0 	mov	x0, x20
   137a0:	3903fe9f 	strb	wzr, [x20, #255]
   137a4:	d63f0060 	blr	x3
   137a8:	f9409e82 	ldr	x2, [x20, #312]
   137ac:	d2800021 	mov	x1, #0x1                   	// #1
   137b0:	d2800000 	mov	x0, #0x0                   	// #0
   137b4:	8b010042 	add	x2, x2, x1
   137b8:	f9009e82 	str	x2, [x20, #312]
   137bc:	17ffffd5 	b	13710 <_ZN9__gnu_cxx27__verbose_terminate_handlerEv@@Base+0xcd70>
   137c0:	f9408e82 	ldr	x2, [x20, #280]
   137c4:	aa1403e0 	mov	x0, x20
   137c8:	f9408a83 	ldr	x3, [x20, #272]
   137cc:	52800756 	mov	w22, #0x3a                  	// #58
   137d0:	3903fe9f 	strb	wzr, [x20, #255]
   137d4:	d63f0060 	blr	x3
   137d8:	f9409e81 	ldr	x1, [x20, #312]
   137dc:	d2800020 	mov	x0, #0x1                   	// #1
   137e0:	52800742 	mov	w2, #0x3a                  	// #58
   137e4:	39000282 	strb	w2, [x20]
   137e8:	8b000021 	add	x1, x1, x0
   137ec:	f9009e81 	str	x1, [x20, #312]
   137f0:	17ffffc7 	b	1370c <_ZN9__gnu_cxx27__verbose_terminate_handlerEv@@Base+0xcd6c>
   137f4:	f9408e82 	ldr	x2, [x20, #280]
   137f8:	aa1403e0 	mov	x0, x20
   137fc:	f9408a83 	ldr	x3, [x20, #272]
   13800:	3903fe9f 	strb	wzr, [x20, #255]
   13804:	d63f0060 	blr	x3
   13808:	f9409e82 	ldr	x2, [x20, #312]
   1380c:	d2800020 	mov	x0, #0x1                   	// #1
   13810:	d2800001 	mov	x1, #0x0                   	// #0
   13814:	8b000042 	add	x2, x2, x0
   13818:	f9009e82 	str	x2, [x20, #312]
   1381c:	17ffffc3 	b	13728 <_ZN9__gnu_cxx27__verbose_terminate_handlerEv@@Base+0xcd88>
   13820:	b0000036 	adrp	x22, 18000 <_ZTSN10__cxxabiv117__class_type_infoE@@Base>
   13824:	b0000039 	adrp	x25, 18000 <_ZTSN10__cxxabiv117__class_type_infoE@@Base>
   13828:	f9408281 	ldr	x1, [x20, #256]
   1382c:	911722d6 	add	x22, x22, #0x5c8
   13830:	91175739 	add	x25, x25, #0x5d5
   13834:	14000008 	b	13854 <_ZN9__gnu_cxx27__verbose_terminate_handlerEv@@Base+0xceb4>
   13838:	91000421 	add	x1, x1, #0x1
   1383c:	f9008281 	str	x1, [x20, #256]
   13840:	910006d6 	add	x22, x22, #0x1
   13844:	38206a97 	strb	w23, [x20, x0]
   13848:	eb1902df 	cmp	x22, x25
   1384c:	39042297 	strb	w23, [x20, #264]
   13850:	54000200 	b.eq	13890 <_ZN9__gnu_cxx27__verbose_terminate_handlerEv@@Base+0xcef0>  // b.none
   13854:	f103fc3f 	cmp	x1, #0xff
   13858:	394002d7 	ldrb	w23, [x22]
   1385c:	aa0103e0 	mov	x0, x1
   13860:	54fffec1 	b.ne	13838 <_ZN9__gnu_cxx27__verbose_terminate_handlerEv@@Base+0xce98>  // b.any
   13864:	f9408e82 	ldr	x2, [x20, #280]
   13868:	aa1403e0 	mov	x0, x20
   1386c:	f9408a83 	ldr	x3, [x20, #272]
   13870:	3903fe9f 	strb	wzr, [x20, #255]
   13874:	d63f0060 	blr	x3
   13878:	f9409e82 	ldr	x2, [x20, #312]
   1387c:	d2800021 	mov	x1, #0x1                   	// #1
   13880:	d2800000 	mov	x0, #0x0                   	// #0
   13884:	8b010042 	add	x2, x2, x1
   13888:	f9009e82 	str	x2, [x20, #312]
   1388c:	17ffffec 	b	1383c <_ZN9__gnu_cxx27__verbose_terminate_handlerEv@@Base+0xce9c>
   13890:	b9401261 	ldr	w1, [x19, #16]
   13894:	aa1403e0 	mov	x0, x20
   13898:	11000421 	add	w1, w1, #0x1
   1389c:	93407c21 	sxtw	x1, w1
   138a0:	97ffcf76 	bl	7678 <_ZN9__gnu_cxx27__verbose_terminate_handlerEv@@Base+0xcd8>
   138a4:	b0000021 	adrp	x1, 18000 <_ZTSN10__cxxabiv117__class_type_infoE@@Base>
   138a8:	aa1403e0 	mov	x0, x20
   138ac:	91176021 	add	x1, x1, #0x5d8
   138b0:	97ffcef0 	bl	7470 <_ZN9__gnu_cxx27__verbose_terminate_handlerEv@@Base+0xad0>
   138b4:	17ffffa7 	b	13750 <_ZN9__gnu_cxx27__verbose_terminate_handlerEv@@Base+0xcdb0>
   138b8:	a9bc7bfd 	stp	x29, x30, [sp, #-64]!
   138bc:	910003fd 	mov	x29, sp
   138c0:	a90153f3 	stp	x19, x20, [sp, #16]
   138c4:	a9025bf5 	stp	x21, x22, [sp, #32]
   138c8:	aa0003f3 	mov	x19, x0
   138cc:	2a0103f4 	mov	w20, w1
   138d0:	aa0203f5 	mov	x21, x2
   138d4:	aa0303e0 	mov	x0, x3
   138d8:	b4000143 	cbz	x3, 13900 <_ZN9__gnu_cxx27__verbose_terminate_handlerEv@@Base+0xcf60>
   138dc:	b9401001 	ldr	w1, [x0, #16]
   138e0:	34000501 	cbz	w1, 13980 <_ZN9__gnu_cxx27__verbose_terminate_handlerEv@@Base+0xcfe0>
   138e4:	f9400000 	ldr	x0, [x0]
   138e8:	b5ffffa0 	cbnz	x0, 138dc <_ZN9__gnu_cxx27__verbose_terminate_handlerEv@@Base+0xcf3c>
   138ec:	aa0303e2 	mov	x2, x3
   138f0:	aa1303e0 	mov	x0, x19
   138f4:	2a1403e1 	mov	w1, w20
   138f8:	52800003 	mov	w3, #0x0                   	// #0
   138fc:	97ffff2a 	bl	135a4 <_ZN9__gnu_cxx27__verbose_terminate_handlerEv@@Base+0xcc04>
   13900:	f9408260 	ldr	x0, [x19, #256]
   13904:	f103fc1f 	cmp	x0, #0xff
   13908:	54000ee0 	b.eq	13ae4 <_ZN9__gnu_cxx27__verbose_terminate_handlerEv@@Base+0xd144>  // b.none
   1390c:	91000401 	add	x1, x0, #0x1
   13910:	f9008261 	str	x1, [x19, #256]
   13914:	52800402 	mov	w2, #0x20                  	// #32
   13918:	38206a62 	strb	w2, [x19, x0]
   1391c:	f103fc3f 	cmp	x1, #0xff
   13920:	39042262 	strb	w2, [x19, #264]
   13924:	54000800 	b.eq	13a24 <_ZN9__gnu_cxx27__verbose_terminate_handlerEv@@Base+0xd084>  // b.none
   13928:	91000420 	add	x0, x1, #0x1
   1392c:	f9008260 	str	x0, [x19, #256]
   13930:	52800b62 	mov	w2, #0x5b                  	// #91
   13934:	38216a62 	strb	w2, [x19, x1]
   13938:	39042262 	strb	w2, [x19, #264]
   1393c:	f94002a2 	ldr	x2, [x21]
   13940:	b40000a2 	cbz	x2, 13954 <_ZN9__gnu_cxx27__verbose_terminate_handlerEv@@Base+0xcfb4>
   13944:	aa1303e0 	mov	x0, x19
   13948:	2a1403e1 	mov	w1, w20
   1394c:	97ffee73 	bl	f318 <_ZN9__gnu_cxx27__verbose_terminate_handlerEv@@Base+0x8978>
   13950:	f9408260 	ldr	x0, [x19, #256]
   13954:	f103fc1f 	cmp	x0, #0xff
   13958:	54000860 	b.eq	13a64 <_ZN9__gnu_cxx27__verbose_terminate_handlerEv@@Base+0xd0c4>  // b.none
   1395c:	91000401 	add	x1, x0, #0x1
   13960:	f9008261 	str	x1, [x19, #256]
   13964:	52800ba1 	mov	w1, #0x5d                  	// #93
   13968:	38206a61 	strb	w1, [x19, x0]
   1396c:	39042261 	strb	w1, [x19, #264]
   13970:	a94153f3 	ldp	x19, x20, [sp, #16]
   13974:	a9425bf5 	ldp	x21, x22, [sp, #32]
   13978:	a8c47bfd 	ldp	x29, x30, [sp], #64
   1397c:	d65f03c0 	ret
   13980:	f9400400 	ldr	x0, [x0, #8]
   13984:	b9400000 	ldr	w0, [x0]
   13988:	7100a81f 	cmp	w0, #0x2a
   1398c:	540003c0 	b.eq	13a04 <_ZN9__gnu_cxx27__verbose_terminate_handlerEv@@Base+0xd064>  // b.none
   13990:	f9408264 	ldr	x4, [x19, #256]
   13994:	f103fc9f 	cmp	x4, #0xff
   13998:	54000be0 	b.eq	13b14 <_ZN9__gnu_cxx27__verbose_terminate_handlerEv@@Base+0xd174>  // b.none
   1399c:	91000481 	add	x1, x4, #0x1
   139a0:	f9008261 	str	x1, [x19, #256]
   139a4:	52800400 	mov	w0, #0x20                  	// #32
   139a8:	38246a60 	strb	w0, [x19, x4]
   139ac:	39042260 	strb	w0, [x19, #264]
   139b0:	f103fc3f 	cmp	x1, #0xff
   139b4:	52800516 	mov	w22, #0x28                  	// #40
   139b8:	540007c0 	b.eq	13ab0 <_ZN9__gnu_cxx27__verbose_terminate_handlerEv@@Base+0xd110>  // b.none
   139bc:	91000420 	add	x0, x1, #0x1
   139c0:	f9008260 	str	x0, [x19, #256]
   139c4:	aa0303e2 	mov	x2, x3
   139c8:	38216a76 	strb	w22, [x19, x1]
   139cc:	aa1303e0 	mov	x0, x19
   139d0:	2a1403e1 	mov	w1, w20
   139d4:	39042276 	strb	w22, [x19, #264]
   139d8:	52800003 	mov	w3, #0x0                   	// #0
   139dc:	97fffef2 	bl	135a4 <_ZN9__gnu_cxx27__verbose_terminate_handlerEv@@Base+0xcc04>
   139e0:	f9408261 	ldr	x1, [x19, #256]
   139e4:	f103fc3f 	cmp	x1, #0xff
   139e8:	91000420 	add	x0, x1, #0x1
   139ec:	54000b40 	b.eq	13b54 <_ZN9__gnu_cxx27__verbose_terminate_handlerEv@@Base+0xd1b4>  // b.none
   139f0:	f9008260 	str	x0, [x19, #256]
   139f4:	52800522 	mov	w2, #0x29                  	// #41
   139f8:	38216a62 	strb	w2, [x19, x1]
   139fc:	39042262 	strb	w2, [x19, #264]
   13a00:	17ffffc1 	b	13904 <_ZN9__gnu_cxx27__verbose_terminate_handlerEv@@Base+0xcf64>
   13a04:	2a1403e1 	mov	w1, w20
   13a08:	aa0303e2 	mov	x2, x3
   13a0c:	aa1303e0 	mov	x0, x19
   13a10:	52800003 	mov	w3, #0x0                   	// #0
   13a14:	97fffee4 	bl	135a4 <_ZN9__gnu_cxx27__verbose_terminate_handlerEv@@Base+0xcc04>
   13a18:	f9408261 	ldr	x1, [x19, #256]
   13a1c:	f103fc3f 	cmp	x1, #0xff
   13a20:	54fff841 	b.ne	13928 <_ZN9__gnu_cxx27__verbose_terminate_handlerEv@@Base+0xcf88>  // b.any
   13a24:	f9408e62 	ldr	x2, [x19, #280]
   13a28:	aa1303e0 	mov	x0, x19
   13a2c:	f9408a63 	ldr	x3, [x19, #272]
   13a30:	3903fe7f 	strb	wzr, [x19, #255]
   13a34:	d63f0060 	blr	x3
   13a38:	52800b61 	mov	w1, #0x5b                  	// #91
   13a3c:	39000261 	strb	w1, [x19]
   13a40:	39042261 	strb	w1, [x19, #264]
   13a44:	d2800020 	mov	x0, #0x1                   	// #1
   13a48:	f9409e61 	ldr	x1, [x19, #312]
   13a4c:	f94002a2 	ldr	x2, [x21]
   13a50:	8b000021 	add	x1, x1, x0
   13a54:	f9008260 	str	x0, [x19, #256]
   13a58:	f9009e61 	str	x1, [x19, #312]
   13a5c:	b5fff742 	cbnz	x2, 13944 <_ZN9__gnu_cxx27__verbose_terminate_handlerEv@@Base+0xcfa4>
   13a60:	17ffffbf 	b	1395c <_ZN9__gnu_cxx27__verbose_terminate_handlerEv@@Base+0xcfbc>
   13a64:	f9408a63 	ldr	x3, [x19, #272]
   13a68:	aa0003e1 	mov	x1, x0
   13a6c:	f9408e62 	ldr	x2, [x19, #280]
   13a70:	aa1303e0 	mov	x0, x19
   13a74:	3903fe7f 	strb	wzr, [x19, #255]
   13a78:	d63f0060 	blr	x3
   13a7c:	f9409e62 	ldr	x2, [x19, #312]
   13a80:	d2800000 	mov	x0, #0x0                   	// #0
   13a84:	d2800021 	mov	x1, #0x1                   	// #1
   13a88:	f9008261 	str	x1, [x19, #256]
   13a8c:	8b010042 	add	x2, x2, x1
   13a90:	f9009e62 	str	x2, [x19, #312]
   13a94:	52800ba1 	mov	w1, #0x5d                  	// #93
   13a98:	38206a61 	strb	w1, [x19, x0]
   13a9c:	39042261 	strb	w1, [x19, #264]
   13aa0:	a94153f3 	ldp	x19, x20, [sp, #16]
   13aa4:	a9425bf5 	ldp	x21, x22, [sp, #32]
   13aa8:	a8c47bfd 	ldp	x29, x30, [sp], #64
   13aac:	d65f03c0 	ret
   13ab0:	f9408e62 	ldr	x2, [x19, #280]
   13ab4:	aa1303e0 	mov	x0, x19
   13ab8:	f9408a64 	ldr	x4, [x19, #272]
   13abc:	3903fe7f 	strb	wzr, [x19, #255]
   13ac0:	f9001fa3 	str	x3, [x29, #56]
   13ac4:	d63f0080 	blr	x4
   13ac8:	f9409e62 	ldr	x2, [x19, #312]
   13acc:	d2800020 	mov	x0, #0x1                   	// #1
   13ad0:	d2800001 	mov	x1, #0x0                   	// #0
   13ad4:	f9401fa3 	ldr	x3, [x29, #56]
   13ad8:	8b000042 	add	x2, x2, x0
   13adc:	f9009e62 	str	x2, [x19, #312]
   13ae0:	17ffffb8 	b	139c0 <_ZN9__gnu_cxx27__verbose_terminate_handlerEv@@Base+0xd020>
   13ae4:	f9408e62 	ldr	x2, [x19, #280]
   13ae8:	aa0003e1 	mov	x1, x0
   13aec:	f9408a63 	ldr	x3, [x19, #272]
   13af0:	aa1303e0 	mov	x0, x19
   13af4:	3903fe7f 	strb	wzr, [x19, #255]
   13af8:	d63f0060 	blr	x3
   13afc:	f9409e62 	ldr	x2, [x19, #312]
   13b00:	d2800021 	mov	x1, #0x1                   	// #1
   13b04:	d2800000 	mov	x0, #0x0                   	// #0
   13b08:	8b010042 	add	x2, x2, x1
   13b0c:	f9009e62 	str	x2, [x19, #312]
   13b10:	17ffff80 	b	13910 <_ZN9__gnu_cxx27__verbose_terminate_handlerEv@@Base+0xcf70>
   13b14:	f9408e62 	ldr	x2, [x19, #280]
   13b18:	aa1303e0 	mov	x0, x19
   13b1c:	f9408a65 	ldr	x5, [x19, #272]
   13b20:	aa0403e1 	mov	x1, x4
   13b24:	3903fe7f 	strb	wzr, [x19, #255]
   13b28:	52800516 	mov	w22, #0x28                  	// #40
   13b2c:	f9001fa3 	str	x3, [x29, #56]
   13b30:	d63f00a0 	blr	x5
   13b34:	f9409e60 	ldr	x0, [x19, #312]
   13b38:	d2800021 	mov	x1, #0x1                   	// #1
   13b3c:	52800402 	mov	w2, #0x20                  	// #32
   13b40:	f9401fa3 	ldr	x3, [x29, #56]
   13b44:	8b010000 	add	x0, x0, x1
   13b48:	39000262 	strb	w2, [x19]
   13b4c:	f9009e60 	str	x0, [x19, #312]
   13b50:	17ffff9b 	b	139bc <_ZN9__gnu_cxx27__verbose_terminate_handlerEv@@Base+0xd01c>
   13b54:	f9408e62 	ldr	x2, [x19, #280]
   13b58:	aa1303e0 	mov	x0, x19
   13b5c:	f9408a63 	ldr	x3, [x19, #272]
   13b60:	3903fe7f 	strb	wzr, [x19, #255]
   13b64:	d63f0060 	blr	x3
   13b68:	f9409e62 	ldr	x2, [x19, #312]
   13b6c:	d2800020 	mov	x0, #0x1                   	// #1
   13b70:	d2800001 	mov	x1, #0x0                   	// #0
   13b74:	8b000042 	add	x2, x2, x0
   13b78:	f9009e62 	str	x2, [x19, #312]
   13b7c:	17ffff9d 	b	139f0 <_ZN9__gnu_cxx27__verbose_terminate_handlerEv@@Base+0xd050>
   13b80:	a9bc7bfd 	stp	x29, x30, [sp, #-64]!
   13b84:	910003fd 	mov	x29, sp
   13b88:	a90153f3 	stp	x19, x20, [sp, #16]
   13b8c:	a9025bf5 	stp	x21, x22, [sp, #32]
   13b90:	f9001bf7 	str	x23, [sp, #48]
   13b94:	aa0303f6 	mov	x22, x3
   13b98:	aa0003f3 	mov	x19, x0
   13b9c:	2a0103f4 	mov	w20, w1
   13ba0:	aa0203f5 	mov	x21, x2
   13ba4:	b4000263 	cbz	x3, 13bf0 <_ZN9__gnu_cxx27__verbose_terminate_handlerEv@@Base+0xd250>
   13ba8:	b9401060 	ldr	w0, [x3, #16]
   13bac:	35000220 	cbnz	w0, 13bf0 <_ZN9__gnu_cxx27__verbose_terminate_handlerEv@@Base+0xd250>
   13bb0:	b0000022 	adrp	x2, 18000 <_ZTSN10__cxxabiv117__class_type_infoE@@Base>
   13bb4:	aa0303e0 	mov	x0, x3
   13bb8:	9114e042 	add	x2, x2, #0x538
   13bbc:	f9400401 	ldr	x1, [x0, #8]
   13bc0:	b9400021 	ldr	w1, [x1]
   13bc4:	51006421 	sub	w1, w1, #0x19
   13bc8:	7100483f 	cmp	w1, #0x12
   13bcc:	540000a8 	b.hi	13be0 <_ZN9__gnu_cxx27__verbose_terminate_handlerEv@@Base+0xd240>  // b.pmore
   13bd0:	38614841 	ldrb	w1, [x2, w1, uxtw]
   13bd4:	10000063 	adr	x3, 13be0 <_ZN9__gnu_cxx27__verbose_terminate_handlerEv@@Base+0xd240>
   13bd8:	8b218861 	add	x1, x3, w1, sxtb #2
   13bdc:	d61f0020 	br	x1
   13be0:	f9400000 	ldr	x0, [x0]
   13be4:	b4000060 	cbz	x0, 13bf0 <_ZN9__gnu_cxx27__verbose_terminate_handlerEv@@Base+0xd250>
   13be8:	b9401001 	ldr	w1, [x0, #16]
   13bec:	34fffe81 	cbz	w1, 13bbc <_ZN9__gnu_cxx27__verbose_terminate_handlerEv@@Base+0xd21c>
   13bf0:	f9409677 	ldr	x23, [x19, #296]
   13bf4:	2a1403e1 	mov	w1, w20
   13bf8:	aa1303e0 	mov	x0, x19
   13bfc:	f900967f 	str	xzr, [x19, #296]
   13c00:	aa1603e2 	mov	x2, x22
   13c04:	52800003 	mov	w3, #0x0                   	// #0
   13c08:	97fffe67 	bl	135a4 <_ZN9__gnu_cxx27__verbose_terminate_handlerEv@@Base+0xcc04>
   13c0c:	f9408261 	ldr	x1, [x19, #256]
   13c10:	f103fc3f 	cmp	x1, #0xff
   13c14:	54000a60 	b.eq	13d60 <_ZN9__gnu_cxx27__verbose_terminate_handlerEv@@Base+0xd3c0>  // b.none
   13c18:	91000420 	add	x0, x1, #0x1
   13c1c:	f9008260 	str	x0, [x19, #256]
   13c20:	52800502 	mov	w2, #0x28                  	// #40
   13c24:	38216a62 	strb	w2, [x19, x1]
   13c28:	39042262 	strb	w2, [x19, #264]
   13c2c:	f94002a2 	ldr	x2, [x21]
   13c30:	b40000a2 	cbz	x2, 13c44 <_ZN9__gnu_cxx27__verbose_terminate_handlerEv@@Base+0xd2a4>
   13c34:	aa1303e0 	mov	x0, x19
   13c38:	2a1403e1 	mov	w1, w20
   13c3c:	97ffedb7 	bl	f318 <_ZN9__gnu_cxx27__verbose_terminate_handlerEv@@Base+0x8978>
   13c40:	f9408260 	ldr	x0, [x19, #256]
   13c44:	f103fc1f 	cmp	x0, #0xff
   13c48:	54000ac0 	b.eq	13da0 <_ZN9__gnu_cxx27__verbose_terminate_handlerEv@@Base+0xd400>  // b.none
   13c4c:	91000401 	add	x1, x0, #0x1
   13c50:	f9008261 	str	x1, [x19, #256]
   13c54:	52800521 	mov	w1, #0x29                  	// #41
   13c58:	38206a61 	strb	w1, [x19, x0]
   13c5c:	aa1603e2 	mov	x2, x22
   13c60:	aa1303e0 	mov	x0, x19
   13c64:	39042261 	strb	w1, [x19, #264]
   13c68:	52800023 	mov	w3, #0x1                   	// #1
   13c6c:	2a1403e1 	mov	w1, w20
   13c70:	97fffe4d 	bl	135a4 <_ZN9__gnu_cxx27__verbose_terminate_handlerEv@@Base+0xcc04>
   13c74:	f9009677 	str	x23, [x19, #296]
   13c78:	a9425bf5 	ldp	x21, x22, [sp, #32]
   13c7c:	a94153f3 	ldp	x19, x20, [sp, #16]
   13c80:	f9401bf7 	ldr	x23, [sp, #48]
   13c84:	a8c47bfd 	ldp	x29, x30, [sp], #64
   13c88:	d65f03c0 	ret
   13c8c:	39442260 	ldrb	w0, [x19, #264]
   13c90:	7100801f 	cmp	w0, #0x20
   13c94:	54000340 	b.eq	13cfc <_ZN9__gnu_cxx27__verbose_terminate_handlerEv@@Base+0xd35c>  // b.none
   13c98:	f9408260 	ldr	x0, [x19, #256]
   13c9c:	f103fc1f 	cmp	x0, #0xff
   13ca0:	54000b00 	b.eq	13e00 <_ZN9__gnu_cxx27__verbose_terminate_handlerEv@@Base+0xd460>  // b.none
   13ca4:	91000401 	add	x1, x0, #0x1
   13ca8:	f9008261 	str	x1, [x19, #256]
   13cac:	52800402 	mov	w2, #0x20                  	// #32
   13cb0:	38206a62 	strb	w2, [x19, x0]
   13cb4:	f103fc3f 	cmp	x1, #0xff
   13cb8:	39042262 	strb	w2, [x19, #264]
   13cbc:	54000261 	b.ne	13d08 <_ZN9__gnu_cxx27__verbose_terminate_handlerEv@@Base+0xd368>  // b.any
   13cc0:	f9408e62 	ldr	x2, [x19, #280]
   13cc4:	aa1303e0 	mov	x0, x19
   13cc8:	f9408a63 	ldr	x3, [x19, #272]
   13ccc:	3903fe7f 	strb	wzr, [x19, #255]
   13cd0:	d63f0060 	blr	x3
   13cd4:	f9409e62 	ldr	x2, [x19, #312]
   13cd8:	d2800020 	mov	x0, #0x1                   	// #1
   13cdc:	d2800001 	mov	x1, #0x0                   	// #0
   13ce0:	8b000042 	add	x2, x2, x0
   13ce4:	f9009e62 	str	x2, [x19, #312]
   13ce8:	14000009 	b	13d0c <_ZN9__gnu_cxx27__verbose_terminate_handlerEv@@Base+0xd36c>
   13cec:	39442260 	ldrb	w0, [x19, #264]
   13cf0:	121e7801 	and	w1, w0, #0xfffffffd
   13cf4:	7100a03f 	cmp	w1, #0x28
   13cf8:	54fffcc1 	b.ne	13c90 <_ZN9__gnu_cxx27__verbose_terminate_handlerEv@@Base+0xd2f0>  // b.any
   13cfc:	f9408261 	ldr	x1, [x19, #256]
   13d00:	f103fc3f 	cmp	x1, #0xff
   13d04:	54fffde0 	b.eq	13cc0 <_ZN9__gnu_cxx27__verbose_terminate_handlerEv@@Base+0xd320>  // b.none
   13d08:	91000420 	add	x0, x1, #0x1
   13d0c:	f9008260 	str	x0, [x19, #256]
   13d10:	52800502 	mov	w2, #0x28                  	// #40
   13d14:	38216a62 	strb	w2, [x19, x1]
   13d18:	aa1303e0 	mov	x0, x19
   13d1c:	39042262 	strb	w2, [x19, #264]
   13d20:	2a1403e1 	mov	w1, w20
   13d24:	f9409677 	ldr	x23, [x19, #296]
   13d28:	aa1603e2 	mov	x2, x22
   13d2c:	f900967f 	str	xzr, [x19, #296]
   13d30:	52800003 	mov	w3, #0x0                   	// #0
   13d34:	97fffe1c 	bl	135a4 <_ZN9__gnu_cxx27__verbose_terminate_handlerEv@@Base+0xcc04>
   13d38:	f9408260 	ldr	x0, [x19, #256]
   13d3c:	f103fc1f 	cmp	x0, #0xff
   13d40:	54000480 	b.eq	13dd0 <_ZN9__gnu_cxx27__verbose_terminate_handlerEv@@Base+0xd430>  // b.none
   13d44:	91000401 	add	x1, x0, #0x1
   13d48:	f9008261 	str	x1, [x19, #256]
   13d4c:	52800522 	mov	w2, #0x29                  	// #41
   13d50:	38206a62 	strb	w2, [x19, x0]
   13d54:	f103fc3f 	cmp	x1, #0xff
   13d58:	39042262 	strb	w2, [x19, #264]
   13d5c:	54fff5e1 	b.ne	13c18 <_ZN9__gnu_cxx27__verbose_terminate_handlerEv@@Base+0xd278>  // b.any
   13d60:	f9408e62 	ldr	x2, [x19, #280]
   13d64:	aa1303e0 	mov	x0, x19
   13d68:	f9408a63 	ldr	x3, [x19, #272]
   13d6c:	3903fe7f 	strb	wzr, [x19, #255]
   13d70:	d63f0060 	blr	x3
   13d74:	52800501 	mov	w1, #0x28                  	// #40
   13d78:	39000261 	strb	w1, [x19]
   13d7c:	39042261 	strb	w1, [x19, #264]
   13d80:	d2800020 	mov	x0, #0x1                   	// #1
   13d84:	f9409e61 	ldr	x1, [x19, #312]
   13d88:	f94002a2 	ldr	x2, [x21]
   13d8c:	8b000021 	add	x1, x1, x0
   13d90:	f9008260 	str	x0, [x19, #256]
   13d94:	f9009e61 	str	x1, [x19, #312]
   13d98:	b5fff4e2 	cbnz	x2, 13c34 <_ZN9__gnu_cxx27__verbose_terminate_handlerEv@@Base+0xd294>
   13d9c:	17ffffac 	b	13c4c <_ZN9__gnu_cxx27__verbose_terminate_handlerEv@@Base+0xd2ac>
   13da0:	f9408e62 	ldr	x2, [x19, #280]
   13da4:	aa0003e1 	mov	x1, x0
   13da8:	f9408a63 	ldr	x3, [x19, #272]
   13dac:	aa1303e0 	mov	x0, x19
   13db0:	3903fe7f 	strb	wzr, [x19, #255]
   13db4:	d63f0060 	blr	x3
   13db8:	f9409e62 	ldr	x2, [x19, #312]
   13dbc:	d2800021 	mov	x1, #0x1                   	// #1
   13dc0:	d2800000 	mov	x0, #0x0                   	// #0
   13dc4:	8b010042 	add	x2, x2, x1
   13dc8:	f9009e62 	str	x2, [x19, #312]
   13dcc:	17ffffa1 	b	13c50 <_ZN9__gnu_cxx27__verbose_terminate_handlerEv@@Base+0xd2b0>
   13dd0:	f9408e62 	ldr	x2, [x19, #280]
   13dd4:	aa0003e1 	mov	x1, x0
   13dd8:	f9408a63 	ldr	x3, [x19, #272]
   13ddc:	aa1303e0 	mov	x0, x19
   13de0:	3903fe7f 	strb	wzr, [x19, #255]
   13de4:	d63f0060 	blr	x3
   13de8:	f9409e62 	ldr	x2, [x19, #312]
   13dec:	d2800021 	mov	x1, #0x1                   	// #1
   13df0:	d2800000 	mov	x0, #0x0                   	// #0
   13df4:	8b010042 	add	x2, x2, x1
   13df8:	f9009e62 	str	x2, [x19, #312]
   13dfc:	17ffffd3 	b	13d48 <_ZN9__gnu_cxx27__verbose_terminate_handlerEv@@Base+0xd3a8>
   13e00:	f9408e62 	ldr	x2, [x19, #280]
   13e04:	aa0003e1 	mov	x1, x0
   13e08:	f9408a63 	ldr	x3, [x19, #272]
   13e0c:	aa1303e0 	mov	x0, x19
   13e10:	3903fe7f 	strb	wzr, [x19, #255]
   13e14:	d63f0060 	blr	x3
   13e18:	f9409e62 	ldr	x2, [x19, #312]
   13e1c:	d2800021 	mov	x1, #0x1                   	// #1
   13e20:	d2800000 	mov	x0, #0x0                   	// #0
   13e24:	8b010042 	add	x2, x2, x1
   13e28:	f9009e62 	str	x2, [x19, #312]
   13e2c:	17ffff9f 	b	13ca8 <_ZN9__gnu_cxx27__verbose_terminate_handlerEv@@Base+0xd308>
   13e30:	a9bc7bfd 	stp	x29, x30, [sp, #-64]!
   13e34:	910003fd 	mov	x29, sp
   13e38:	b9400044 	ldr	w4, [x2]
   13e3c:	a90153f3 	stp	x19, x20, [sp, #16]
   13e40:	a9025bf5 	stp	x21, x22, [sp, #32]
   13e44:	f9001bf7 	str	x23, [sp, #48]
   13e48:	7100c49f 	cmp	w4, #0x31
   13e4c:	aa0003f3 	mov	x19, x0
   13e50:	540000c0 	b.eq	13e68 <_ZN9__gnu_cxx27__verbose_terminate_handlerEv@@Base+0xd4c8>  // b.none
   13e54:	a94153f3 	ldp	x19, x20, [sp, #16]
   13e58:	a9425bf5 	ldp	x21, x22, [sp, #32]
   13e5c:	f9401bf7 	ldr	x23, [sp, #48]
   13e60:	a8c47bfd 	ldp	x29, x30, [sp], #64
   13e64:	17ffed2d 	b	f318 <_ZN9__gnu_cxx27__verbose_terminate_handlerEv@@Base+0x8978>
   13e68:	f9400440 	ldr	x0, [x2, #8]
   13e6c:	b9801016 	ldrsw	x22, [x0, #16]
   13e70:	f9400417 	ldr	x23, [x0, #8]
   13e74:	b40003f6 	cbz	x22, 13ef0 <_ZN9__gnu_cxx27__verbose_terminate_handlerEv@@Base+0xd550>
   13e78:	f9408261 	ldr	x1, [x19, #256]
   13e7c:	d2800014 	mov	x20, #0x0                   	// #0
   13e80:	14000008 	b	13ea0 <_ZN9__gnu_cxx27__verbose_terminate_handlerEv@@Base+0xd500>
   13e84:	91000421 	add	x1, x1, #0x1
   13e88:	f9008261 	str	x1, [x19, #256]
   13e8c:	91000694 	add	x20, x20, #0x1
   13e90:	38206a75 	strb	w21, [x19, x0]
   13e94:	eb1402df 	cmp	x22, x20
   13e98:	39042275 	strb	w21, [x19, #264]
   13e9c:	540002a0 	b.eq	13ef0 <_ZN9__gnu_cxx27__verbose_terminate_handlerEv@@Base+0xd550>  // b.none
   13ea0:	f103fc3f 	cmp	x1, #0xff
   13ea4:	38746af5 	ldrb	w21, [x23, x20]
   13ea8:	aa0103e0 	mov	x0, x1
   13eac:	54fffec1 	b.ne	13e84 <_ZN9__gnu_cxx27__verbose_terminate_handlerEv@@Base+0xd4e4>  // b.any
   13eb0:	f9408e62 	ldr	x2, [x19, #280]
   13eb4:	aa1303e0 	mov	x0, x19
   13eb8:	f9408a63 	ldr	x3, [x19, #272]
   13ebc:	91000694 	add	x20, x20, #0x1
   13ec0:	3903fe7f 	strb	wzr, [x19, #255]
   13ec4:	d63f0060 	blr	x3
   13ec8:	f9409e62 	ldr	x2, [x19, #312]
   13ecc:	d2800000 	mov	x0, #0x0                   	// #0
   13ed0:	d2800021 	mov	x1, #0x1                   	// #1
   13ed4:	f9008261 	str	x1, [x19, #256]
   13ed8:	8b010042 	add	x2, x2, x1
   13edc:	f9009e62 	str	x2, [x19, #312]
   13ee0:	38206a75 	strb	w21, [x19, x0]
   13ee4:	eb1402df 	cmp	x22, x20
   13ee8:	39042275 	strb	w21, [x19, #264]
   13eec:	54fffda1 	b.ne	13ea0 <_ZN9__gnu_cxx27__verbose_terminate_handlerEv@@Base+0xd500>  // b.any
   13ef0:	a94153f3 	ldp	x19, x20, [sp, #16]
   13ef4:	a9425bf5 	ldp	x21, x22, [sp, #32]
   13ef8:	f9401bf7 	ldr	x23, [sp, #48]
   13efc:	a8c47bfd 	ldp	x29, x30, [sp], #64
   13f00:	d65f03c0 	ret
   13f04:	a9bd7bfd 	stp	x29, x30, [sp, #-48]!
   13f08:	910003fd 	mov	x29, sp
   13f0c:	b9400044 	ldr	w4, [x2]
   13f10:	a90153f3 	stp	x19, x20, [sp, #16]
   13f14:	7100c09f 	cmp	w4, #0x30
   13f18:	f90013f5 	str	x21, [sp, #32]
   13f1c:	1a9f17e5 	cset	w5, eq	// eq = none
   13f20:	7100049f 	cmp	w4, #0x1
   13f24:	1a9f87e3 	cset	w3, ls	// ls = plast
   13f28:	aa0003f3 	mov	x19, x0
   13f2c:	2a0300a3 	orr	w3, w5, w3
   13f30:	350003a3 	cbnz	w3, 13fa4 <_ZN9__gnu_cxx27__verbose_terminate_handlerEv@@Base+0xd604>
   13f34:	7100189f 	cmp	w4, #0x6
   13f38:	54000360 	b.eq	13fa4 <_ZN9__gnu_cxx27__verbose_terminate_handlerEv@@Base+0xd604>  // b.none
   13f3c:	2a0103f5 	mov	w21, w1
   13f40:	f9408001 	ldr	x1, [x0, #256]
   13f44:	aa0203f4 	mov	x20, x2
   13f48:	f103fc3f 	cmp	x1, #0xff
   13f4c:	54000360 	b.eq	13fb8 <_ZN9__gnu_cxx27__verbose_terminate_handlerEv@@Base+0xd618>  // b.none
   13f50:	91000420 	add	x0, x1, #0x1
   13f54:	f9008260 	str	x0, [x19, #256]
   13f58:	52800502 	mov	w2, #0x28                  	// #40
   13f5c:	38216a62 	strb	w2, [x19, x1]
   13f60:	aa1303e0 	mov	x0, x19
   13f64:	39042262 	strb	w2, [x19, #264]
   13f68:	2a1503e1 	mov	w1, w21
   13f6c:	aa1403e2 	mov	x2, x20
   13f70:	97ffecea 	bl	f318 <_ZN9__gnu_cxx27__verbose_terminate_handlerEv@@Base+0x8978>
   13f74:	f9408261 	ldr	x1, [x19, #256]
   13f78:	f103fc3f 	cmp	x1, #0xff
   13f7c:	54000320 	b.eq	13fe0 <_ZN9__gnu_cxx27__verbose_terminate_handlerEv@@Base+0xd640>  // b.none
   13f80:	91000420 	add	x0, x1, #0x1
   13f84:	f9008260 	str	x0, [x19, #256]
   13f88:	52800520 	mov	w0, #0x29                  	// #41
   13f8c:	38216a60 	strb	w0, [x19, x1]
   13f90:	39042260 	strb	w0, [x19, #264]
   13f94:	a94153f3 	ldp	x19, x20, [sp, #16]
   13f98:	f94013f5 	ldr	x21, [sp, #32]
   13f9c:	a8c37bfd 	ldp	x29, x30, [sp], #48
   13fa0:	d65f03c0 	ret
   13fa4:	aa1303e0 	mov	x0, x19
   13fa8:	f94013f5 	ldr	x21, [sp, #32]
   13fac:	a94153f3 	ldp	x19, x20, [sp, #16]
   13fb0:	a8c37bfd 	ldp	x29, x30, [sp], #48
   13fb4:	17ffecd9 	b	f318 <_ZN9__gnu_cxx27__verbose_terminate_handlerEv@@Base+0x8978>
   13fb8:	f9408e62 	ldr	x2, [x19, #280]
   13fbc:	f9408a63 	ldr	x3, [x19, #272]
   13fc0:	3903fe7f 	strb	wzr, [x19, #255]
   13fc4:	d63f0060 	blr	x3
   13fc8:	f9409e62 	ldr	x2, [x19, #312]
   13fcc:	d2800020 	mov	x0, #0x1                   	// #1
   13fd0:	d2800001 	mov	x1, #0x0                   	// #0
   13fd4:	8b000042 	add	x2, x2, x0
   13fd8:	f9009e62 	str	x2, [x19, #312]
   13fdc:	17ffffde 	b	13f54 <_ZN9__gnu_cxx27__verbose_terminate_handlerEv@@Base+0xd5b4>
   13fe0:	f9408e62 	ldr	x2, [x19, #280]
   13fe4:	aa1303e0 	mov	x0, x19
   13fe8:	f9408a63 	ldr	x3, [x19, #272]
   13fec:	3903fe7f 	strb	wzr, [x19, #255]
   13ff0:	d63f0060 	blr	x3
   13ff4:	f9409e62 	ldr	x2, [x19, #312]
   13ff8:	d2800020 	mov	x0, #0x1                   	// #1
   13ffc:	d2800001 	mov	x1, #0x0                   	// #0
   14000:	8b000042 	add	x2, x2, x0
   14004:	f9009e62 	str	x2, [x19, #312]
   14008:	17ffffdf 	b	13f84 <_ZN9__gnu_cxx27__verbose_terminate_handlerEv@@Base+0xd5e4>
   1400c:	d10783ff 	sub	sp, sp, #0x1e0
   14010:	a9bc7bfd 	stp	x29, x30, [sp, #-64]!
   14014:	910003fd 	mov	x29, sp
   14018:	a90153f3 	stp	x19, x20, [sp, #16]
   1401c:	a9025bf5 	stp	x21, x22, [sp, #32]
   14020:	a90363f7 	stp	x23, x24, [sp, #48]
   14024:	aa0003f6 	mov	x22, x0
   14028:	aa0103f4 	mov	x20, x1
   1402c:	39400018 	ldrb	w24, [x0]
   14030:	aa0203f3 	mov	x19, x2
   14034:	71017f1f 	cmp	w24, #0x5f
   14038:	540013e0 	b.eq	142b4 <_ZN9__gnu_cxx27__verbose_terminate_handlerEv@@Base+0xd914>  // b.none
   1403c:	90000021 	adrp	x1, 18000 <_ZTSN10__cxxabiv117__class_type_infoE@@Base>
   14040:	aa1603e0 	mov	x0, x22
   14044:	91154021 	add	x1, x1, #0x550
   14048:	d2800102 	mov	x2, #0x8                   	// #8
   1404c:	52800017 	mov	w23, #0x0                   	// #0
   14050:	97ffc298 	bl	4ab0 <strncmp@plt>
   14054:	35000140 	cbnz	w0, 1407c <_ZN9__gnu_cxx27__verbose_terminate_handlerEv@@Base+0xd6dc>
   14058:	394022c1 	ldrb	w1, [x22, #8]
   1405c:	71017c3f 	cmp	w1, #0x5f
   14060:	1a9f17e2 	cset	w2, eq	// eq = none
   14064:	7100b83f 	cmp	w1, #0x2e
   14068:	1a9f17e0 	cset	w0, eq	// eq = none
   1406c:	2a000040 	orr	w0, w2, w0
   14070:	35001020 	cbnz	w0, 14274 <_ZN9__gnu_cxx27__verbose_terminate_handlerEv@@Base+0xd8d4>
   14074:	7100903f 	cmp	w1, #0x24
   14078:	54000fe0 	b.eq	14274 <_ZN9__gnu_cxx27__verbose_terminate_handlerEv@@Base+0xd8d4>  // b.none
   1407c:	aa1603e0 	mov	x0, x22
   14080:	910163b5 	add	x21, x29, #0x58
   14084:	97ffc27b 	bl	4a70 <strlen@plt>
   14088:	531f7803 	lsl	w3, w0, #1
   1408c:	8b0002c4 	add	x4, x22, x0
   14090:	937d7c02 	sbfiz	x2, x0, #3, #32
   14094:	93407c61 	sxtw	x1, w3
   14098:	f90006a4 	str	x4, [x21, #8]
   1409c:	d37be825 	lsl	x5, x1, #5
   140a0:	910003e4 	mov	x4, sp
   140a4:	cb010ca1 	sub	x1, x5, x1, lsl #3
   140a8:	91005842 	add	x2, x2, #0x16
   140ac:	91004021 	add	x1, x1, #0x10
   140b0:	927cec42 	and	x2, x2, #0xfffffffffffffff0
   140b4:	cb21609f 	sub	sp, x4, x1
   140b8:	52800221 	mov	w1, #0x11                  	// #17
   140bc:	b90012a1 	str	w1, [x21, #16]
   140c0:	910003e1 	mov	x1, sp
   140c4:	cb22603f 	sub	sp, x1, x2
   140c8:	f90002b6 	str	x22, [x21]
   140cc:	910003e2 	mov	x2, sp
   140d0:	f9000eb6 	str	x22, [x21, #24]
   140d4:	f9001aa2 	str	x2, [x21, #48]
   140d8:	710006ff 	cmp	w23, #0x1
   140dc:	b9002ea3 	str	w3, [x21, #44]
   140e0:	b9002abf 	str	wzr, [x21, #40]
   140e4:	b9003ea0 	str	w0, [x21, #60]
   140e8:	b9003abf 	str	wzr, [x21, #56]
   140ec:	b90042bf 	str	wzr, [x21, #64]
   140f0:	f90026bf 	str	xzr, [x21, #72]
   140f4:	b90052bf 	str	wzr, [x21, #80]
   140f8:	b90056bf 	str	wzr, [x21, #84]
   140fc:	b9005abf 	str	wzr, [x21, #88]
   14100:	f90012a1 	str	x1, [x21, #32]
   14104:	54000e20 	b.eq	142c8 <_ZN9__gnu_cxx27__verbose_terminate_handlerEv@@Base+0xd928>  // b.none
   14108:	340016b7 	cbz	w23, 143dc <_ZN9__gnu_cxx27__verbose_terminate_handlerEv@@Base+0xda3c>
   1410c:	39402ec0 	ldrb	w0, [x22, #11]
   14110:	71000aff 	cmp	w23, #0x2
   14114:	52800882 	mov	w2, #0x44                  	// #68
   14118:	52800877 	mov	w23, #0x43                  	// #67
   1411c:	91002ec1 	add	x1, x22, #0xb
   14120:	1a8202f7 	csel	w23, w23, w2, eq	// eq = none
   14124:	f9000ea1 	str	x1, [x21, #24]
   14128:	71017c1f 	cmp	w0, #0x5f
   1412c:	54000081 	b.ne	1413c <_ZN9__gnu_cxx27__verbose_terminate_handlerEv@@Base+0xd79c>  // b.any
   14130:	394032c0 	ldrb	w0, [x22, #12]
   14134:	7101681f 	cmp	w0, #0x5a
   14138:	54001800 	b.eq	14438 <_ZN9__gnu_cxx27__verbose_terminate_handlerEv@@Base+0xda98>  // b.none
   1413c:	aa0103e0 	mov	x0, x1
   14140:	f90027a1 	str	x1, [x29, #72]
   14144:	97ffc24b 	bl	4a70 <strlen@plt>
   14148:	aa0003e2 	mov	x2, x0
   1414c:	f94027a1 	ldr	x1, [x29, #72]
   14150:	aa1503e0 	mov	x0, x21
   14154:	97ffca9f 	bl	6bd0 <_ZN9__gnu_cxx27__verbose_terminate_handlerEv@@Base+0x230>
   14158:	2a1703e1 	mov	w1, w23
   1415c:	aa0003e2 	mov	x2, x0
   14160:	d2800003 	mov	x3, #0x0                   	// #0
   14164:	aa1503e0 	mov	x0, x21
   14168:	97ffca72 	bl	6b30 <_ZN9__gnu_cxx27__verbose_terminate_handlerEv@@Base+0x190>
   1416c:	f9400eb7 	ldr	x23, [x21, #24]
   14170:	aa0003f6 	mov	x22, x0
   14174:	aa1703e0 	mov	x0, x23
   14178:	97ffc23e 	bl	4a70 <strlen@plt>
   1417c:	8b0002e1 	add	x1, x23, x0
   14180:	f9000ea1 	str	x1, [x21, #24]
   14184:	38606ae0 	ldrb	w0, [x23, x0]
   14188:	35000a40 	cbnz	w0, 142d0 <_ZN9__gnu_cxx27__verbose_terminate_handlerEv@@Base+0xd930>
   1418c:	b4000a36 	cbz	x22, 142d0 <_ZN9__gnu_cxx27__verbose_terminate_handlerEv@@Base+0xd930>
   14190:	aa1603e2 	mov	x2, x22
   14194:	910853a0 	add	x0, x29, #0x214
   14198:	910813a1 	add	x1, x29, #0x204
   1419c:	f900e7b4 	str	x20, [x29, #456]
   141a0:	f900ebb3 	str	x19, [x29, #464]
   141a4:	910003f7 	mov	x23, sp
   141a8:	f900dfbf 	str	xzr, [x29, #440]
   141ac:	9102e3b5 	add	x21, x29, #0xb8
   141b0:	390703bf 	strb	wzr, [x29, #448]
   141b4:	f900efbf 	str	xzr, [x29, #472]
   141b8:	f900f3bf 	str	xzr, [x29, #480]
   141bc:	b901efbf 	str	wzr, [x29, #492]
   141c0:	f900fbbf 	str	xzr, [x29, #496]
   141c4:	b901ebbf 	str	wzr, [x29, #488]
   141c8:	f900ffbf 	str	xzr, [x29, #504]
   141cc:	b90203bf 	str	wzr, [x29, #512]
   141d0:	b90207bf 	str	wzr, [x29, #516]
   141d4:	f90107bf 	str	xzr, [x29, #520]
   141d8:	b90213bf 	str	wzr, [x29, #528]
   141dc:	b90217bf 	str	wzr, [x29, #532]
   141e0:	97ffcbb0 	bl	70a0 <_ZN9__gnu_cxx27__verbose_terminate_handlerEv@@Base+0x700>
   141e4:	b94217a5 	ldr	w5, [x29, #532]
   141e8:	aa1503e0 	mov	x0, x21
   141ec:	b94207a3 	ldr	w3, [x29, #516]
   141f0:	aa1603e2 	mov	x2, x22
   141f4:	52800221 	mov	w1, #0x11                  	// #17
   141f8:	f9010fbf 	str	xzr, [x29, #536]
   141fc:	937c7c64 	sbfiz	x4, x3, #4, #32
   14200:	1b057c63 	mul	w3, w3, w5
   14204:	91004084 	add	x4, x4, #0x10
   14208:	b90217a3 	str	w3, [x29, #532]
   1420c:	cb2462ff 	sub	sp, x23, x4
   14210:	937c7c63 	sbfiz	x3, x3, #4, #32
   14214:	910003e4 	mov	x4, sp
   14218:	91004063 	add	x3, x3, #0x10
   1421c:	cb23609f 	sub	sp, x4, x3
   14220:	f900ffa4 	str	x4, [x29, #504]
   14224:	910003e3 	mov	x3, sp
   14228:	f90107a3 	str	x3, [x29, #520]
   1422c:	97ffec3b 	bl	f318 <_ZN9__gnu_cxx27__verbose_terminate_handlerEv@@Base+0x8978>
   14230:	910002ff 	mov	sp, x23
   14234:	f940dfa1 	ldr	x1, [x29, #440]
   14238:	aa1503e0 	mov	x0, x21
   1423c:	f940eba2 	ldr	x2, [x29, #464]
   14240:	f940e7a3 	ldr	x3, [x29, #456]
   14244:	38216abf 	strb	wzr, [x21, x1]
   14248:	d63f0060 	blr	x3
   1424c:	b941eba0 	ldr	w0, [x29, #488]
   14250:	910003bf 	mov	sp, x29
   14254:	6b1f001f 	cmp	w0, wzr
   14258:	1a9f17e0 	cset	w0, eq	// eq = none
   1425c:	a94153f3 	ldp	x19, x20, [sp, #16]
   14260:	a9425bf5 	ldp	x21, x22, [sp, #32]
   14264:	a94363f7 	ldp	x23, x24, [sp, #48]
   14268:	a8c47bfd 	ldp	x29, x30, [sp], #64
   1426c:	910783ff 	add	sp, sp, #0x1e0
   14270:	d65f03c0 	ret
   14274:	394026c0 	ldrb	w0, [x22, #9]
   14278:	7101241f 	cmp	w0, #0x49
   1427c:	1a9f17e1 	cset	w1, eq	// eq = none
   14280:	35000081 	cbnz	w1, 14290 <_ZN9__gnu_cxx27__verbose_terminate_handlerEv@@Base+0xd8f0>
   14284:	7101101f 	cmp	w0, #0x44
   14288:	52800017 	mov	w23, #0x0                   	// #0
   1428c:	54ffef81 	b.ne	1407c <_ZN9__gnu_cxx27__verbose_terminate_handlerEv@@Base+0xd6dc>  // b.any
   14290:	39402ac0 	ldrb	w0, [x22, #10]
   14294:	52800017 	mov	w23, #0x0                   	// #0
   14298:	71017c1f 	cmp	w0, #0x5f
   1429c:	54ffef01 	b.ne	1407c <_ZN9__gnu_cxx27__verbose_terminate_handlerEv@@Base+0xd6dc>  // b.any
   142a0:	6b1f003f 	cmp	w1, wzr
   142a4:	52800060 	mov	w0, #0x3                   	// #3
   142a8:	52800057 	mov	w23, #0x2                   	// #2
   142ac:	1a8012f7 	csel	w23, w23, w0, ne	// ne = any
   142b0:	17ffff73 	b	1407c <_ZN9__gnu_cxx27__verbose_terminate_handlerEv@@Base+0xd6dc>
   142b4:	39400400 	ldrb	w0, [x0, #1]
   142b8:	7101681f 	cmp	w0, #0x5a
   142bc:	54ffec01 	b.ne	1403c <_ZN9__gnu_cxx27__verbose_terminate_handlerEv@@Base+0xd69c>  // b.any
   142c0:	52800037 	mov	w23, #0x1                   	// #1
   142c4:	17ffff6e 	b	1407c <_ZN9__gnu_cxx27__verbose_terminate_handlerEv@@Base+0xd6dc>
   142c8:	71017f1f 	cmp	w24, #0x5f
   142cc:	54000120 	b.eq	142f0 <_ZN9__gnu_cxx27__verbose_terminate_handlerEv@@Base+0xd950>  // b.none
   142d0:	910003bf 	mov	sp, x29
   142d4:	52800000 	mov	w0, #0x0                   	// #0
   142d8:	a94153f3 	ldp	x19, x20, [sp, #16]
   142dc:	a9425bf5 	ldp	x21, x22, [sp, #32]
   142e0:	a94363f7 	ldp	x23, x24, [sp, #48]
   142e4:	a8c47bfd 	ldp	x29, x30, [sp], #64
   142e8:	910783ff 	add	sp, sp, #0x1e0
   142ec:	d65f03c0 	ret
   142f0:	394006c0 	ldrb	w0, [x22, #1]
   142f4:	7101681f 	cmp	w0, #0x5a
   142f8:	54fffec1 	b.ne	142d0 <_ZN9__gnu_cxx27__verbose_terminate_handlerEv@@Base+0xd930>  // b.any
   142fc:	aa1503e0 	mov	x0, x21
   14300:	2a1703e1 	mov	w1, w23
   14304:	91000ad6 	add	x22, x22, #0x2
   14308:	f9000eb6 	str	x22, [x21, #24]
   1430c:	97ffde41 	bl	bc10 <_ZN9__gnu_cxx27__verbose_terminate_handlerEv@@Base+0x5270>
   14310:	aa0003f6 	mov	x22, x0
   14314:	b94012a0 	ldr	w0, [x21, #16]
   14318:	360008a0 	tbz	w0, #0, 1442c <_ZN9__gnu_cxx27__verbose_terminate_handlerEv@@Base+0xda8c>
   1431c:	f9400ea1 	ldr	x1, [x21, #24]
   14320:	39400020 	ldrb	w0, [x1]
   14324:	7100b81f 	cmp	w0, #0x2e
   14328:	54fff301 	b.ne	14188 <_ZN9__gnu_cxx27__verbose_terminate_handlerEv@@Base+0xd7e8>  // b.any
   1432c:	39400420 	ldrb	w0, [x1, #1]
   14330:	51018402 	sub	w2, w0, #0x61
   14334:	53001c42 	uxtb	w2, w2
   14338:	7100645f 	cmp	w2, #0x19
   1433c:	540005c9 	b.ls	143f4 <_ZN9__gnu_cxx27__verbose_terminate_handlerEv@@Base+0xda54>  // b.plast
   14340:	71017c1f 	cmp	w0, #0x5f
   14344:	54000580 	b.eq	143f4 <_ZN9__gnu_cxx27__verbose_terminate_handlerEv@@Base+0xda54>  // b.none
   14348:	5100c000 	sub	w0, w0, #0x30
   1434c:	53001c00 	uxtb	w0, w0
   14350:	7100241f 	cmp	w0, #0x9
   14354:	540006c8 	b.hi	1442c <_ZN9__gnu_cxx27__verbose_terminate_handlerEv@@Base+0xda8c>  // b.pmore
   14358:	39400022 	ldrb	w2, [x1]
   1435c:	aa0103e3 	mov	x3, x1
   14360:	7100b85f 	cmp	w2, #0x2e
   14364:	54000261 	b.ne	143b0 <_ZN9__gnu_cxx27__verbose_terminate_handlerEv@@Base+0xda10>  // b.any
   14368:	39400460 	ldrb	w0, [x3, #1]
   1436c:	5100c000 	sub	w0, w0, #0x30
   14370:	53001c00 	uxtb	w0, w0
   14374:	7100241f 	cmp	w0, #0x9
   14378:	540001c8 	b.hi	143b0 <_ZN9__gnu_cxx27__verbose_terminate_handlerEv@@Base+0xda10>  // b.pmore
   1437c:	39400862 	ldrb	w2, [x3, #2]
   14380:	91000863 	add	x3, x3, #0x2
   14384:	5100c040 	sub	w0, w2, #0x30
   14388:	53001c00 	uxtb	w0, w0
   1438c:	7100241f 	cmp	w0, #0x9
   14390:	54fffe88 	b.hi	14360 <_ZN9__gnu_cxx27__verbose_terminate_handlerEv@@Base+0xd9c0>  // b.pmore
   14394:	38401c62 	ldrb	w2, [x3, #1]!
   14398:	5100c040 	sub	w0, w2, #0x30
   1439c:	53001c00 	uxtb	w0, w0
   143a0:	7100241f 	cmp	w0, #0x9
   143a4:	54ffff89 	b.ls	14394 <_ZN9__gnu_cxx27__verbose_terminate_handlerEv@@Base+0xd9f4>  // b.plast
   143a8:	7100b85f 	cmp	w2, #0x2e
   143ac:	54fffde0 	b.eq	14368 <_ZN9__gnu_cxx27__verbose_terminate_handlerEv@@Base+0xd9c8>  // b.none
   143b0:	4b010062 	sub	w2, w3, w1
   143b4:	aa1503e0 	mov	x0, x21
   143b8:	f9000ea3 	str	x3, [x21, #24]
   143bc:	97ffca05 	bl	6bd0 <_ZN9__gnu_cxx27__verbose_terminate_handlerEv@@Base+0x230>
   143c0:	aa0003e3 	mov	x3, x0
   143c4:	aa1603e2 	mov	x2, x22
   143c8:	aa1503e0 	mov	x0, x21
   143cc:	52800981 	mov	w1, #0x4c                  	// #76
   143d0:	97ffc9d8 	bl	6b30 <_ZN9__gnu_cxx27__verbose_terminate_handlerEv@@Base+0x190>
   143d4:	aa0003f6 	mov	x22, x0
   143d8:	17ffffd1 	b	1431c <_ZN9__gnu_cxx27__verbose_terminate_handlerEv@@Base+0xd97c>
   143dc:	aa1503e0 	mov	x0, x21
   143e0:	97ffd4d5 	bl	9734 <_ZN9__gnu_cxx27__verbose_terminate_handlerEv@@Base+0x2d94>
   143e4:	aa0003f6 	mov	x22, x0
   143e8:	f9400ea0 	ldr	x0, [x21, #24]
   143ec:	39400000 	ldrb	w0, [x0]
   143f0:	17ffff66 	b	14188 <_ZN9__gnu_cxx27__verbose_terminate_handlerEv@@Base+0xd7e8>
   143f4:	39400822 	ldrb	w2, [x1, #2]
   143f8:	91000823 	add	x3, x1, #0x2
   143fc:	51018440 	sub	w0, w2, #0x61
   14400:	53001c00 	uxtb	w0, w0
   14404:	7100641f 	cmp	w0, #0x19
   14408:	540000c8 	b.hi	14420 <_ZN9__gnu_cxx27__verbose_terminate_handlerEv@@Base+0xda80>  // b.pmore
   1440c:	38401c62 	ldrb	w2, [x3, #1]!
   14410:	51018440 	sub	w0, w2, #0x61
   14414:	53001c00 	uxtb	w0, w0
   14418:	7100641f 	cmp	w0, #0x19
   1441c:	54ffff89 	b.ls	1440c <_ZN9__gnu_cxx27__verbose_terminate_handlerEv@@Base+0xda6c>  // b.plast
   14420:	71017c5f 	cmp	w2, #0x5f
   14424:	54ffff40 	b.eq	1440c <_ZN9__gnu_cxx27__verbose_terminate_handlerEv@@Base+0xda6c>  // b.none
   14428:	17ffffce 	b	14360 <_ZN9__gnu_cxx27__verbose_terminate_handlerEv@@Base+0xd9c0>
   1442c:	f9400ea0 	ldr	x0, [x21, #24]
   14430:	39400000 	ldrb	w0, [x0]
   14434:	17ffff55 	b	14188 <_ZN9__gnu_cxx27__verbose_terminate_handlerEv@@Base+0xd7e8>
   14438:	aa1503e0 	mov	x0, x21
   1443c:	52800001 	mov	w1, #0x0                   	// #0
   14440:	910036d6 	add	x22, x22, #0xd
   14444:	f9000eb6 	str	x22, [x21, #24]
   14448:	97ffddf2 	bl	bc10 <_ZN9__gnu_cxx27__verbose_terminate_handlerEv@@Base+0x5270>
   1444c:	17ffff43 	b	14158 <_ZN9__gnu_cxx27__verbose_terminate_handlerEv@@Base+0xd7b8>

0000000000014450 <__cxa_demangle@@Base>:
   14450:	a9ba7bfd 	stp	x29, x30, [sp, #-96]!
   14454:	910003fd 	mov	x29, sp
   14458:	a90153f3 	stp	x19, x20, [sp, #16]
   1445c:	a9025bf5 	stp	x21, x22, [sp, #32]
   14460:	f9001bf7 	str	x23, [sp, #48]
   14464:	b4000060 	cbz	x0, 14470 <__cxa_demangle@@Base+0x20>
   14468:	b4000161 	cbz	x1, 14494 <__cxa_demangle@@Base+0x44>
   1446c:	b5000142 	cbnz	x2, 14494 <__cxa_demangle@@Base+0x44>
   14470:	b40006a3 	cbz	x3, 14544 <__cxa_demangle@@Base+0xf4>
   14474:	12800041 	mov	w1, #0xfffffffd            	// #-3
   14478:	d2800000 	mov	x0, #0x0                   	// #0
   1447c:	b9000061 	str	w1, [x3]
   14480:	a94153f3 	ldp	x19, x20, [sp, #16]
   14484:	a9425bf5 	ldp	x21, x22, [sp, #32]
   14488:	f9401bf7 	ldr	x23, [sp, #48]
   1448c:	a8c67bfd 	ldp	x29, x30, [sp], #96
   14490:	d65f03c0 	ret
   14494:	aa0103f5 	mov	x21, x1
   14498:	910103b3 	add	x19, x29, #0x40
   1449c:	f0ffff81 	adrp	x1, 7000 <_ZN9__gnu_cxx27__verbose_terminate_handlerEv@@Base+0x660>
   144a0:	aa0203f6 	mov	x22, x2
   144a4:	910e0021 	add	x1, x1, #0x380
   144a8:	aa1303e2 	mov	x2, x19
   144ac:	aa0303f4 	mov	x20, x3
   144b0:	f90023bf 	str	xzr, [x29, #64]
   144b4:	f90027bf 	str	xzr, [x29, #72]
   144b8:	f9002bbf 	str	xzr, [x29, #80]
   144bc:	b9005bbf 	str	wzr, [x29, #88]
   144c0:	97fffed3 	bl	1400c <_ZN9__gnu_cxx27__verbose_terminate_handlerEv@@Base+0xd66c>
   144c4:	340003a0 	cbz	w0, 14538 <__cxa_demangle@@Base+0xe8>
   144c8:	b9405ba0 	ldr	w0, [x29, #88]
   144cc:	d2800037 	mov	x23, #0x1                   	// #1
   144d0:	34000300 	cbz	w0, 14530 <__cxa_demangle@@Base+0xe0>
   144d4:	f94023b3 	ldr	x19, [x29, #64]
   144d8:	b4000513 	cbz	x19, 14578 <__cxa_demangle@@Base+0x128>
   144dc:	b4000495 	cbz	x21, 1456c <__cxa_demangle@@Base+0x11c>
   144e0:	aa1303e0 	mov	x0, x19
   144e4:	97ffc163 	bl	4a70 <strlen@plt>
   144e8:	f94002c1 	ldr	x1, [x22]
   144ec:	eb01001f 	cmp	x0, x1
   144f0:	54000362 	b.cs	1455c <__cxa_demangle@@Base+0x10c>  // b.hs, b.nlast
   144f4:	aa1303e1 	mov	x1, x19
   144f8:	91000402 	add	x2, x0, #0x1
   144fc:	aa1503e0 	mov	x0, x21
   14500:	97ffc130 	bl	49c0 <memcpy@plt>
   14504:	aa1303e0 	mov	x0, x19
   14508:	aa1503f3 	mov	x19, x21
   1450c:	97ffc139 	bl	49f0 <free@plt>
   14510:	b4000434 	cbz	x20, 14594 <__cxa_demangle@@Base+0x144>
   14514:	b900029f 	str	wzr, [x20]
   14518:	aa1303e0 	mov	x0, x19
   1451c:	a9425bf5 	ldp	x21, x22, [sp, #32]
   14520:	a94153f3 	ldp	x19, x20, [sp, #16]
   14524:	f9401bf7 	ldr	x23, [sp, #48]
   14528:	a8c67bfd 	ldp	x29, x30, [sp], #96
   1452c:	d65f03c0 	ret
   14530:	f9400a77 	ldr	x23, [x19, #16]
   14534:	17ffffe8 	b	144d4 <__cxa_demangle@@Base+0x84>
   14538:	f94023a0 	ldr	x0, [x29, #64]
   1453c:	97ffc12d 	bl	49f0 <free@plt>
   14540:	b5000234 	cbnz	x20, 14584 <__cxa_demangle@@Base+0x134>
   14544:	a94153f3 	ldp	x19, x20, [sp, #16]
   14548:	a9425bf5 	ldp	x21, x22, [sp, #32]
   1454c:	f9401bf7 	ldr	x23, [sp, #48]
   14550:	d2800000 	mov	x0, #0x0                   	// #0
   14554:	a8c67bfd 	ldp	x29, x30, [sp], #96
   14558:	d65f03c0 	ret
   1455c:	aa1503e0 	mov	x0, x21
   14560:	97ffc124 	bl	49f0 <free@plt>
   14564:	f90002d7 	str	x23, [x22]
   14568:	17ffffea 	b	14510 <__cxa_demangle@@Base+0xc0>
   1456c:	b4fffd36 	cbz	x22, 14510 <__cxa_demangle@@Base+0xc0>
   14570:	f90002d7 	str	x23, [x22]
   14574:	17ffffe7 	b	14510 <__cxa_demangle@@Base+0xc0>
   14578:	b4fffe74 	cbz	x20, 14544 <__cxa_demangle@@Base+0xf4>
   1457c:	f10006ff 	cmp	x23, #0x1
   14580:	540000e0 	b.eq	1459c <__cxa_demangle@@Base+0x14c>  // b.none
   14584:	12800021 	mov	w1, #0xfffffffe            	// #-2
   14588:	d2800000 	mov	x0, #0x0                   	// #0
   1458c:	b9000281 	str	w1, [x20]
   14590:	17ffffbc 	b	14480 <__cxa_demangle@@Base+0x30>
   14594:	aa1303e0 	mov	x0, x19
   14598:	17ffffba 	b	14480 <__cxa_demangle@@Base+0x30>
   1459c:	12800001 	mov	w1, #0xffffffff            	// #-1
   145a0:	d2800000 	mov	x0, #0x0                   	// #0
   145a4:	b9000281 	str	w1, [x20]
   145a8:	17ffffb6 	b	14480 <__cxa_demangle@@Base+0x30>

00000000000145ac <__gcclibcxx_demangle_callback@@Base>:
   145ac:	a9bf7bfd 	stp	x29, x30, [sp, #-16]!
   145b0:	910003fd 	mov	x29, sp
   145b4:	b4000100 	cbz	x0, 145d4 <__gcclibcxx_demangle_callback@@Base+0x28>
   145b8:	b40000e1 	cbz	x1, 145d4 <__gcclibcxx_demangle_callback@@Base+0x28>
   145bc:	97fffe94 	bl	1400c <_ZN9__gnu_cxx27__verbose_terminate_handlerEv@@Base+0xd66c>
   145c0:	6b1f001f 	cmp	w0, wzr
   145c4:	12800020 	mov	w0, #0xfffffffe            	// #-2
   145c8:	1a9f0000 	csel	w0, w0, wzr, eq	// eq = none
   145cc:	a8c17bfd 	ldp	x29, x30, [sp], #16
   145d0:	d65f03c0 	ret
   145d4:	12800040 	mov	w0, #0xfffffffd            	// #-3
   145d8:	17fffffd 	b	145cc <__gcclibcxx_demangle_callback@@Base+0x20>

00000000000145dc <__cxa_current_exception_type@@Base>:
   145dc:	a9bf7bfd 	stp	x29, x30, [sp, #-16]!
   145e0:	910003fd 	mov	x29, sp
   145e4:	97ffc8ce 	bl	691c <__cxa_get_globals@@Base>
   145e8:	f9400000 	ldr	x0, [x0]
   145ec:	b4000120 	cbz	x0, 14610 <__cxa_current_exception_type@@Base+0x34>
   145f0:	f9402801 	ldr	x1, [x0, #80]
   145f4:	37000081 	tbnz	w1, #0, 14604 <__cxa_current_exception_type@@Base+0x28>
   145f8:	f9400000 	ldr	x0, [x0]
   145fc:	a8c17bfd 	ldp	x29, x30, [sp], #16
   14600:	d65f03c0 	ret
   14604:	f9400000 	ldr	x0, [x0]
   14608:	d101c000 	sub	x0, x0, #0x70
   1460c:	17fffffb 	b	145f8 <__cxa_current_exception_type@@Base+0x1c>
   14610:	d2800000 	mov	x0, #0x0                   	// #0
   14614:	17fffffa 	b	145fc <__cxa_current_exception_type@@Base+0x20>
   14618:	d2800002 	mov	x2, #0x0                   	// #0
   1461c:	52800003 	mov	w3, #0x0                   	// #0
   14620:	38401405 	ldrb	w5, [x0], #1
   14624:	924018a4 	and	x4, x5, #0x7f
   14628:	9ac32084 	lsl	x4, x4, x3
   1462c:	11001c63 	add	w3, w3, #0x7
   14630:	aa040042 	orr	x2, x2, x4
   14634:	373fff65 	tbnz	w5, #7, 14620 <__cxa_current_exception_type@@Base+0x44>
   14638:	f9000022 	str	x2, [x1]
   1463c:	d65f03c0 	ret
   14640:	d2800002 	mov	x2, #0x0                   	// #0
   14644:	52800003 	mov	w3, #0x0                   	// #0
   14648:	38401404 	ldrb	w4, [x0], #1
   1464c:	92401885 	and	x5, x4, #0x7f
   14650:	9ac320a5 	lsl	x5, x5, x3
   14654:	11001c63 	add	w3, w3, #0x7
   14658:	aa050042 	orr	x2, x2, x5
   1465c:	373fff64 	tbnz	w4, #7, 14648 <__cxa_current_exception_type@@Base+0x6c>
   14660:	7100fc7f 	cmp	w3, #0x3f
   14664:	540000a8 	b.hi	14678 <__cxa_current_exception_type@@Base+0x9c>  // b.pmore
   14668:	36300084 	tbz	w4, #6, 14678 <__cxa_current_exception_type@@Base+0x9c>
   1466c:	92800004 	mov	x4, #0xffffffffffffffff    	// #-1
   14670:	9ac32083 	lsl	x3, x4, x3
   14674:	aa020062 	orr	x2, x3, x2
   14678:	f9000022 	str	x2, [x1]
   1467c:	d65f03c0 	ret
   14680:	a9bc7bfd 	stp	x29, x30, [sp, #-64]!
   14684:	910003fd 	mov	x29, sp
   14688:	a90153f3 	stp	x19, x20, [sp, #16]
   1468c:	53001c14 	uxtb	w20, w0
   14690:	aa0203f3 	mov	x19, x2
   14694:	a9025bf5 	stp	x21, x22, [sp, #32]
   14698:	7101429f 	cmp	w20, #0x50
   1469c:	aa0103f6 	mov	x22, x1
   146a0:	aa0303f5 	mov	x21, x3
   146a4:	540000a1 	b.ne	146b8 <__cxa_current_exception_type@@Base+0xdc>  // b.any
   146a8:	91001c53 	add	x19, x2, #0x7
   146ac:	927df260 	and	x0, x19, #0xfffffffffffffff8
   146b0:	f8408401 	ldr	x1, [x0], #8
   146b4:	1400002a 	b	1475c <__cxa_current_exception_type@@Base+0x180>
   146b8:	12000e81 	and	w1, w20, #0xf
   146bc:	7100303f 	cmp	w1, #0xc
   146c0:	540003e8 	b.hi	1473c <__cxa_current_exception_type@@Base+0x160>  // b.pmore
   146c4:	90000020 	adrp	x0, 18000 <_ZTSN10__cxxabiv117__class_type_infoE@@Base>
   146c8:	913ea000 	add	x0, x0, #0xfa8
   146cc:	38614800 	ldrb	w0, [x0, w1, uxtw]
   146d0:	10000061 	adr	x1, 146dc <__cxa_current_exception_type@@Base+0x100>
   146d4:	8b208820 	add	x0, x1, w0, sxtb #2
   146d8:	d61f0000 	br	x0
   146dc:	aa0203e0 	mov	x0, x2
   146e0:	9100e3a1 	add	x1, x29, #0x38
   146e4:	97ffffcd 	bl	14618 <__cxa_current_exception_type@@Base+0x3c>
   146e8:	14000004 	b	146f8 <__cxa_current_exception_type@@Base+0x11c>
   146ec:	aa0203e0 	mov	x0, x2
   146f0:	9100e3a1 	add	x1, x29, #0x38
   146f4:	97ffffd3 	bl	14640 <__cxa_current_exception_type@@Base+0x64>
   146f8:	f9401fa1 	ldr	x1, [x29, #56]
   146fc:	14000011 	b	14740 <__cxa_current_exception_type@@Base+0x164>
   14700:	aa0203e0 	mov	x0, x2
   14704:	78402401 	ldrh	w1, [x0], #2
   14708:	1400000e 	b	14740 <__cxa_current_exception_type@@Base+0x164>
   1470c:	aa0203e0 	mov	x0, x2
   14710:	b8404401 	ldr	w1, [x0], #4
   14714:	1400000b 	b	14740 <__cxa_current_exception_type@@Base+0x164>
   14718:	aa0203e0 	mov	x0, x2
   1471c:	78802401 	ldrsh	x1, [x0], #2
   14720:	14000008 	b	14740 <__cxa_current_exception_type@@Base+0x164>
   14724:	aa0203e0 	mov	x0, x2
   14728:	b8804401 	ldrsw	x1, [x0], #4
   1472c:	14000005 	b	14740 <__cxa_current_exception_type@@Base+0x164>
   14730:	aa0203e0 	mov	x0, x2
   14734:	f8408401 	ldr	x1, [x0], #8
   14738:	14000002 	b	14740 <__cxa_current_exception_type@@Base+0x164>
   1473c:	97ffc0fd 	bl	4b30 <abort@plt>
   14740:	b40000e1 	cbz	x1, 1475c <__cxa_current_exception_type@@Base+0x180>
   14744:	121c0a82 	and	w2, w20, #0x70
   14748:	7100405f 	cmp	w2, #0x10
   1474c:	9a960273 	csel	x19, x19, x22, eq	// eq = none
   14750:	8b130021 	add	x1, x1, x19
   14754:	36380054 	tbz	w20, #7, 1475c <__cxa_current_exception_type@@Base+0x180>
   14758:	f9400021 	ldr	x1, [x1]
   1475c:	f90002a1 	str	x1, [x21]
   14760:	a94153f3 	ldp	x19, x20, [sp, #16]
   14764:	a9425bf5 	ldp	x21, x22, [sp, #32]
   14768:	a8c47bfd 	ldp	x29, x30, [sp], #64
   1476c:	d65f03c0 	ret
   14770:	f0000142 	adrp	x2, 3f000 <__bss_start@@Base+0x10fd0>
   14774:	52800100 	mov	w0, #0x8                   	// #8
   14778:	91328041 	add	x1, x2, #0xca0
   1477c:	39328040 	strb	w0, [x2, #3232]
   14780:	39000420 	strb	w0, [x1, #1]
   14784:	39000820 	strb	w0, [x1, #2]
   14788:	39000c20 	strb	w0, [x1, #3]
   1478c:	39001020 	strb	w0, [x1, #4]
   14790:	39001420 	strb	w0, [x1, #5]
   14794:	39001820 	strb	w0, [x1, #6]
   14798:	39001c20 	strb	w0, [x1, #7]
   1479c:	39002020 	strb	w0, [x1, #8]
   147a0:	39002420 	strb	w0, [x1, #9]
   147a4:	39002820 	strb	w0, [x1, #10]
   147a8:	39002c20 	strb	w0, [x1, #11]
   147ac:	39003020 	strb	w0, [x1, #12]
   147b0:	39003420 	strb	w0, [x1, #13]
   147b4:	39003820 	strb	w0, [x1, #14]
   147b8:	39003c20 	strb	w0, [x1, #15]
   147bc:	39004020 	strb	w0, [x1, #16]
   147c0:	39004420 	strb	w0, [x1, #17]
   147c4:	39004820 	strb	w0, [x1, #18]
   147c8:	39004c20 	strb	w0, [x1, #19]
   147cc:	39005020 	strb	w0, [x1, #20]
   147d0:	39005420 	strb	w0, [x1, #21]
   147d4:	39005820 	strb	w0, [x1, #22]
   147d8:	39005c20 	strb	w0, [x1, #23]
   147dc:	39006020 	strb	w0, [x1, #24]
   147e0:	39006420 	strb	w0, [x1, #25]
   147e4:	39006820 	strb	w0, [x1, #26]
   147e8:	39006c20 	strb	w0, [x1, #27]
   147ec:	39007020 	strb	w0, [x1, #28]
   147f0:	39007420 	strb	w0, [x1, #29]
   147f4:	39007820 	strb	w0, [x1, #30]
   147f8:	39007c20 	strb	w0, [x1, #31]
   147fc:	39010020 	strb	w0, [x1, #64]
   14800:	39010420 	strb	w0, [x1, #65]
   14804:	39010820 	strb	w0, [x1, #66]
   14808:	39010c20 	strb	w0, [x1, #67]
   1480c:	39011020 	strb	w0, [x1, #68]
   14810:	39011420 	strb	w0, [x1, #69]
   14814:	39011820 	strb	w0, [x1, #70]
   14818:	39011c20 	strb	w0, [x1, #71]
   1481c:	39012020 	strb	w0, [x1, #72]
   14820:	39012420 	strb	w0, [x1, #73]
   14824:	39012820 	strb	w0, [x1, #74]
   14828:	39012c20 	strb	w0, [x1, #75]
   1482c:	39013020 	strb	w0, [x1, #76]
   14830:	39013420 	strb	w0, [x1, #77]
   14834:	39013820 	strb	w0, [x1, #78]
   14838:	39013c20 	strb	w0, [x1, #79]
   1483c:	39014020 	strb	w0, [x1, #80]
   14840:	39014420 	strb	w0, [x1, #81]
   14844:	39014820 	strb	w0, [x1, #82]
   14848:	39014c20 	strb	w0, [x1, #83]
   1484c:	39015020 	strb	w0, [x1, #84]
   14850:	39015420 	strb	w0, [x1, #85]
   14854:	39015820 	strb	w0, [x1, #86]
   14858:	39015c20 	strb	w0, [x1, #87]
   1485c:	39016020 	strb	w0, [x1, #88]
   14860:	39016420 	strb	w0, [x1, #89]
   14864:	39016820 	strb	w0, [x1, #90]
   14868:	39016c20 	strb	w0, [x1, #91]
   1486c:	39017020 	strb	w0, [x1, #92]
   14870:	39017420 	strb	w0, [x1, #93]
   14874:	39017820 	strb	w0, [x1, #94]
   14878:	39017c20 	strb	w0, [x1, #95]
   1487c:	39018020 	strb	w0, [x1, #96]
   14880:	d65f03c0 	ret
   14884:	f0000143 	adrp	x3, 3f000 <__bss_start@@Base+0x10fd0>
   14888:	a9bf7bfd 	stp	x29, x30, [sp, #-16]!
   1488c:	910003fd 	mov	x29, sp
   14890:	3972fc63 	ldrb	w3, [x3, #3263]
   14894:	7100207f 	cmp	w3, #0x8
   14898:	540000c1 	b.ne	148b0 <__cxa_current_exception_type@@Base+0x2d4>  // b.any
   1489c:	f9000041 	str	x1, [x2]
   148a0:	f941a001 	ldr	x1, [x0, #832]
   148a4:	b6f00081 	tbz	x1, #62, 148b4 <__cxa_current_exception_type@@Base+0x2d8>
   148a8:	390ddc1f 	strb	wzr, [x0, #887]
   148ac:	14000002 	b	148b4 <__cxa_current_exception_type@@Base+0x2d8>
   148b0:	97ffc0a0 	bl	4b30 <abort@plt>
   148b4:	f9007c02 	str	x2, [x0, #248]
   148b8:	a8c17bfd 	ldp	x29, x30, [sp], #16
   148bc:	d65f03c0 	ret

00000000000148c0 <_Unwind_GetGR@@Base>:
   148c0:	a9bf7bfd 	stp	x29, x30, [sp, #-16]!
   148c4:	7101843f 	cmp	w1, #0x61
   148c8:	910003fd 	mov	x29, sp
   148cc:	5400004d 	b.le	148d4 <_Unwind_GetGR@@Base+0x14>
   148d0:	97ffc098 	bl	4b30 <abort@plt>
   148d4:	f0000143 	adrp	x3, 3f000 <__bss_start@@Base+0x10fd0>
   148d8:	93407c22 	sxtw	x2, w1
   148dc:	91328063 	add	x3, x3, #0xca0
   148e0:	f941a004 	ldr	x4, [x0, #832]
   148e4:	f861d801 	ldr	x1, [x0, w1, sxtw #3]
   148e8:	38626863 	ldrb	w3, [x3, x2]
   148ec:	b6f000c4 	tbz	x4, #62, 14904 <_Unwind_GetGR@@Base+0x44>
   148f0:	8b020002 	add	x2, x0, x2
   148f4:	394d6040 	ldrb	w0, [x2, #856]
   148f8:	34000060 	cbz	w0, 14904 <_Unwind_GetGR@@Base+0x44>
   148fc:	aa0103e0 	mov	x0, x1
   14900:	14000004 	b	14910 <_Unwind_GetGR@@Base+0x50>
   14904:	7100207f 	cmp	w3, #0x8
   14908:	54fffe41 	b.ne	148d0 <_Unwind_GetGR@@Base+0x10>  // b.any
   1490c:	f9400020 	ldr	x0, [x1]
   14910:	a8c17bfd 	ldp	x29, x30, [sp], #16
   14914:	d65f03c0 	ret
   14918:	a9bc7bfd 	stp	x29, x30, [sp, #-64]!
   1491c:	910003fd 	mov	x29, sp
   14920:	a9025bf5 	stp	x21, x22, [sp, #32]
   14924:	aa0003f5 	mov	x21, x0
   14928:	f941a020 	ldr	x0, [x1, #832]
   1492c:	a90153f3 	stp	x19, x20, [sp, #16]
   14930:	aa0103f3 	mov	x19, x1
   14934:	b6f00060 	tbz	x0, #62, 14940 <_Unwind_GetGR@@Base+0x80>
   14938:	394ddc20 	ldrb	w0, [x1, #887]
   1493c:	350000e0 	cbnz	w0, 14958 <_Unwind_GetGR@@Base+0x98>
   14940:	f9407e60 	ldr	x0, [x19, #248]
   14944:	b50000a0 	cbnz	x0, 14958 <_Unwind_GetGR@@Base+0x98>
   14948:	f9418a61 	ldr	x1, [x19, #784]
   1494c:	aa1303e0 	mov	x0, x19
   14950:	9100e3a2 	add	x2, x29, #0x38
   14954:	97ffffcc 	bl	14884 <__cxa_current_exception_type@@Base+0x2a8>
   14958:	d2800014 	mov	x20, #0x0                   	// #0
   1495c:	f0000156 	adrp	x22, 3f000 <__bss_start@@Base+0x10fd0>
   14960:	8b1402a2 	add	x2, x21, x20
   14964:	f8747aa0 	ldr	x0, [x21, x20, lsl #3]
   14968:	f8747a61 	ldr	x1, [x19, x20, lsl #3]
   1496c:	394d6042 	ldrb	w2, [x2, #856]
   14970:	34000042 	cbz	w2, 14978 <_Unwind_GetGR@@Base+0xb8>
   14974:	97ffc06f 	bl	4b30 <abort@plt>
   14978:	8b140263 	add	x3, x19, x20
   1497c:	eb1f001f 	cmp	x0, xzr
   14980:	1a9f07e2 	cset	w2, ne	// ne = any
   14984:	394d6063 	ldrb	w3, [x3, #856]
   14988:	34000103 	cbz	w3, 149a8 <_Unwind_GetGR@@Base+0xe8>
   1498c:	340000e2 	cbz	w2, 149a8 <_Unwind_GetGR@@Base+0xe8>
   14990:	913282c2 	add	x2, x22, #0xca0
   14994:	38626a82 	ldrb	w2, [x20, x2]
   14998:	7100205f 	cmp	w2, #0x8
   1499c:	54fffec1 	b.ne	14974 <_Unwind_GetGR@@Base+0xb4>  // b.any
   149a0:	f9000001 	str	x1, [x0]
   149a4:	1400000a 	b	149cc <_Unwind_GetGR@@Base+0x10c>
   149a8:	eb1f003f 	cmp	x1, xzr
   149ac:	1a9f07e3 	cset	w3, ne	// ne = any
   149b0:	6a03005f 	tst	w2, w3
   149b4:	540000c0 	b.eq	149cc <_Unwind_GetGR@@Base+0x10c>  // b.none
   149b8:	eb00003f 	cmp	x1, x0
   149bc:	54000080 	b.eq	149cc <_Unwind_GetGR@@Base+0x10c>  // b.none
   149c0:	913282c2 	add	x2, x22, #0xca0
   149c4:	38746842 	ldrb	w2, [x2, x20]
   149c8:	97ffbffe 	bl	49c0 <memcpy@plt>
   149cc:	91000694 	add	x20, x20, #0x1
   149d0:	f101869f 	cmp	x20, #0x61
   149d4:	54fffc61 	b.ne	14960 <_Unwind_GetGR@@Base+0xa0>  // b.any
   149d8:	f941a2a0 	ldr	x0, [x21, #832]
   149dc:	b6f00080 	tbz	x0, #62, 149ec <_Unwind_GetGR@@Base+0x12c>
   149e0:	394ddea1 	ldrb	w1, [x21, #887]
   149e4:	d2800000 	mov	x0, #0x0                   	// #0
   149e8:	35000161 	cbnz	w1, 14a14 <_Unwind_GetGR@@Base+0x154>
   149ec:	f9407ea1 	ldr	x1, [x21, #248]
   149f0:	d2800000 	mov	x0, #0x0                   	// #0
   149f4:	b5000101 	cbnz	x1, 14a14 <_Unwind_GetGR@@Base+0x154>
   149f8:	528003e1 	mov	w1, #0x1f                  	// #31
   149fc:	aa1303e0 	mov	x0, x19
   14a00:	97ffffb0 	bl	148c0 <_Unwind_GetGR@@Base>
   14a04:	f9418aa1 	ldr	x1, [x21, #784]
   14a08:	f941aa75 	ldr	x21, [x19, #848]
   14a0c:	cb010000 	sub	x0, x0, x1
   14a10:	8b150000 	add	x0, x0, x21
   14a14:	a94153f3 	ldp	x19, x20, [sp, #16]
   14a18:	a9425bf5 	ldp	x21, x22, [sp, #32]
   14a1c:	a8c47bfd 	ldp	x29, x30, [sp], #64
   14a20:	d65f03c0 	ret

0000000000014a24 <_Unwind_GetCFA@@Base>:
   14a24:	f9418800 	ldr	x0, [x0, #784]
   14a28:	d65f03c0 	ret

0000000000014a2c <_Unwind_SetGR@@Base>:
   14a2c:	a9bf7bfd 	stp	x29, x30, [sp, #-16]!
   14a30:	7101843f 	cmp	w1, #0x61
   14a34:	910003fd 	mov	x29, sp
   14a38:	5400004d 	b.le	14a40 <_Unwind_SetGR@@Base+0x14>
   14a3c:	97ffc03d 	bl	4b30 <abort@plt>
   14a40:	f0000144 	adrp	x4, 3f000 <__bss_start@@Base+0x10fd0>
   14a44:	93407c23 	sxtw	x3, w1
   14a48:	91328084 	add	x4, x4, #0xca0
   14a4c:	f941a005 	ldr	x5, [x0, #832]
   14a50:	38636884 	ldrb	w4, [x4, x3]
   14a54:	b6f000c5 	tbz	x5, #62, 14a6c <_Unwind_SetGR@@Base+0x40>
   14a58:	8b030003 	add	x3, x0, x3
   14a5c:	394d6063 	ldrb	w3, [x3, #856]
   14a60:	34000063 	cbz	w3, 14a6c <_Unwind_SetGR@@Base+0x40>
   14a64:	f821d802 	str	x2, [x0, w1, sxtw #3]
   14a68:	14000005 	b	14a7c <_Unwind_SetGR@@Base+0x50>
   14a6c:	7100209f 	cmp	w4, #0x8
   14a70:	f861d800 	ldr	x0, [x0, w1, sxtw #3]
   14a74:	54fffe41 	b.ne	14a3c <_Unwind_SetGR@@Base+0x10>  // b.any
   14a78:	f9000002 	str	x2, [x0]
   14a7c:	a8c17bfd 	ldp	x29, x30, [sp], #16
   14a80:	d65f03c0 	ret

0000000000014a84 <_Unwind_GetIP@@Base>:
   14a84:	f9418c00 	ldr	x0, [x0, #792]
   14a88:	d65f03c0 	ret

0000000000014a8c <_Unwind_GetIPInfo@@Base>:
   14a8c:	f941a002 	ldr	x2, [x0, #832]
   14a90:	f9418c00 	ldr	x0, [x0, #792]
   14a94:	d37ffc42 	lsr	x2, x2, #63
   14a98:	b9000022 	str	w2, [x1]
   14a9c:	d65f03c0 	ret

0000000000014aa0 <_Unwind_SetIP@@Base>:
   14aa0:	f9018c01 	str	x1, [x0, #792]
   14aa4:	d65f03c0 	ret

0000000000014aa8 <_Unwind_GetLanguageSpecificData@@Base>:
   14aa8:	f9419000 	ldr	x0, [x0, #800]
   14aac:	d65f03c0 	ret

0000000000014ab0 <_Unwind_GetRegionStart@@Base>:
   14ab0:	f9419c00 	ldr	x0, [x0, #824]
   14ab4:	d65f03c0 	ret

0000000000014ab8 <_Unwind_FindEnclosingFunction@@Base>:
   14ab8:	a9bd7bfd 	stp	x29, x30, [sp, #-48]!
   14abc:	d1000400 	sub	x0, x0, #0x1
   14ac0:	910003fd 	mov	x29, sp
   14ac4:	910063a1 	add	x1, x29, #0x18
   14ac8:	94000c4f 	bl	17c04 <_Unwind_Find_FDE@@Base>
   14acc:	eb1f001f 	cmp	x0, xzr
   14ad0:	f94017a0 	ldr	x0, [x29, #40]
   14ad4:	a8c37bfd 	ldp	x29, x30, [sp], #48
   14ad8:	9a9f1000 	csel	x0, x0, xzr, ne	// ne = any
   14adc:	d65f03c0 	ret

0000000000014ae0 <_Unwind_GetDataRelBase@@Base>:
   14ae0:	f9419800 	ldr	x0, [x0, #816]
   14ae4:	d65f03c0 	ret

0000000000014ae8 <_Unwind_GetTextRelBase@@Base>:
   14ae8:	f9419400 	ldr	x0, [x0, #808]
   14aec:	d65f03c0 	ret
   14af0:	a9bf7bfd 	stp	x29, x30, [sp, #-16]!
   14af4:	53001c02 	uxtb	w2, w0
   14af8:	aa0103e0 	mov	x0, x1
   14afc:	7103fc5f 	cmp	w2, #0xff
   14b00:	910003fd 	mov	x29, sp
   14b04:	540002c0 	b.eq	14b5c <_Unwind_GetTextRelBase@@Base+0x74>  // b.none
   14b08:	121c0842 	and	w2, w2, #0x70
   14b0c:	7100805f 	cmp	w2, #0x20
   14b10:	540001c0 	b.eq	14b48 <_Unwind_GetTextRelBase@@Base+0x60>  // b.none
   14b14:	540000a8 	b.hi	14b28 <_Unwind_GetTextRelBase@@Base+0x40>  // b.pmore
   14b18:	34000222 	cbz	w2, 14b5c <_Unwind_GetTextRelBase@@Base+0x74>
   14b1c:	7100405f 	cmp	w2, #0x10
   14b20:	540001c1 	b.ne	14b58 <_Unwind_GetTextRelBase@@Base+0x70>  // b.any
   14b24:	1400000e 	b	14b5c <_Unwind_GetTextRelBase@@Base+0x74>
   14b28:	7101005f 	cmp	w2, #0x40
   14b2c:	54000120 	b.eq	14b50 <_Unwind_GetTextRelBase@@Base+0x68>  // b.none
   14b30:	7101405f 	cmp	w2, #0x50
   14b34:	54000140 	b.eq	14b5c <_Unwind_GetTextRelBase@@Base+0x74>  // b.none
   14b38:	7100c05f 	cmp	w2, #0x30
   14b3c:	540000e1 	b.ne	14b58 <_Unwind_GetTextRelBase@@Base+0x70>  // b.any
   14b40:	a8c17bfd 	ldp	x29, x30, [sp], #16
   14b44:	17ffffe7 	b	14ae0 <_Unwind_GetDataRelBase@@Base>
   14b48:	a8c17bfd 	ldp	x29, x30, [sp], #16
   14b4c:	17ffffe7 	b	14ae8 <_Unwind_GetTextRelBase@@Base>
   14b50:	a8c17bfd 	ldp	x29, x30, [sp], #16
   14b54:	17ffffd7 	b	14ab0 <_Unwind_GetRegionStart@@Base>
   14b58:	97ffbff6 	bl	4b30 <abort@plt>
   14b5c:	d2800000 	mov	x0, #0x0                   	// #0
   14b60:	a8c17bfd 	ldp	x29, x30, [sp], #16
   14b64:	d65f03c0 	ret
   14b68:	a9b77bfd 	stp	x29, x30, [sp, #-144]!
   14b6c:	910003fd 	mov	x29, sp
   14b70:	a9025bf5 	stp	x21, x22, [sp, #32]
   14b74:	a90363f7 	stp	x23, x24, [sp, #48]
   14b78:	a9046bf9 	stp	x25, x26, [sp, #64]
   14b7c:	a90573fb 	stp	x27, x28, [sp, #80]
   14b80:	a90153f3 	stp	x19, x20, [sp, #16]
   14b84:	9000003b 	adrp	x27, 18000 <_ZTSN10__cxxabiv117__class_type_infoE@@Base>
   14b88:	aa0103fc 	mov	x28, x1
   14b8c:	aa0203fa 	mov	x26, x2
   14b90:	aa0303f3 	mov	x19, x3
   14b94:	f903107f 	str	xzr, [x3, #1568]
   14b98:	d2800018 	mov	x24, #0x0                   	// #0
   14b9c:	913ee37b 	add	x27, x27, #0xfb8
   14ba0:	9101e3b6 	add	x22, x29, #0x78
   14ba4:	910203b5 	add	x21, x29, #0x80
   14ba8:	52800037 	mov	w23, #0x1                   	// #1
   14bac:	910223b9 	add	x25, x29, #0x88
   14bb0:	eb1c001f 	cmp	x0, x28
   14bb4:	54002462 	b.cs	15040 <_Unwind_GetTextRelBase@@Base+0x558>  // b.hs, b.nlast
   14bb8:	f941a341 	ldr	x1, [x26, #832]
   14bbc:	f9418f43 	ldr	x3, [x26, #792]
   14bc0:	f9432662 	ldr	x2, [x19, #1608]
   14bc4:	8b41fc61 	add	x1, x3, x1, lsr #63
   14bc8:	eb01005f 	cmp	x2, x1
   14bcc:	540023a2 	b.cs	15040 <_Unwind_GetTextRelBase@@Base+0x558>  // b.hs, b.nlast
   14bd0:	39400001 	ldrb	w1, [x0]
   14bd4:	91000414 	add	x20, x0, #0x1
   14bd8:	121a0423 	and	w3, w1, #0xc0
   14bdc:	7101007f 	cmp	w3, #0x40
   14be0:	540000c1 	b.ne	14bf8 <_Unwind_GetTextRelBase@@Base+0x110>  // b.any
   14be4:	f9433260 	ldr	x0, [x19, #1632]
   14be8:	92401421 	and	x1, x1, #0x3f
   14bec:	9b000821 	madd	x1, x1, x0, x2
   14bf0:	f9032661 	str	x1, [x19, #1608]
   14bf4:	14000111 	b	15038 <_Unwind_GetTextRelBase@@Base+0x550>
   14bf8:	7102007f 	cmp	w3, #0x80
   14bfc:	540000a1 	b.ne	14c10 <_Unwind_GetTextRelBase@@Base+0x128>  // b.any
   14c00:	92401421 	and	x1, x1, #0x3f
   14c04:	aa1403e0 	mov	x0, x20
   14c08:	f9003fa1 	str	x1, [x29, #120]
   14c0c:	14000031 	b	14cd0 <_Unwind_GetTextRelBase@@Base+0x1e8>
   14c10:	7103007f 	cmp	w3, #0xc0
   14c14:	540000a1 	b.ne	14c28 <_Unwind_GetTextRelBase@@Base+0x140>  // b.any
   14c18:	d37c1421 	ubfiz	x1, x1, #4, #6
   14c1c:	8b010261 	add	x1, x19, x1
   14c20:	b900083f 	str	wzr, [x1, #8]
   14c24:	14000105 	b	15038 <_Unwind_GetTextRelBase@@Base+0x550>
   14c28:	7100bc3f 	cmp	w1, #0x2f
   14c2c:	54002048 	b.hi	15034 <_Unwind_GetTextRelBase@@Base+0x54c>  // b.pmore
   14c30:	78615b61 	ldrh	w1, [x27, w1, uxtw #1]
   14c34:	10000063 	adr	x3, 14c40 <_Unwind_GetTextRelBase@@Base+0x158>
   14c38:	8b21a861 	add	x1, x3, w1, sxth #2
   14c3c:	d61f0020 	br	x1
   14c40:	3959c262 	ldrb	w2, [x19, #1648]
   14c44:	aa1a03e1 	mov	x1, x26
   14c48:	f90037a2 	str	x2, [x29, #104]
   14c4c:	2a0203e0 	mov	w0, w2
   14c50:	97ffffa8 	bl	14af0 <_Unwind_GetTextRelBase@@Base+0x8>
   14c54:	aa0003e1 	mov	x1, x0
   14c58:	f94037a2 	ldr	x2, [x29, #104]
   14c5c:	aa1903e3 	mov	x3, x25
   14c60:	2a0203e0 	mov	w0, w2
   14c64:	aa1403e2 	mov	x2, x20
   14c68:	97fffe86 	bl	14680 <__cxa_current_exception_type@@Base+0xa4>
   14c6c:	aa0003f4 	mov	x20, x0
   14c70:	f94047a0 	ldr	x0, [x29, #136]
   14c74:	f9032660 	str	x0, [x19, #1608]
   14c78:	140000f0 	b	15038 <_Unwind_GetTextRelBase@@Base+0x550>
   14c7c:	39400401 	ldrb	w1, [x0, #1]
   14c80:	91000814 	add	x20, x0, #0x2
   14c84:	f9433263 	ldr	x3, [x19, #1632]
   14c88:	9b030822 	madd	x2, x1, x3, x2
   14c8c:	f9032662 	str	x2, [x19, #1608]
   14c90:	140000ea 	b	15038 <_Unwind_GetTextRelBase@@Base+0x550>
   14c94:	78401001 	ldurh	w1, [x0, #1]
   14c98:	91000c14 	add	x20, x0, #0x3
   14c9c:	f9433263 	ldr	x3, [x19, #1632]
   14ca0:	9b030822 	madd	x2, x1, x3, x2
   14ca4:	f9032662 	str	x2, [x19, #1608]
   14ca8:	140000e4 	b	15038 <_Unwind_GetTextRelBase@@Base+0x550>
   14cac:	b8401001 	ldur	w1, [x0, #1]
   14cb0:	91001414 	add	x20, x0, #0x5
   14cb4:	f9433263 	ldr	x3, [x19, #1632]
   14cb8:	9b030822 	madd	x2, x1, x3, x2
   14cbc:	f9032662 	str	x2, [x19, #1608]
   14cc0:	140000de 	b	15038 <_Unwind_GetTextRelBase@@Base+0x550>
   14cc4:	aa1403e0 	mov	x0, x20
   14cc8:	aa1603e1 	mov	x1, x22
   14ccc:	97fffe53 	bl	14618 <__cxa_current_exception_type@@Base+0x3c>
   14cd0:	aa1503e1 	mov	x1, x21
   14cd4:	97fffe51 	bl	14618 <__cxa_current_exception_type@@Base+0x3c>
   14cd8:	aa0003f4 	mov	x20, x0
   14cdc:	f9432e61 	ldr	x1, [x19, #1624]
   14ce0:	f94043a0 	ldr	x0, [x29, #128]
   14ce4:	1400006b 	b	14e90 <_Unwind_GetTextRelBase@@Base+0x3a8>
   14ce8:	aa1403e0 	mov	x0, x20
   14cec:	aa1603e1 	mov	x1, x22
   14cf0:	97fffe4a 	bl	14618 <__cxa_current_exception_type@@Base+0x3c>
   14cf4:	aa0003f4 	mov	x20, x0
   14cf8:	f9403fa0 	ldr	x0, [x29, #120]
   14cfc:	f101841f 	cmp	x0, #0x61
   14d00:	540019c8 	b.hi	15038 <_Unwind_GetTextRelBase@@Base+0x550>  // b.pmore
   14d04:	8b001260 	add	x0, x19, x0, lsl #4
   14d08:	b900081f 	str	wzr, [x0, #8]
   14d0c:	140000cb 	b	15038 <_Unwind_GetTextRelBase@@Base+0x550>
   14d10:	aa1403e0 	mov	x0, x20
   14d14:	aa1603e1 	mov	x1, x22
   14d18:	97fffe40 	bl	14618 <__cxa_current_exception_type@@Base+0x3c>
   14d1c:	aa0003f4 	mov	x20, x0
   14d20:	f9403fa0 	ldr	x0, [x29, #120]
   14d24:	f101841f 	cmp	x0, #0x61
   14d28:	54001888 	b.hi	15038 <_Unwind_GetTextRelBase@@Base+0x550>  // b.pmore
   14d2c:	8b001260 	add	x0, x19, x0, lsl #4
   14d30:	528000c1 	mov	w1, #0x6                   	// #6
   14d34:	b9000801 	str	w1, [x0, #8]
   14d38:	140000c0 	b	15038 <_Unwind_GetTextRelBase@@Base+0x550>
   14d3c:	aa1403e0 	mov	x0, x20
   14d40:	aa1603e1 	mov	x1, x22
   14d44:	97fffe35 	bl	14618 <__cxa_current_exception_type@@Base+0x3c>
   14d48:	aa1903e1 	mov	x1, x25
   14d4c:	97fffe33 	bl	14618 <__cxa_current_exception_type@@Base+0x3c>
   14d50:	aa0003f4 	mov	x20, x0
   14d54:	f9403fa0 	ldr	x0, [x29, #120]
   14d58:	f101841f 	cmp	x0, #0x61
   14d5c:	540016e8 	b.hi	15038 <_Unwind_GetTextRelBase@@Base+0x550>  // b.pmore
   14d60:	d37cec00 	lsl	x0, x0, #4
   14d64:	52800042 	mov	w2, #0x2                   	// #2
   14d68:	8b000261 	add	x1, x19, x0
   14d6c:	b9000822 	str	w2, [x1, #8]
   14d70:	f94047a1 	ldr	x1, [x29, #136]
   14d74:	140000ae 	b	1502c <_Unwind_GetTextRelBase@@Base+0x544>
   14d78:	b4000098 	cbz	x24, 14d88 <_Unwind_GetTextRelBase@@Base+0x2a0>
   14d7c:	aa1803e3 	mov	x3, x24
   14d80:	f9431318 	ldr	x24, [x24, #1568]
   14d84:	14000003 	b	14d90 <_Unwind_GetTextRelBase@@Base+0x2a8>
   14d88:	d11983ff 	sub	sp, sp, #0x660
   14d8c:	910003e3 	mov	x3, sp
   14d90:	aa0303e0 	mov	x0, x3
   14d94:	aa1303e1 	mov	x1, x19
   14d98:	d280c902 	mov	x2, #0x648                 	// #1608
   14d9c:	97ffbf09 	bl	49c0 <memcpy@plt>
   14da0:	f9031260 	str	x0, [x19, #1568]
   14da4:	140000a5 	b	15038 <_Unwind_GetTextRelBase@@Base+0x550>
   14da8:	f9431263 	ldr	x3, [x19, #1568]
   14dac:	aa1303e0 	mov	x0, x19
   14db0:	d280c902 	mov	x2, #0x648                 	// #1608
   14db4:	f90037a3 	str	x3, [x29, #104]
   14db8:	aa0303e1 	mov	x1, x3
   14dbc:	97ffbf01 	bl	49c0 <memcpy@plt>
   14dc0:	f94037a3 	ldr	x3, [x29, #104]
   14dc4:	f9031078 	str	x24, [x3, #1568]
   14dc8:	aa0303f8 	mov	x24, x3
   14dcc:	1400009b 	b	15038 <_Unwind_GetTextRelBase@@Base+0x550>
   14dd0:	aa1403e0 	mov	x0, x20
   14dd4:	aa1503e1 	mov	x1, x21
   14dd8:	97fffe10 	bl	14618 <__cxa_current_exception_type@@Base+0x3c>
   14ddc:	f94043a1 	ldr	x1, [x29, #128]
   14de0:	f9031a61 	str	x1, [x19, #1584]
   14de4:	aa1503e1 	mov	x1, x21
   14de8:	97fffe0c 	bl	14618 <__cxa_current_exception_type@@Base+0x3c>
   14dec:	aa0003f4 	mov	x20, x0
   14df0:	f94043a0 	ldr	x0, [x29, #128]
   14df4:	f9031660 	str	x0, [x19, #1576]
   14df8:	14000007 	b	14e14 <_Unwind_GetTextRelBase@@Base+0x32c>
   14dfc:	aa1403e0 	mov	x0, x20
   14e00:	aa1503e1 	mov	x1, x21
   14e04:	97fffe05 	bl	14618 <__cxa_current_exception_type@@Base+0x3c>
   14e08:	aa0003f4 	mov	x20, x0
   14e0c:	f94043a0 	ldr	x0, [x29, #128]
   14e10:	f9031a60 	str	x0, [x19, #1584]
   14e14:	b9064277 	str	w23, [x19, #1600]
   14e18:	14000088 	b	15038 <_Unwind_GetTextRelBase@@Base+0x550>
   14e1c:	aa1403e0 	mov	x0, x20
   14e20:	aa1503e1 	mov	x1, x21
   14e24:	97fffdfd 	bl	14618 <__cxa_current_exception_type@@Base+0x3c>
   14e28:	aa0003f4 	mov	x20, x0
   14e2c:	f94043a0 	ldr	x0, [x29, #128]
   14e30:	1400002c 	b	14ee0 <_Unwind_GetTextRelBase@@Base+0x3f8>
   14e34:	52800040 	mov	w0, #0x2                   	// #2
   14e38:	f9031e74 	str	x20, [x19, #1592]
   14e3c:	b9064260 	str	w0, [x19, #1600]
   14e40:	aa1403e0 	mov	x0, x20
   14e44:	14000053 	b	14f90 <_Unwind_GetTextRelBase@@Base+0x4a8>
   14e48:	aa1603e1 	mov	x1, x22
   14e4c:	aa1403e0 	mov	x0, x20
   14e50:	97fffdf2 	bl	14618 <__cxa_current_exception_type@@Base+0x3c>
   14e54:	f9403fa1 	ldr	x1, [x29, #120]
   14e58:	f101843f 	cmp	x1, #0x61
   14e5c:	540009a8 	b.hi	14f90 <_Unwind_GetTextRelBase@@Base+0x4a8>  // b.pmore
   14e60:	d37cec21 	lsl	x1, x1, #4
   14e64:	52800063 	mov	w3, #0x3                   	// #3
   14e68:	8b010262 	add	x2, x19, x1
   14e6c:	14000047 	b	14f88 <_Unwind_GetTextRelBase@@Base+0x4a0>
   14e70:	aa1403e0 	mov	x0, x20
   14e74:	aa1603e1 	mov	x1, x22
   14e78:	97fffde8 	bl	14618 <__cxa_current_exception_type@@Base+0x3c>
   14e7c:	aa1903e1 	mov	x1, x25
   14e80:	97fffdf0 	bl	14640 <__cxa_current_exception_type@@Base+0x64>
   14e84:	aa0003f4 	mov	x20, x0
   14e88:	f9432e61 	ldr	x1, [x19, #1624]
   14e8c:	f94047a0 	ldr	x0, [x29, #136]
   14e90:	9b017c01 	mul	x1, x0, x1
   14e94:	f9403fa0 	ldr	x0, [x29, #120]
   14e98:	f101841f 	cmp	x0, #0x61
   14e9c:	54000ce8 	b.hi	15038 <_Unwind_GetTextRelBase@@Base+0x550>  // b.pmore
   14ea0:	d37cec00 	lsl	x0, x0, #4
   14ea4:	8b000262 	add	x2, x19, x0
   14ea8:	b9000857 	str	w23, [x2, #8]
   14eac:	14000060 	b	1502c <_Unwind_GetTextRelBase@@Base+0x544>
   14eb0:	aa1403e0 	mov	x0, x20
   14eb4:	aa1503e1 	mov	x1, x21
   14eb8:	97fffdd8 	bl	14618 <__cxa_current_exception_type@@Base+0x3c>
   14ebc:	f94043a1 	ldr	x1, [x29, #128]
   14ec0:	f9031a61 	str	x1, [x19, #1584]
   14ec4:	aa1903e1 	mov	x1, x25
   14ec8:	97fffdde 	bl	14640 <__cxa_current_exception_type@@Base+0x64>
   14ecc:	b9064277 	str	w23, [x19, #1600]
   14ed0:	aa0003f4 	mov	x20, x0
   14ed4:	f9432e61 	ldr	x1, [x19, #1624]
   14ed8:	f94047a0 	ldr	x0, [x29, #136]
   14edc:	9b017c00 	mul	x0, x0, x1
   14ee0:	f9031660 	str	x0, [x19, #1576]
   14ee4:	14000055 	b	15038 <_Unwind_GetTextRelBase@@Base+0x550>
   14ee8:	aa1403e0 	mov	x0, x20
   14eec:	aa1903e1 	mov	x1, x25
   14ef0:	97fffdd4 	bl	14640 <__cxa_current_exception_type@@Base+0x64>
   14ef4:	aa0003f4 	mov	x20, x0
   14ef8:	17fffff7 	b	14ed4 <_Unwind_GetTextRelBase@@Base+0x3ec>
   14efc:	aa1403e0 	mov	x0, x20
   14f00:	aa1603e1 	mov	x1, x22
   14f04:	97fffdc5 	bl	14618 <__cxa_current_exception_type@@Base+0x3c>
   14f08:	aa1503e1 	mov	x1, x21
   14f0c:	97fffdc3 	bl	14618 <__cxa_current_exception_type@@Base+0x3c>
   14f10:	aa0003f4 	mov	x20, x0
   14f14:	f9432e61 	ldr	x1, [x19, #1624]
   14f18:	f94043a0 	ldr	x0, [x29, #128]
   14f1c:	14000009 	b	14f40 <_Unwind_GetTextRelBase@@Base+0x458>
   14f20:	aa1403e0 	mov	x0, x20
   14f24:	aa1603e1 	mov	x1, x22
   14f28:	97fffdbc 	bl	14618 <__cxa_current_exception_type@@Base+0x3c>
   14f2c:	aa1903e1 	mov	x1, x25
   14f30:	97fffdc4 	bl	14640 <__cxa_current_exception_type@@Base+0x64>
   14f34:	aa0003f4 	mov	x20, x0
   14f38:	f9432e61 	ldr	x1, [x19, #1624]
   14f3c:	f94047a0 	ldr	x0, [x29, #136]
   14f40:	9b017c01 	mul	x1, x0, x1
   14f44:	f9403fa0 	ldr	x0, [x29, #120]
   14f48:	f101841f 	cmp	x0, #0x61
   14f4c:	54000768 	b.hi	15038 <_Unwind_GetTextRelBase@@Base+0x550>  // b.pmore
   14f50:	d37cec00 	lsl	x0, x0, #4
   14f54:	52800083 	mov	w3, #0x4                   	// #4
   14f58:	8b000262 	add	x2, x19, x0
   14f5c:	b9000843 	str	w3, [x2, #8]
   14f60:	14000033 	b	1502c <_Unwind_GetTextRelBase@@Base+0x544>
   14f64:	aa1603e1 	mov	x1, x22
   14f68:	aa1403e0 	mov	x0, x20
   14f6c:	97fffdab 	bl	14618 <__cxa_current_exception_type@@Base+0x3c>
   14f70:	f9403fa1 	ldr	x1, [x29, #120]
   14f74:	f101843f 	cmp	x1, #0x61
   14f78:	540000c8 	b.hi	14f90 <_Unwind_GetTextRelBase@@Base+0x4a8>  // b.pmore
   14f7c:	d37cec21 	lsl	x1, x1, #4
   14f80:	528000a3 	mov	w3, #0x5                   	// #5
   14f84:	8b010262 	add	x2, x19, x1
   14f88:	b9000843 	str	w3, [x2, #8]
   14f8c:	f8216a60 	str	x0, [x19, x1]
   14f90:	aa1503e1 	mov	x1, x21
   14f94:	97fffda1 	bl	14618 <__cxa_current_exception_type@@Base+0x3c>
   14f98:	f94043b4 	ldr	x20, [x29, #128]
   14f9c:	8b140014 	add	x20, x0, x20
   14fa0:	14000026 	b	15038 <_Unwind_GetTextRelBase@@Base+0x550>
   14fa4:	d2800200 	mov	x0, #0x10                  	// #16
   14fa8:	91040262 	add	x2, x19, #0x100
   14fac:	f9003fa0 	str	x0, [x29, #120]
   14fb0:	d2800001 	mov	x1, #0x0                   	// #0
   14fb4:	b9000857 	str	w23, [x2, #8]
   14fb8:	91000400 	add	x0, x0, #0x1
   14fbc:	f8010441 	str	x1, [x2], #16
   14fc0:	f100801f 	cmp	x0, #0x20
   14fc4:	91002021 	add	x1, x1, #0x8
   14fc8:	54ffff61 	b.ne	14fb4 <_Unwind_GetTextRelBase@@Base+0x4cc>  // b.any
   14fcc:	1400001b 	b	15038 <_Unwind_GetTextRelBase@@Base+0x550>
   14fd0:	aa1403e0 	mov	x0, x20
   14fd4:	aa1503e1 	mov	x1, x21
   14fd8:	97fffd90 	bl	14618 <__cxa_current_exception_type@@Base+0x3c>
   14fdc:	aa0003f4 	mov	x20, x0
   14fe0:	f94043a0 	ldr	x0, [x29, #128]
   14fe4:	f901ab40 	str	x0, [x26, #848]
   14fe8:	14000014 	b	15038 <_Unwind_GetTextRelBase@@Base+0x550>
   14fec:	aa1403e0 	mov	x0, x20
   14ff0:	aa1603e1 	mov	x1, x22
   14ff4:	97fffd89 	bl	14618 <__cxa_current_exception_type@@Base+0x3c>
   14ff8:	aa1503e1 	mov	x1, x21
   14ffc:	97fffd87 	bl	14618 <__cxa_current_exception_type@@Base+0x3c>
   15000:	aa0003f4 	mov	x20, x0
   15004:	f94043a1 	ldr	x1, [x29, #128]
   15008:	f9432e60 	ldr	x0, [x19, #1624]
   1500c:	9b017c01 	mul	x1, x0, x1
   15010:	f9403fa0 	ldr	x0, [x29, #120]
   15014:	f101841f 	cmp	x0, #0x61
   15018:	54000108 	b.hi	15038 <_Unwind_GetTextRelBase@@Base+0x550>  // b.pmore
   1501c:	d37cec00 	lsl	x0, x0, #4
   15020:	cb0103e1 	neg	x1, x1
   15024:	8b000262 	add	x2, x19, x0
   15028:	b9000857 	str	w23, [x2, #8]
   1502c:	f8206a61 	str	x1, [x19, x0]
   15030:	14000002 	b	15038 <_Unwind_GetTextRelBase@@Base+0x550>
   15034:	97ffbebf 	bl	4b30 <abort@plt>
   15038:	aa1403e0 	mov	x0, x20
   1503c:	17fffedd 	b	14bb0 <_Unwind_GetTextRelBase@@Base+0xc8>
   15040:	910003bf 	mov	sp, x29
   15044:	a94153f3 	ldp	x19, x20, [sp, #16]
   15048:	a9425bf5 	ldp	x21, x22, [sp, #32]
   1504c:	a94363f7 	ldp	x23, x24, [sp, #48]
   15050:	a9446bf9 	ldp	x25, x26, [sp, #64]
   15054:	a94573fb 	ldp	x27, x28, [sp, #80]
   15058:	a8c97bfd 	ldp	x29, x30, [sp], #144
   1505c:	d65f03c0 	ret
   15060:	a9b77bfd 	stp	x29, x30, [sp, #-144]!
   15064:	d280d002 	mov	x2, #0x680                 	// #1664
   15068:	910003fd 	mov	x29, sp
   1506c:	a90153f3 	stp	x19, x20, [sp, #16]
   15070:	aa0003f4 	mov	x20, x0
   15074:	aa0103f3 	mov	x19, x1
   15078:	aa0103e0 	mov	x0, x1
   1507c:	52800001 	mov	w1, #0x0                   	// #0
   15080:	a9025bf5 	stp	x21, x22, [sp, #32]
   15084:	a90363f7 	stp	x23, x24, [sp, #48]
   15088:	a9046bf9 	stp	x25, x26, [sp, #64]
   1508c:	f9002bfb 	str	x27, [sp, #80]
   15090:	97ffbea0 	bl	4b10 <memset@plt>
   15094:	f9418e81 	ldr	x1, [x20, #792]
   15098:	f901aa9f 	str	xzr, [x20, #848]
   1509c:	f901929f 	str	xzr, [x20, #800]
   150a0:	b5000061 	cbnz	x1, 150ac <_Unwind_GetTextRelBase@@Base+0x5c4>
   150a4:	528000a0 	mov	w0, #0x5                   	// #5
   150a8:	140000f0 	b	15468 <_Unwind_GetTextRelBase@@Base+0x980>
   150ac:	f941a280 	ldr	x0, [x20, #832]
   150b0:	d37ffc00 	lsr	x0, x0, #63
   150b4:	d1000400 	sub	x0, x0, #0x1
   150b8:	8b000020 	add	x0, x1, x0
   150bc:	910ca281 	add	x1, x20, #0x328
   150c0:	94000ad1 	bl	17c04 <_Unwind_Find_FDE@@Base>
   150c4:	aa0003f5 	mov	x21, x0
   150c8:	b5000800 	cbnz	x0, 151c8 <_Unwind_GetTextRelBase@@Base+0x6e0>
   150cc:	f9418e81 	ldr	x1, [x20, #792]
   150d0:	52822d00 	mov	w0, #0x1168                	// #4456
   150d4:	72ba5000 	movk	w0, #0xd280, lsl #16
   150d8:	b9400022 	ldr	w2, [x1]
   150dc:	6b00005f 	cmp	w2, w0
   150e0:	54fffe21 	b.ne	150a4 <_Unwind_GetTextRelBase@@Base+0x5bc>  // b.any
   150e4:	b9400421 	ldr	w1, [x1, #4]
   150e8:	52800020 	mov	w0, #0x1                   	// #1
   150ec:	72ba8000 	movk	w0, #0xd400, lsl #16
   150f0:	6b00003f 	cmp	w1, w0
   150f4:	52800021 	mov	w1, #0x1                   	// #1
   150f8:	54fffd61 	b.ne	150a4 <_Unwind_GetTextRelBase@@Base+0x5bc>  // b.any
   150fc:	f9418a94 	ldr	x20, [x20, #784]
   15100:	d28003e0 	mov	x0, #0x1f                  	// #31
   15104:	f9031a60 	str	x0, [x19, #1584]
   15108:	d2802600 	mov	x0, #0x130                 	// #304
   1510c:	b9064261 	str	w1, [x19, #1600]
   15110:	9104c283 	add	x3, x20, #0x130
   15114:	f9031660 	str	x0, [x19, #1576]
   15118:	d2802004 	mov	x4, #0x100                 	// #256
   1511c:	d2800100 	mov	x0, #0x8                   	// #8
   15120:	aa1303e2 	mov	x2, x19
   15124:	b9000841 	str	w1, [x2, #8]
   15128:	f8010440 	str	x0, [x2], #16
   1512c:	91002000 	add	x0, x0, #0x8
   15130:	eb04001f 	cmp	x0, x4
   15134:	54ffff81 	b.ne	15124 <_Unwind_GetTextRelBase@@Base+0x63c>  // b.any
   15138:	92807de1 	mov	x1, #0xfffffffffffffc10    	// #-1008
   1513c:	91094280 	add	x0, x20, #0x250
   15140:	cb030021 	sub	x1, x1, x3
   15144:	91180265 	add	x5, x19, #0x600
   15148:	52800026 	mov	w6, #0x1                   	// #1
   1514c:	cb130021 	sub	x1, x1, x19
   15150:	b9400002 	ldr	w2, [x0]
   15154:	340001e2 	cbz	w2, 15190 <_Unwind_GetTextRelBase@@Base+0x6a8>
   15158:	52900024 	mov	w4, #0x8001                	// #32769
   1515c:	72a8ca04 	movk	w4, #0x4650, lsl #16
   15160:	6b04005f 	cmp	w2, w4
   15164:	54000101 	b.ne	15184 <_Unwind_GetTextRelBase@@Base+0x69c>  // b.any
   15168:	91100262 	add	x2, x19, #0x400
   1516c:	8b020024 	add	x4, x1, x2
   15170:	b9000846 	str	w6, [x2, #8]
   15174:	8b040004 	add	x4, x0, x4
   15178:	f8010444 	str	x4, [x2], #16
   1517c:	eb05005f 	cmp	x2, x5
   15180:	54ffff61 	b.ne	1516c <_Unwind_GetTextRelBase@@Base+0x684>  // b.any
   15184:	b9400402 	ldr	w2, [x0, #4]
   15188:	8b020000 	add	x0, x0, x2
   1518c:	17fffff1 	b	15150 <_Unwind_GetTextRelBase@@Base+0x668>
   15190:	9108c294 	add	x20, x20, #0x230
   15194:	52800020 	mov	w0, #0x1                   	// #1
   15198:	cb030294 	sub	x20, x20, x3
   1519c:	3919ce60 	strb	w0, [x19, #1651]
   151a0:	f900fa74 	str	x20, [x19, #496]
   151a4:	b901fa60 	str	w0, [x19, #504]
   151a8:	52800080 	mov	w0, #0x4                   	// #4
   151ac:	b9060a60 	str	w0, [x19, #1544]
   151b0:	f9408460 	ldr	x0, [x3, #264]
   151b4:	cb030003 	sub	x3, x0, x3
   151b8:	d2800c00 	mov	x0, #0x60                  	// #96
   151bc:	f9030263 	str	x3, [x19, #1536]
   151c0:	f9033660 	str	x0, [x19, #1640]
   151c4:	140000a6 	b	1545c <_Unwind_GetTextRelBase@@Base+0x974>
   151c8:	b98006a1 	ldrsw	x1, [x21, #4]
   151cc:	910012b6 	add	x22, x21, #0x4
   151d0:	f9419e80 	ldr	x0, [x20, #824]
   151d4:	cb0102d6 	sub	x22, x22, x1
   151d8:	f9032660 	str	x0, [x19, #1608]
   151dc:	910026d7 	add	x23, x22, #0x9
   151e0:	aa1703e0 	mov	x0, x23
   151e4:	97ffbe23 	bl	4a70 <strlen@plt>
   151e8:	91000400 	add	x0, x0, #0x1
   151ec:	394026c1 	ldrb	w1, [x22, #9]
   151f0:	8b0002e0 	add	x0, x23, x0
   151f4:	7101943f 	cmp	w1, #0x65
   151f8:	540000e1 	b.ne	15214 <_Unwind_GetTextRelBase@@Base+0x72c>  // b.any
   151fc:	39402ac1 	ldrb	w1, [x22, #10]
   15200:	7101a03f 	cmp	w1, #0x68
   15204:	54000081 	b.ne	15214 <_Unwind_GetTextRelBase@@Base+0x72c>  // b.any
   15208:	f8408401 	ldr	x1, [x0], #8
   1520c:	91002ed7 	add	x23, x22, #0xb
   15210:	f9033e61 	str	x1, [x19, #1656]
   15214:	394022c1 	ldrb	w1, [x22, #8]
   15218:	71000c3f 	cmp	w1, #0x3
   1521c:	540000e9 	b.ls	15238 <_Unwind_GetTextRelBase@@Base+0x750>  // b.plast
   15220:	39400001 	ldrb	w1, [x0]
   15224:	7100203f 	cmp	w1, #0x8
   15228:	540011e1 	b.ne	15464 <_Unwind_GetTextRelBase@@Base+0x97c>  // b.any
   1522c:	39400401 	ldrb	w1, [x0, #1]
   15230:	350011a1 	cbnz	w1, 15464 <_Unwind_GetTextRelBase@@Base+0x97c>
   15234:	91000800 	add	x0, x0, #0x2
   15238:	9101e3b9 	add	x25, x29, #0x78
   1523c:	aa1903e1 	mov	x1, x25
   15240:	97fffcf6 	bl	14618 <__cxa_current_exception_type@@Base+0x3c>
   15244:	f9403fa1 	ldr	x1, [x29, #120]
   15248:	f9033261 	str	x1, [x19, #1632]
   1524c:	910203a1 	add	x1, x29, #0x80
   15250:	97fffcfc 	bl	14640 <__cxa_current_exception_type@@Base+0x64>
   15254:	aa0003e1 	mov	x1, x0
   15258:	f94043a2 	ldr	x2, [x29, #128]
   1525c:	f9032e62 	str	x2, [x19, #1624]
   15260:	394022c2 	ldrb	w2, [x22, #8]
   15264:	7100045f 	cmp	w2, #0x1
   15268:	54000081 	b.ne	15278 <_Unwind_GetTextRelBase@@Base+0x790>  // b.any
   1526c:	91000400 	add	x0, x0, #0x1
   15270:	39400021 	ldrb	w1, [x1]
   15274:	14000004 	b	15284 <_Unwind_GetTextRelBase@@Base+0x79c>
   15278:	aa1903e1 	mov	x1, x25
   1527c:	97fffce7 	bl	14618 <__cxa_current_exception_type@@Base+0x3c>
   15280:	f9403fa1 	ldr	x1, [x29, #120]
   15284:	f9033661 	str	x1, [x19, #1640]
   15288:	12800001 	mov	w1, #0xffffffff            	// #-1
   1528c:	3919c661 	strb	w1, [x19, #1649]
   15290:	d2800018 	mov	x24, #0x0                   	// #0
   15294:	394002e1 	ldrb	w1, [x23]
   15298:	7101e83f 	cmp	w1, #0x7a
   1529c:	54000101 	b.ne	152bc <_Unwind_GetTextRelBase@@Base+0x7d4>  // b.any
   152a0:	aa1903e1 	mov	x1, x25
   152a4:	910006f7 	add	x23, x23, #0x1
   152a8:	97fffcdc 	bl	14618 <__cxa_current_exception_type@@Base+0x3c>
   152ac:	f9403fb8 	ldr	x24, [x29, #120]
   152b0:	52800021 	mov	w1, #0x1                   	// #1
   152b4:	3919ca61 	strb	w1, [x19, #1650]
   152b8:	8b180018 	add	x24, x0, x24
   152bc:	910006f7 	add	x23, x23, #0x1
   152c0:	5280003b 	mov	w27, #0x1                   	// #1
   152c4:	910223b9 	add	x25, x29, #0x88
   152c8:	385ff2e1 	ldurb	w1, [x23, #-1]
   152cc:	34000441 	cbz	w1, 15354 <_Unwind_GetTextRelBase@@Base+0x86c>
   152d0:	7101303f 	cmp	w1, #0x4c
   152d4:	54000081 	b.ne	152e4 <_Unwind_GetTextRelBase@@Base+0x7fc>  // b.any
   152d8:	39400001 	ldrb	w1, [x0]
   152dc:	3919c661 	strb	w1, [x19, #1649]
   152e0:	14000005 	b	152f4 <_Unwind_GetTextRelBase@@Base+0x80c>
   152e4:	7101483f 	cmp	w1, #0x52
   152e8:	540000a1 	b.ne	152fc <_Unwind_GetTextRelBase@@Base+0x814>  // b.any
   152ec:	39400001 	ldrb	w1, [x0]
   152f0:	3919c261 	strb	w1, [x19, #1648]
   152f4:	91000400 	add	x0, x0, #0x1
   152f8:	14000015 	b	1534c <_Unwind_GetTextRelBase@@Base+0x864>
   152fc:	7101403f 	cmp	w1, #0x50
   15300:	54000201 	b.ne	15340 <_Unwind_GetTextRelBase@@Base+0x858>  // b.any
   15304:	aa0003e2 	mov	x2, x0
   15308:	aa1403e1 	mov	x1, x20
   1530c:	3840145a 	ldrb	w26, [x2], #1
   15310:	f90037a2 	str	x2, [x29, #104]
   15314:	2a1a03e0 	mov	w0, w26
   15318:	f90033a2 	str	x2, [x29, #96]
   1531c:	97fffdf5 	bl	14af0 <_Unwind_GetTextRelBase@@Base+0x8>
   15320:	aa0003e1 	mov	x1, x0
   15324:	f94037a2 	ldr	x2, [x29, #104]
   15328:	2a1a03e0 	mov	w0, w26
   1532c:	aa1903e3 	mov	x3, x25
   15330:	97fffcd4 	bl	14680 <__cxa_current_exception_type@@Base+0xa4>
   15334:	f94047a1 	ldr	x1, [x29, #136]
   15338:	f9032a61 	str	x1, [x19, #1616]
   1533c:	14000004 	b	1534c <_Unwind_GetTextRelBase@@Base+0x864>
   15340:	71014c3f 	cmp	w1, #0x53
   15344:	540000e1 	b.ne	15360 <_Unwind_GetTextRelBase@@Base+0x878>  // b.any
   15348:	3919ce7b 	strb	w27, [x19, #1651]
   1534c:	910006f7 	add	x23, x23, #0x1
   15350:	17ffffde 	b	152c8 <_Unwind_GetTextRelBase@@Base+0x7e0>
   15354:	eb1f031f 	cmp	x24, xzr
   15358:	9a980000 	csel	x0, x0, x24, eq	// eq = none
   1535c:	14000002 	b	15364 <_Unwind_GetTextRelBase@@Base+0x87c>
   15360:	aa1803e0 	mov	x0, x24
   15364:	b4000800 	cbz	x0, 15464 <_Unwind_GetTextRelBase@@Base+0x97c>
   15368:	b94002c1 	ldr	w1, [x22]
   1536c:	aa1403e2 	mov	x2, x20
   15370:	aa1303e3 	mov	x3, x19
   15374:	91001021 	add	x1, x1, #0x4
   15378:	8b0102c1 	add	x1, x22, x1
   1537c:	97fffdfb 	bl	14b68 <_Unwind_GetTextRelBase@@Base+0x80>
   15380:	3959c260 	ldrb	w0, [x19, #1648]
   15384:	7103fc1f 	cmp	w0, #0xff
   15388:	540001e0 	b.eq	153c4 <_Unwind_GetTextRelBase@@Base+0x8dc>  // b.none
   1538c:	12000800 	and	w0, w0, #0x7
   15390:	7100101f 	cmp	w0, #0x4
   15394:	54000168 	b.hi	153c0 <_Unwind_GetTextRelBase@@Base+0x8d8>  // b.pmore
   15398:	90000021 	adrp	x1, 19000 <_ZTSN10__cxxabiv117__class_type_infoE@@Base+0x1000>
   1539c:	91006021 	add	x1, x1, #0x18
   153a0:	38604820 	ldrb	w0, [x1, w0, uxtw]
   153a4:	10000061 	adr	x1, 153b0 <_Unwind_GetTextRelBase@@Base+0x8c8>
   153a8:	8b208820 	add	x0, x1, w0, sxtb #2
   153ac:	d61f0000 	br	x0
   153b0:	52800042 	mov	w2, #0x2                   	// #2
   153b4:	14000007 	b	153d0 <_Unwind_GetTextRelBase@@Base+0x8e8>
   153b8:	52800082 	mov	w2, #0x4                   	// #4
   153bc:	14000005 	b	153d0 <_Unwind_GetTextRelBase@@Base+0x8e8>
   153c0:	97ffbddc 	bl	4b30 <abort@plt>
   153c4:	52800002 	mov	w2, #0x0                   	// #0
   153c8:	14000002 	b	153d0 <_Unwind_GetTextRelBase@@Base+0x8e8>
   153cc:	52800102 	mov	w2, #0x8                   	// #8
   153d0:	3959ca60 	ldrb	w0, [x19, #1650]
   153d4:	531f7842 	lsl	w2, w2, #1
   153d8:	91002042 	add	x2, x2, #0x8
   153dc:	d2800016 	mov	x22, #0x0                   	// #0
   153e0:	8b0202a2 	add	x2, x21, x2
   153e4:	340000e0 	cbz	w0, 15400 <_Unwind_GetTextRelBase@@Base+0x918>
   153e8:	aa0203e0 	mov	x0, x2
   153ec:	910223a1 	add	x1, x29, #0x88
   153f0:	97fffc8a 	bl	14618 <__cxa_current_exception_type@@Base+0x3c>
   153f4:	f94047b6 	ldr	x22, [x29, #136]
   153f8:	aa0003e2 	mov	x2, x0
   153fc:	8b160016 	add	x22, x0, x22
   15400:	3959c677 	ldrb	w23, [x19, #1649]
   15404:	7103feff 	cmp	w23, #0xff
   15408:	540001a0 	b.eq	1543c <_Unwind_GetTextRelBase@@Base+0x954>  // b.none
   1540c:	aa1403e1 	mov	x1, x20
   15410:	2a1703e0 	mov	w0, w23
   15414:	f90037a2 	str	x2, [x29, #104]
   15418:	97fffdb6 	bl	14af0 <_Unwind_GetTextRelBase@@Base+0x8>
   1541c:	aa0003e1 	mov	x1, x0
   15420:	f94037a2 	ldr	x2, [x29, #104]
   15424:	2a1703e0 	mov	w0, w23
   15428:	910223a3 	add	x3, x29, #0x88
   1542c:	97fffc95 	bl	14680 <__cxa_current_exception_type@@Base+0xa4>
   15430:	aa0003e2 	mov	x2, x0
   15434:	f94047a0 	ldr	x0, [x29, #136]
   15438:	f9019280 	str	x0, [x20, #800]
   1543c:	b94002a1 	ldr	w1, [x21]
   15440:	eb1f02df 	cmp	x22, xzr
   15444:	9a8212c0 	csel	x0, x22, x2, ne	// ne = any
   15448:	aa1303e3 	mov	x3, x19
   1544c:	91001021 	add	x1, x1, #0x4
   15450:	aa1403e2 	mov	x2, x20
   15454:	8b0102a1 	add	x1, x21, x1
   15458:	97fffdc4 	bl	14b68 <_Unwind_GetTextRelBase@@Base+0x80>
   1545c:	52800000 	mov	w0, #0x0                   	// #0
   15460:	14000002 	b	15468 <_Unwind_GetTextRelBase@@Base+0x980>
   15464:	52800060 	mov	w0, #0x3                   	// #3
   15468:	a94153f3 	ldp	x19, x20, [sp, #16]
   1546c:	a9425bf5 	ldp	x21, x22, [sp, #32]
   15470:	a94363f7 	ldp	x23, x24, [sp, #48]
   15474:	a9446bf9 	ldp	x25, x26, [sp, #64]
   15478:	f9402bfb 	ldr	x27, [sp, #80]
   1547c:	a8c97bfd 	ldp	x29, x30, [sp], #144
   15480:	d65f03c0 	ret
   15484:	d108c3ff 	sub	sp, sp, #0x230
   15488:	aa0003e4 	mov	x4, x0
   1548c:	a9ba7bfd 	stp	x29, x30, [sp, #-96]!
   15490:	910003fd 	mov	x29, sp
   15494:	a90573fb 	stp	x27, x28, [sp, #80]
   15498:	910243bc 	add	x28, x29, #0x90
   1549c:	a9025bf5 	stp	x21, x22, [sp, #32]
   154a0:	a90363f7 	stp	x23, x24, [sp, #48]
   154a4:	90000036 	adrp	x22, 19000 <_ZTSN10__cxxabiv117__class_type_infoE@@Base+0x1000>
   154a8:	90000037 	adrp	x23, 19000 <_ZTSN10__cxxabiv117__class_type_infoE@@Base+0x1000>
   154ac:	a90153f3 	stp	x19, x20, [sp, #16]
   154b0:	a9046bf9 	stp	x25, x26, [sp, #64]
   154b4:	aa0103f8 	mov	x24, x1
   154b8:	aa0203f3 	mov	x19, x2
   154bc:	f9000383 	str	x3, [x28]
   154c0:	52800039 	mov	w25, #0x1                   	// #1
   154c4:	9100a2d6 	add	x22, x22, #0x28
   154c8:	9101e3b4 	add	x20, x29, #0x78
   154cc:	910082f7 	add	x23, x23, #0x20
   154d0:	9101c3b5 	add	x21, x29, #0x70
   154d4:	eb18009f 	cmp	x4, x24
   154d8:	540029a2 	b.cs	15a0c <_Unwind_GetTextRelBase@@Base+0xf24>  // b.hs, b.nlast
   154dc:	3940009a 	ldrb	w26, [x4]
   154e0:	9100049b 	add	x27, x4, #0x1
   154e4:	7100835f 	cmp	w26, #0x20
   154e8:	54000788 	b.hi	155d8 <_Unwind_GetTextRelBase@@Base+0xaf0>  // b.pmore
   154ec:	71007f5f 	cmp	w26, #0x1f
   154f0:	54001962 	b.cs	1581c <_Unwind_GetTextRelBase@@Base+0xd34>  // b.hs, b.nlast
   154f4:	7100435f 	cmp	w26, #0x10
   154f8:	54001020 	b.eq	156fc <_Unwind_GetTextRelBase@@Base+0xc14>  // b.none
   154fc:	54000448 	b.hi	15584 <_Unwind_GetTextRelBase@@Base+0xa9c>  // b.pmore
   15500:	71002b5f 	cmp	w26, #0xa
   15504:	54000e80 	b.eq	156d4 <_Unwind_GetTextRelBase@@Base+0xbec>  // b.none
   15508:	54000208 	b.hi	15548 <_Unwind_GetTextRelBase@@Base+0xa60>  // b.pmore
   1550c:	71001b5f 	cmp	w26, #0x6
   15510:	54001860 	b.eq	1581c <_Unwind_GetTextRelBase@@Base+0xd34>  // b.none
   15514:	540000c8 	b.hi	1552c <_Unwind_GetTextRelBase@@Base+0xa44>  // b.pmore
   15518:	71000f5f 	cmp	w26, #0x3
   1551c:	540026a1 	b.ne	159f0 <_Unwind_GetTextRelBase@@Base+0xf08>  // b.any
   15520:	f8401080 	ldur	x0, [x4, #1]
   15524:	9100249b 	add	x27, x4, #0x9
   15528:	14000133 	b	159f4 <_Unwind_GetTextRelBase@@Base+0xf0c>
   1552c:	7100235f 	cmp	w26, #0x8
   15530:	9100089b 	add	x27, x4, #0x2
   15534:	54000cc0 	b.eq	156cc <_Unwind_GetTextRelBase@@Base+0xbe4>  // b.none
   15538:	7100275f 	cmp	w26, #0x9
   1553c:	540025a1 	b.ne	159f0 <_Unwind_GetTextRelBase@@Base+0xf08>  // b.any
   15540:	39800480 	ldrsb	x0, [x4, #1]
   15544:	1400012c 	b	159f4 <_Unwind_GetTextRelBase@@Base+0xf0c>
   15548:	7100375f 	cmp	w26, #0xd
   1554c:	54000ce0 	b.eq	156e8 <_Unwind_GetTextRelBase@@Base+0xc00>  // b.none
   15550:	540000e8 	b.hi	1556c <_Unwind_GetTextRelBase@@Base+0xa84>  // b.pmore
   15554:	71002f5f 	cmp	w26, #0xb
   15558:	54000c20 	b.eq	156dc <_Unwind_GetTextRelBase@@Base+0xbf4>  // b.none
   1555c:	7100335f 	cmp	w26, #0xc
   15560:	54002481 	b.ne	159f0 <_Unwind_GetTextRelBase@@Base+0xf08>  // b.any
   15564:	b8401080 	ldur	w0, [x4, #1]
   15568:	14000061 	b	156ec <_Unwind_GetTextRelBase@@Base+0xc04>
   1556c:	71003b5f 	cmp	w26, #0xe
   15570:	9100249b 	add	x27, x4, #0x9
   15574:	54000c00 	b.eq	156f4 <_Unwind_GetTextRelBase@@Base+0xc0c>  // b.none
   15578:	71003f5f 	cmp	w26, #0xf
   1557c:	54000bc0 	b.eq	156f4 <_Unwind_GetTextRelBase@@Base+0xc0c>  // b.none
   15580:	1400011c 	b	159f0 <_Unwind_GetTextRelBase@@Base+0xf08>
   15584:	7100575f 	cmp	w26, #0x15
   15588:	540010a0 	b.eq	1579c <_Unwind_GetTextRelBase@@Base+0xcb4>  // b.none
   1558c:	54000128 	b.hi	155b0 <_Unwind_GetTextRelBase@@Base+0xac8>  // b.pmore
   15590:	71004b5f 	cmp	w26, #0x12
   15594:	54000f80 	b.eq	15784 <_Unwind_GetTextRelBase@@Base+0xc9c>  // b.none
   15598:	54000be3 	b.cc	15714 <_Unwind_GetTextRelBase@@Base+0xc2c>  // b.lo, b.ul, b.last
   1559c:	71004f5f 	cmp	w26, #0x13
   155a0:	54000f80 	b.eq	15790 <_Unwind_GetTextRelBase@@Base+0xca8>  // b.none
   155a4:	7100535f 	cmp	w26, #0x14
   155a8:	540010e0 	b.eq	157c4 <_Unwind_GetTextRelBase@@Base+0xcdc>  // b.none
   155ac:	14000111 	b	159f0 <_Unwind_GetTextRelBase@@Base+0xf08>
   155b0:	7100675f 	cmp	w26, #0x19
   155b4:	54001340 	b.eq	1581c <_Unwind_GetTextRelBase@@Base+0xd34>  // b.none
   155b8:	54001948 	b.hi	158e0 <_Unwind_GetTextRelBase@@Base+0xdf8>  // b.pmore
   155bc:	71005b5f 	cmp	w26, #0x16
   155c0:	51000721 	sub	w1, w25, #0x1
   155c4:	51000b20 	sub	w0, w25, #0x2
   155c8:	54001080 	b.eq	157d8 <_Unwind_GetTextRelBase@@Base+0xcf0>  // b.none
   155cc:	71005f5f 	cmp	w26, #0x17
   155d0:	54001120 	b.eq	157f4 <_Unwind_GetTextRelBase@@Base+0xd0c>  // b.none
   155d4:	14000107 	b	159f0 <_Unwind_GetTextRelBase@@Base+0xf08>
   155d8:	71013f5f 	cmp	w26, #0x4f
   155dc:	540001e8 	b.hi	15618 <_Unwind_GetTextRelBase@@Base+0xb30>  // b.pmore
   155e0:	7100c35f 	cmp	w26, #0x30
   155e4:	54000702 	b.cs	156c4 <_Unwind_GetTextRelBase@@Base+0xbdc>  // b.hs, b.nlast
   155e8:	71009f5f 	cmp	w26, #0x27
   155ec:	540000c8 	b.hi	15604 <_Unwind_GetTextRelBase@@Base+0xb1c>  // b.pmore
   155f0:	7100935f 	cmp	w26, #0x24
   155f4:	54001762 	b.cs	158e0 <_Unwind_GetTextRelBase@@Base+0xdf8>  // b.hs, b.nlast
   155f8:	71008b5f 	cmp	w26, #0x22
   155fc:	54001108 	b.hi	1581c <_Unwind_GetTextRelBase@@Base+0xd34>  // b.pmore
   15600:	140000b8 	b	158e0 <_Unwind_GetTextRelBase@@Base+0xdf8>
   15604:	7100bb5f 	cmp	w26, #0x2e
   15608:	54001da8 	b.hi	159bc <_Unwind_GetTextRelBase@@Base+0xed4>  // b.pmore
   1560c:	7100a75f 	cmp	w26, #0x29
   15610:	54001de3 	b.cc	159cc <_Unwind_GetTextRelBase@@Base+0xee4>  // b.lo, b.ul, b.last
   15614:	140000b3 	b	158e0 <_Unwind_GetTextRelBase@@Base+0xdf8>
   15618:	7102435f 	cmp	w26, #0x90
   1561c:	540008a0 	b.eq	15730 <_Unwind_GetTextRelBase@@Base+0xc48>  // b.none
   15620:	540000c8 	b.hi	15638 <_Unwind_GetTextRelBase@@Base+0xb50>  // b.pmore
   15624:	7101bf5f 	cmp	w26, #0x6f
   15628:	54000948 	b.hi	15750 <_Unwind_GetTextRelBase@@Base+0xc68>  // b.pmore
   1562c:	aa1303e0 	mov	x0, x19
   15630:	51014341 	sub	w1, w26, #0x50
   15634:	14000045 	b	15748 <_Unwind_GetTextRelBase@@Base+0xc60>
   15638:	7102535f 	cmp	w26, #0x94
   1563c:	54000f00 	b.eq	1581c <_Unwind_GetTextRelBase@@Base+0xd34>  // b.none
   15640:	540001e8 	b.hi	1567c <_Unwind_GetTextRelBase@@Base+0xb94>  // b.pmore
   15644:	71024b5f 	cmp	w26, #0x92
   15648:	54001d41 	b.ne	159f0 <_Unwind_GetTextRelBase@@Base+0xf08>  // b.any
   1564c:	aa1b03e0 	mov	x0, x27
   15650:	aa1503e1 	mov	x1, x21
   15654:	910203ba 	add	x26, x29, #0x80
   15658:	97fffbf0 	bl	14618 <__cxa_current_exception_type@@Base+0x3c>
   1565c:	aa1a03e1 	mov	x1, x26
   15660:	97fffbf8 	bl	14640 <__cxa_current_exception_type@@Base+0x64>
   15664:	aa0003fb 	mov	x27, x0
   15668:	b94002a1 	ldr	w1, [x21]
   1566c:	aa1303e0 	mov	x0, x19
   15670:	97fffc94 	bl	148c0 <_Unwind_GetGR@@Base>
   15674:	f9400341 	ldr	x1, [x26]
   15678:	14000041 	b	1577c <_Unwind_GetTextRelBase@@Base+0xc94>
   1567c:	71025b5f 	cmp	w26, #0x96
   15680:	54001c20 	b.eq	15a04 <_Unwind_GetTextRelBase@@Base+0xf1c>  // b.none
   15684:	7103c75f 	cmp	w26, #0xf1
   15688:	54001b41 	b.ne	159f0 <_Unwind_GetTextRelBase@@Base+0xf08>  // b.any
   1568c:	39400482 	ldrb	w2, [x4, #1]
   15690:	aa1303e1 	mov	x1, x19
   15694:	9100089b 	add	x27, x4, #0x2
   15698:	f90037a2 	str	x2, [x29, #104]
   1569c:	2a0203e0 	mov	w0, w2
   156a0:	910223ba 	add	x26, x29, #0x88
   156a4:	97fffd13 	bl	14af0 <_Unwind_GetTextRelBase@@Base+0x8>
   156a8:	aa0003e1 	mov	x1, x0
   156ac:	f94037a2 	ldr	x2, [x29, #104]
   156b0:	aa1a03e3 	mov	x3, x26
   156b4:	2a0203e0 	mov	w0, w2
   156b8:	aa1b03e2 	mov	x2, x27
   156bc:	97fffbf1 	bl	14680 <__cxa_current_exception_type@@Base+0xa4>
   156c0:	14000019 	b	15724 <_Unwind_GetTextRelBase@@Base+0xc3c>
   156c4:	5100c340 	sub	w0, w26, #0x30
   156c8:	140000cb 	b	159f4 <_Unwind_GetTextRelBase@@Base+0xf0c>
   156cc:	39400480 	ldrb	w0, [x4, #1]
   156d0:	140000c9 	b	159f4 <_Unwind_GetTextRelBase@@Base+0xf0c>
   156d4:	78401080 	ldurh	w0, [x4, #1]
   156d8:	14000002 	b	156e0 <_Unwind_GetTextRelBase@@Base+0xbf8>
   156dc:	78801080 	ldursh	x0, [x4, #1]
   156e0:	91000c9b 	add	x27, x4, #0x3
   156e4:	140000c4 	b	159f4 <_Unwind_GetTextRelBase@@Base+0xf0c>
   156e8:	b8801080 	ldursw	x0, [x4, #1]
   156ec:	9100149b 	add	x27, x4, #0x5
   156f0:	140000c1 	b	159f4 <_Unwind_GetTextRelBase@@Base+0xf0c>
   156f4:	f8401080 	ldur	x0, [x4, #1]
   156f8:	140000bf 	b	159f4 <_Unwind_GetTextRelBase@@Base+0xf0c>
   156fc:	aa1b03e0 	mov	x0, x27
   15700:	aa1403e1 	mov	x1, x20
   15704:	97fffbc5 	bl	14618 <__cxa_current_exception_type@@Base+0x3c>
   15708:	aa0003fb 	mov	x27, x0
   1570c:	f9400280 	ldr	x0, [x20]
   15710:	140000b9 	b	159f4 <_Unwind_GetTextRelBase@@Base+0xf0c>
   15714:	910223ba 	add	x26, x29, #0x88
   15718:	aa1b03e0 	mov	x0, x27
   1571c:	aa1a03e1 	mov	x1, x26
   15720:	97fffbc8 	bl	14640 <__cxa_current_exception_type@@Base+0x64>
   15724:	aa0003fb 	mov	x27, x0
   15728:	f9400340 	ldr	x0, [x26]
   1572c:	140000b2 	b	159f4 <_Unwind_GetTextRelBase@@Base+0xf0c>
   15730:	aa1b03e0 	mov	x0, x27
   15734:	aa1503e1 	mov	x1, x21
   15738:	97fffbb8 	bl	14618 <__cxa_current_exception_type@@Base+0x3c>
   1573c:	aa0003fb 	mov	x27, x0
   15740:	b94002a1 	ldr	w1, [x21]
   15744:	aa1303e0 	mov	x0, x19
   15748:	97fffc5e 	bl	148c0 <_Unwind_GetGR@@Base>
   1574c:	140000aa 	b	159f4 <_Unwind_GetTextRelBase@@Base+0xf0c>
   15750:	910203a2 	add	x2, x29, #0x80
   15754:	aa1b03e0 	mov	x0, x27
   15758:	aa0203e1 	mov	x1, x2
   1575c:	f90037a2 	str	x2, [x29, #104]
   15760:	97fffbb8 	bl	14640 <__cxa_current_exception_type@@Base+0x64>
   15764:	aa0003fb 	mov	x27, x0
   15768:	5101c341 	sub	w1, w26, #0x70
   1576c:	aa1303e0 	mov	x0, x19
   15770:	97fffc54 	bl	148c0 <_Unwind_GetGR@@Base>
   15774:	f94037a2 	ldr	x2, [x29, #104]
   15778:	f9400041 	ldr	x1, [x2]
   1577c:	8b010000 	add	x0, x0, x1
   15780:	1400009d 	b	159f4 <_Unwind_GetTextRelBase@@Base+0xf0c>
   15784:	34001379 	cbz	w25, 159f0 <_Unwind_GetTextRelBase@@Base+0xf08>
   15788:	51000720 	sub	w0, w25, #0x1
   1578c:	14000011 	b	157d0 <_Unwind_GetTextRelBase@@Base+0xce8>
   15790:	34001319 	cbz	w25, 159f0 <_Unwind_GetTextRelBase@@Base+0xf08>
   15794:	51000739 	sub	w25, w25, #0x1
   15798:	1400009b 	b	15a04 <_Unwind_GetTextRelBase@@Base+0xf1c>
   1579c:	51000720 	sub	w0, w25, #0x1
   157a0:	39400481 	ldrb	w1, [x4, #1]
   157a4:	f90043a1 	str	x1, [x29, #128]
   157a8:	9100089b 	add	x27, x4, #0x2
   157ac:	93407c00 	sxtw	x0, w0
   157b0:	eb00003f 	cmp	x1, x0
   157b4:	540011ea 	b.ge	159f0 <_Unwind_GetTextRelBase@@Base+0xf08>  // b.tcont
   157b8:	cb010000 	sub	x0, x0, x1
   157bc:	f8607b80 	ldr	x0, [x28, x0, lsl #3]
   157c0:	1400008d 	b	159f4 <_Unwind_GetTextRelBase@@Base+0xf0c>
   157c4:	7100073f 	cmp	w25, #0x1
   157c8:	5400114d 	b.le	159f0 <_Unwind_GetTextRelBase@@Base+0xf08>
   157cc:	51000b20 	sub	w0, w25, #0x2
   157d0:	f860db80 	ldr	x0, [x28, w0, sxtw #3]
   157d4:	14000088 	b	159f4 <_Unwind_GetTextRelBase@@Base+0xf0c>
   157d8:	7100073f 	cmp	w25, #0x1
   157dc:	540010ad 	b.le	159f0 <_Unwind_GetTextRelBase@@Base+0xf08>
   157e0:	f860db83 	ldr	x3, [x28, w0, sxtw #3]
   157e4:	f861db82 	ldr	x2, [x28, w1, sxtw #3]
   157e8:	f821db83 	str	x3, [x28, w1, sxtw #3]
   157ec:	f820db82 	str	x2, [x28, w0, sxtw #3]
   157f0:	14000085 	b	15a04 <_Unwind_GetTextRelBase@@Base+0xf1c>
   157f4:	71000b3f 	cmp	w25, #0x2
   157f8:	54000fcd 	b.le	159f0 <_Unwind_GetTextRelBase@@Base+0xf08>
   157fc:	51000f22 	sub	w2, w25, #0x3
   15800:	f860db85 	ldr	x5, [x28, w0, sxtw #3]
   15804:	f861db83 	ldr	x3, [x28, w1, sxtw #3]
   15808:	f862db84 	ldr	x4, [x28, w2, sxtw #3]
   1580c:	f821db85 	str	x5, [x28, w1, sxtw #3]
   15810:	f820db84 	str	x4, [x28, w0, sxtw #3]
   15814:	f822db83 	str	x3, [x28, w2, sxtw #3]
   15818:	1400007b 	b	15a04 <_Unwind_GetTextRelBase@@Base+0xf1c>
   1581c:	34000eb9 	cbz	w25, 159f0 <_Unwind_GetTextRelBase@@Base+0xf08>
   15820:	51000739 	sub	w25, w25, #0x1
   15824:	71007f5f 	cmp	w26, #0x1f
   15828:	f879db82 	ldr	x2, [x28, w25, sxtw #3]
   1582c:	54000440 	b.eq	158b4 <_Unwind_GetTextRelBase@@Base+0xdcc>  // b.none
   15830:	54000108 	b.hi	15850 <_Unwind_GetTextRelBase@@Base+0xd68>  // b.pmore
   15834:	71001b5f 	cmp	w26, #0x6
   15838:	540003a0 	b.eq	158ac <_Unwind_GetTextRelBase@@Base+0xdc4>  // b.none
   1583c:	7100675f 	cmp	w26, #0x19
   15840:	54000d81 	b.ne	159f0 <_Unwind_GetTextRelBase@@Base+0xf08>  // b.any
   15844:	ca82fc41 	eor	x1, x2, x2, asr #63
   15848:	8b42fc20 	add	x0, x1, x2, lsr #63
   1584c:	1400006a 	b	159f4 <_Unwind_GetTextRelBase@@Base+0xf0c>
   15850:	71008f5f 	cmp	w26, #0x23
   15854:	54000340 	b.eq	158bc <_Unwind_GetTextRelBase@@Base+0xdd4>  // b.none
   15858:	7102535f 	cmp	w26, #0x94
   1585c:	540000a0 	b.eq	15870 <_Unwind_GetTextRelBase@@Base+0xd88>  // b.none
   15860:	7100835f 	cmp	w26, #0x20
   15864:	54000c61 	b.ne	159f0 <_Unwind_GetTextRelBase@@Base+0xf08>  // b.any
   15868:	aa2203e0 	mvn	x0, x2
   1586c:	14000062 	b	159f4 <_Unwind_GetTextRelBase@@Base+0xf0c>
   15870:	39400480 	ldrb	w0, [x4, #1]
   15874:	9100089b 	add	x27, x4, #0x2
   15878:	51000400 	sub	w0, w0, #0x1
   1587c:	71001c1f 	cmp	w0, #0x7
   15880:	54000b88 	b.hi	159f0 <_Unwind_GetTextRelBase@@Base+0xf08>  // b.pmore
   15884:	38604ae0 	ldrb	w0, [x23, w0, uxtw]
   15888:	10000061 	adr	x1, 15894 <_Unwind_GetTextRelBase@@Base+0xdac>
   1588c:	8b208820 	add	x0, x1, w0, sxtb #2
   15890:	d61f0000 	br	x0
   15894:	39400040 	ldrb	w0, [x2]
   15898:	14000057 	b	159f4 <_Unwind_GetTextRelBase@@Base+0xf0c>
   1589c:	79400040 	ldrh	w0, [x2]
   158a0:	14000055 	b	159f4 <_Unwind_GetTextRelBase@@Base+0xf0c>
   158a4:	b9400040 	ldr	w0, [x2]
   158a8:	14000053 	b	159f4 <_Unwind_GetTextRelBase@@Base+0xf0c>
   158ac:	f9400040 	ldr	x0, [x2]
   158b0:	14000051 	b	159f4 <_Unwind_GetTextRelBase@@Base+0xf0c>
   158b4:	cb0203e0 	neg	x0, x2
   158b8:	1400004f 	b	159f4 <_Unwind_GetTextRelBase@@Base+0xf0c>
   158bc:	aa1b03e0 	mov	x0, x27
   158c0:	aa1403e1 	mov	x1, x20
   158c4:	f90037a2 	str	x2, [x29, #104]
   158c8:	97fffb54 	bl	14618 <__cxa_current_exception_type@@Base+0x3c>
   158cc:	aa0003fb 	mov	x27, x0
   158d0:	f9400281 	ldr	x1, [x20]
   158d4:	f94037a2 	ldr	x2, [x29, #104]
   158d8:	8b010040 	add	x0, x2, x1
   158dc:	14000046 	b	159f4 <_Unwind_GetTextRelBase@@Base+0xf0c>
   158e0:	7100073f 	cmp	w25, #0x1
   158e4:	5400086d 	b.le	159f0 <_Unwind_GetTextRelBase@@Base+0xf08>
   158e8:	51000b22 	sub	w2, w25, #0x2
   158ec:	51006b5a 	sub	w26, w26, #0x1a
   158f0:	51000739 	sub	w25, w25, #0x1
   158f4:	7100535f 	cmp	w26, #0x14
   158f8:	f862db81 	ldr	x1, [x28, w2, sxtw #3]
   158fc:	f879db80 	ldr	x0, [x28, w25, sxtw #3]
   15900:	54000788 	b.hi	159f0 <_Unwind_GetTextRelBase@@Base+0xf08>  // b.pmore
   15904:	387a4ac3 	ldrb	w3, [x22, w26, uxtw]
   15908:	10000064 	adr	x4, 15914 <_Unwind_GetTextRelBase@@Base+0xe2c>
   1590c:	8b238883 	add	x3, x4, w3, sxtb #2
   15910:	d61f0060 	br	x3
   15914:	8a010000 	and	x0, x0, x1
   15918:	14000024 	b	159a8 <_Unwind_GetTextRelBase@@Base+0xec0>
   1591c:	9ac00c20 	sdiv	x0, x1, x0
   15920:	14000022 	b	159a8 <_Unwind_GetTextRelBase@@Base+0xec0>
   15924:	cb000020 	sub	x0, x1, x0
   15928:	14000020 	b	159a8 <_Unwind_GetTextRelBase@@Base+0xec0>
   1592c:	9ac00823 	udiv	x3, x1, x0
   15930:	9b008460 	msub	x0, x3, x0, x1
   15934:	1400001d 	b	159a8 <_Unwind_GetTextRelBase@@Base+0xec0>
   15938:	9b017c00 	mul	x0, x0, x1
   1593c:	1400001b 	b	159a8 <_Unwind_GetTextRelBase@@Base+0xec0>
   15940:	aa010000 	orr	x0, x0, x1
   15944:	14000019 	b	159a8 <_Unwind_GetTextRelBase@@Base+0xec0>
   15948:	8b010000 	add	x0, x0, x1
   1594c:	14000017 	b	159a8 <_Unwind_GetTextRelBase@@Base+0xec0>
   15950:	9ac02020 	lsl	x0, x1, x0
   15954:	14000015 	b	159a8 <_Unwind_GetTextRelBase@@Base+0xec0>
   15958:	9ac02420 	lsr	x0, x1, x0
   1595c:	14000013 	b	159a8 <_Unwind_GetTextRelBase@@Base+0xec0>
   15960:	9ac02820 	asr	x0, x1, x0
   15964:	14000011 	b	159a8 <_Unwind_GetTextRelBase@@Base+0xec0>
   15968:	ca010000 	eor	x0, x0, x1
   1596c:	1400000f 	b	159a8 <_Unwind_GetTextRelBase@@Base+0xec0>
   15970:	eb00003f 	cmp	x1, x0
   15974:	9a9fc7e0 	cset	x0, le
   15978:	1400000c 	b	159a8 <_Unwind_GetTextRelBase@@Base+0xec0>
   1597c:	eb00003f 	cmp	x1, x0
   15980:	9a9fb7e0 	cset	x0, ge	// ge = tcont
   15984:	14000009 	b	159a8 <_Unwind_GetTextRelBase@@Base+0xec0>
   15988:	eb00003f 	cmp	x1, x0
   1598c:	9a9f17e0 	cset	x0, eq	// eq = none
   15990:	14000006 	b	159a8 <_Unwind_GetTextRelBase@@Base+0xec0>
   15994:	eb00003f 	cmp	x1, x0
   15998:	9a9fa7e0 	cset	x0, lt	// lt = tstop
   1599c:	14000003 	b	159a8 <_Unwind_GetTextRelBase@@Base+0xec0>
   159a0:	eb00003f 	cmp	x1, x0
   159a4:	9a9fd7e0 	cset	x0, gt
   159a8:	2a0203f9 	mov	w25, w2
   159ac:	14000012 	b	159f4 <_Unwind_GetTextRelBase@@Base+0xf0c>
   159b0:	eb00003f 	cmp	x1, x0
   159b4:	9a9f07e0 	cset	x0, ne	// ne = any
   159b8:	17fffffc 	b	159a8 <_Unwind_GetTextRelBase@@Base+0xec0>
   159bc:	78801080 	ldursh	x0, [x4, #1]
   159c0:	91000c9b 	add	x27, x4, #0x3
   159c4:	8b00037b 	add	x27, x27, x0
   159c8:	1400000f 	b	15a04 <_Unwind_GetTextRelBase@@Base+0xf1c>
   159cc:	34000139 	cbz	w25, 159f0 <_Unwind_GetTextRelBase@@Base+0xf08>
   159d0:	51000739 	sub	w25, w25, #0x1
   159d4:	91000c9b 	add	x27, x4, #0x3
   159d8:	78c01080 	ldursh	w0, [x4, #1]
   159dc:	8b20a360 	add	x0, x27, w0, sxth
   159e0:	f879db81 	ldr	x1, [x28, w25, sxtw #3]
   159e4:	eb1f003f 	cmp	x1, xzr
   159e8:	9a80037b 	csel	x27, x27, x0, eq	// eq = none
   159ec:	14000006 	b	15a04 <_Unwind_GetTextRelBase@@Base+0xf1c>
   159f0:	97ffbc50 	bl	4b30 <abort@plt>
   159f4:	7100ff3f 	cmp	w25, #0x3f
   159f8:	54ffffc8 	b.hi	159f0 <_Unwind_GetTextRelBase@@Base+0xf08>  // b.pmore
   159fc:	f839db80 	str	x0, [x28, w25, sxtw #3]
   15a00:	11000739 	add	w25, w25, #0x1
   15a04:	aa1b03e4 	mov	x4, x27
   15a08:	17fffeb3 	b	154d4 <_Unwind_GetTextRelBase@@Base+0x9ec>
   15a0c:	34ffff39 	cbz	w25, 159f0 <_Unwind_GetTextRelBase@@Base+0xf08>
   15a10:	51000739 	sub	w25, w25, #0x1
   15a14:	a94153f3 	ldp	x19, x20, [sp, #16]
   15a18:	a9425bf5 	ldp	x21, x22, [sp, #32]
   15a1c:	f879db80 	ldr	x0, [x28, w25, sxtw #3]
   15a20:	a94363f7 	ldp	x23, x24, [sp, #48]
   15a24:	a9446bf9 	ldp	x25, x26, [sp, #64]
   15a28:	a94573fb 	ldp	x27, x28, [sp, #80]
   15a2c:	a8c67bfd 	ldp	x29, x30, [sp], #96
   15a30:	9108c3ff 	add	sp, sp, #0x230
   15a34:	d65f03c0 	ret
   15a38:	d10f83ff 	sub	sp, sp, #0x3e0
   15a3c:	d2807802 	mov	x2, #0x3c0                 	// #960
   15a40:	a9ba7bfd 	stp	x29, x30, [sp, #-96]!
   15a44:	910003fd 	mov	x29, sp
   15a48:	a90153f3 	stp	x19, x20, [sp, #16]
   15a4c:	a9025bf5 	stp	x21, x22, [sp, #32]
   15a50:	aa0003f3 	mov	x19, x0
   15a54:	910203b5 	add	x21, x29, #0x80
   15a58:	a90363f7 	stp	x23, x24, [sp, #48]
   15a5c:	aa1503e0 	mov	x0, x21
   15a60:	aa0103f8 	mov	x24, x1
   15a64:	aa1303e1 	mov	x1, x19
   15a68:	a9046bf9 	stp	x25, x26, [sp, #64]
   15a6c:	a90573fb 	stp	x27, x28, [sp, #80]
   15a70:	97ffbbd4 	bl	49c0 <memcpy@plt>
   15a74:	f941e3a0 	ldr	x0, [x29, #960]
   15a78:	b6f00060 	tbz	x0, #62, 15a84 <_Unwind_GetTextRelBase@@Base+0xf9c>
   15a7c:	394ddea0 	ldrb	w0, [x21, #887]
   15a80:	350000e0 	cbnz	w0, 15a9c <_Unwind_GetTextRelBase@@Base+0xfb4>
   15a84:	f9407ea0 	ldr	x0, [x21, #248]
   15a88:	b50000a0 	cbnz	x0, 15a9c <_Unwind_GetTextRelBase@@Base+0xfb4>
   15a8c:	f9418a61 	ldr	x1, [x19, #784]
   15a90:	aa1503e0 	mov	x0, x21
   15a94:	9101c3a2 	add	x2, x29, #0x70
   15a98:	97fffb7b 	bl	14884 <__cxa_current_exception_type@@Base+0x2a8>
   15a9c:	f941a260 	ldr	x0, [x19, #832]
   15aa0:	b6f00040 	tbz	x0, #62, 15aa8 <_Unwind_GetTextRelBase@@Base+0xfc0>
   15aa4:	390dde7f 	strb	wzr, [x19, #887]
   15aa8:	b9464300 	ldr	w0, [x24, #1600]
   15aac:	f9007e7f 	str	xzr, [x19, #248]
   15ab0:	7100041f 	cmp	w0, #0x1
   15ab4:	540001c0 	b.eq	15aec <_Unwind_GetTextRelBase@@Base+0x1004>  // b.none
   15ab8:	7100081f 	cmp	w0, #0x2
   15abc:	54000621 	b.ne	15b80 <_Unwind_GetTextRelBase@@Base+0x1098>  // b.any
   15ac0:	9101e3b4 	add	x20, x29, #0x78
   15ac4:	f9431f00 	ldr	x0, [x24, #1592]
   15ac8:	aa1403e1 	mov	x1, x20
   15acc:	97fffad3 	bl	14618 <__cxa_current_exception_type@@Base+0x3c>
   15ad0:	f9400281 	ldr	x1, [x20]
   15ad4:	aa1503e2 	mov	x2, x21
   15ad8:	d2800003 	mov	x3, #0x0                   	// #0
   15adc:	8b010001 	add	x1, x0, x1
   15ae0:	97fffe69 	bl	15484 <_Unwind_GetTextRelBase@@Base+0x99c>
   15ae4:	aa0003f7 	mov	x23, x0
   15ae8:	14000006 	b	15b00 <_Unwind_GetTextRelBase@@Base+0x1018>
   15aec:	b9463301 	ldr	w1, [x24, #1584]
   15af0:	aa1503e0 	mov	x0, x21
   15af4:	97fffb73 	bl	148c0 <_Unwind_GetGR@@Base>
   15af8:	f9431717 	ldr	x23, [x24, #1576]
   15afc:	8b170017 	add	x23, x0, x23
   15b00:	90000020 	adrp	x0, 19000 <_ZTSN10__cxxabiv117__class_type_infoE@@Base+0x1000>
   15b04:	f9018a77 	str	x23, [x19, #784]
   15b08:	91010000 	add	x0, x0, #0x40
   15b0c:	aa1803fa 	mov	x26, x24
   15b10:	910d6276 	add	x22, x19, #0x358
   15b14:	d2800014 	mov	x20, #0x0                   	// #0
   15b18:	f90037a0 	str	x0, [x29, #104]
   15b1c:	9101e3b9 	add	x25, x29, #0x78
   15b20:	d000015b 	adrp	x27, 3f000 <__bss_start@@Base+0x10fd0>
   15b24:	5280003c 	mov	w28, #0x1                   	// #1
   15b28:	b9400b40 	ldr	w0, [x26, #8]
   15b2c:	51000400 	sub	w0, w0, #0x1
   15b30:	7100101f 	cmp	w0, #0x4
   15b34:	54000608 	b.hi	15bf4 <_Unwind_GetTextRelBase@@Base+0x110c>  // b.pmore
   15b38:	f94037a1 	ldr	x1, [x29, #104]
   15b3c:	38604820 	ldrb	w0, [x1, w0, uxtw]
   15b40:	10000061 	adr	x1, 15b4c <_Unwind_GetTextRelBase@@Base+0x1064>
   15b44:	8b208820 	add	x0, x1, w0, sxtb #2
   15b48:	d61f0000 	br	x0
   15b4c:	f9400340 	ldr	x0, [x26]
   15b50:	8b0002e0 	add	x0, x23, x0
   15b54:	14000016 	b	15bac <_Unwind_GetTextRelBase@@Base+0x10c4>
   15b58:	f9400341 	ldr	x1, [x26]
   15b5c:	8b21c2a0 	add	x0, x21, w1, sxtw
   15b60:	394d6000 	ldrb	w0, [x0, #856]
   15b64:	34000100 	cbz	w0, 15b84 <_Unwind_GetTextRelBase@@Base+0x109c>
   15b68:	aa1503e0 	mov	x0, x21
   15b6c:	97fffb55 	bl	148c0 <_Unwind_GetGR@@Base>
   15b70:	91328361 	add	x1, x27, #0xca0
   15b74:	38616a81 	ldrb	w1, [x20, x1]
   15b78:	7100203f 	cmp	w1, #0x8
   15b7c:	54000389 	b.ls	15bec <_Unwind_GetTextRelBase@@Base+0x1104>  // b.plast
   15b80:	97ffbbec 	bl	4b30 <abort@plt>
   15b84:	f861daa0 	ldr	x0, [x21, w1, sxtw #3]
   15b88:	14000009 	b	15bac <_Unwind_GetTextRelBase@@Base+0x10c4>
   15b8c:	f9400340 	ldr	x0, [x26]
   15b90:	aa1903e1 	mov	x1, x25
   15b94:	97fffaa1 	bl	14618 <__cxa_current_exception_type@@Base+0x3c>
   15b98:	f9400321 	ldr	x1, [x25]
   15b9c:	aa1503e2 	mov	x2, x21
   15ba0:	aa1703e3 	mov	x3, x23
   15ba4:	8b010001 	add	x1, x0, x1
   15ba8:	97fffe37 	bl	15484 <_Unwind_GetTextRelBase@@Base+0x99c>
   15bac:	f941a261 	ldr	x1, [x19, #832]
   15bb0:	b6f00201 	tbz	x1, #62, 15bf0 <_Unwind_GetTextRelBase@@Base+0x1108>
   15bb4:	390002df 	strb	wzr, [x22]
   15bb8:	1400000e 	b	15bf0 <_Unwind_GetTextRelBase@@Base+0x1108>
   15bbc:	f9400340 	ldr	x0, [x26]
   15bc0:	8b0002e0 	add	x0, x23, x0
   15bc4:	17ffffeb 	b	15b70 <_Unwind_GetTextRelBase@@Base+0x1088>
   15bc8:	f9400340 	ldr	x0, [x26]
   15bcc:	aa1903e1 	mov	x1, x25
   15bd0:	97fffa92 	bl	14618 <__cxa_current_exception_type@@Base+0x3c>
   15bd4:	f9400321 	ldr	x1, [x25]
   15bd8:	aa1503e2 	mov	x2, x21
   15bdc:	aa1703e3 	mov	x3, x23
   15be0:	8b010001 	add	x1, x0, x1
   15be4:	97fffe28 	bl	15484 <_Unwind_GetTextRelBase@@Base+0x99c>
   15be8:	17ffffe2 	b	15b70 <_Unwind_GetTextRelBase@@Base+0x1088>
   15bec:	390002dc 	strb	w28, [x22]
   15bf0:	f8347a60 	str	x0, [x19, x20, lsl #3]
   15bf4:	91000694 	add	x20, x20, #0x1
   15bf8:	9100435a 	add	x26, x26, #0x10
   15bfc:	f1018a9f 	cmp	x20, #0x62
   15c00:	910006d6 	add	x22, x22, #0x1
   15c04:	54fff921 	b.ne	15b28 <_Unwind_GetTextRelBase@@Base+0x1040>  // b.any
   15c08:	f941a260 	ldr	x0, [x19, #832]
   15c0c:	3959cf02 	ldrb	w2, [x24, #1651]
   15c10:	b2410001 	orr	x1, x0, #0x8000000000000000
   15c14:	9240f800 	and	x0, x0, #0x7fffffffffffffff
   15c18:	6b1f005f 	cmp	w2, wzr
   15c1c:	9a810000 	csel	x0, x0, x1, eq	// eq = none
   15c20:	f901a260 	str	x0, [x19, #832]
   15c24:	a9425bf5 	ldp	x21, x22, [sp, #32]
   15c28:	a94153f3 	ldp	x19, x20, [sp, #16]
   15c2c:	a94363f7 	ldp	x23, x24, [sp, #48]
   15c30:	a9446bf9 	ldp	x25, x26, [sp, #64]
   15c34:	a94573fb 	ldp	x27, x28, [sp, #80]
   15c38:	a8c67bfd 	ldp	x29, x30, [sp], #96
   15c3c:	910f83ff 	add	sp, sp, #0x3e0
   15c40:	d65f03c0 	ret
   15c44:	d11a43ff 	sub	sp, sp, #0x690
   15c48:	a9bc7bfd 	stp	x29, x30, [sp, #-64]!
   15c4c:	910003fd 	mov	x29, sp
   15c50:	a90153f3 	stp	x19, x20, [sp, #16]
   15c54:	a9025bf5 	stp	x21, x22, [sp, #32]
   15c58:	aa0003f3 	mov	x19, x0
   15c5c:	f9001bf7 	str	x23, [sp, #48]
   15c60:	aa0203f6 	mov	x22, x2
   15c64:	aa0103f7 	mov	x23, x1
   15c68:	d2807802 	mov	x2, #0x3c0                 	// #960
   15c6c:	52800001 	mov	w1, #0x0                   	// #0
   15c70:	aa1e03f4 	mov	x20, x30
   15c74:	97ffbba7 	bl	4b10 <memset@plt>
   15c78:	f9018e74 	str	x20, [x19, #792]
   15c7c:	d2e80000 	mov	x0, #0x4000000000000000    	// #4611686018427387904
   15c80:	910143b4 	add	x20, x29, #0x50
   15c84:	f901a260 	str	x0, [x19, #832]
   15c88:	aa1403e1 	mov	x1, x20
   15c8c:	aa1303e0 	mov	x0, x19
   15c90:	97fffcf4 	bl	15060 <_Unwind_GetTextRelBase@@Base+0x578>
   15c94:	34000040 	cbz	w0, 15c9c <_Unwind_GetTextRelBase@@Base+0x11b4>
   15c98:	97ffbba6 	bl	4b30 <abort@plt>
   15c9c:	900000c0 	adrp	x0, 2d000 <__FINI_ARRAY__@@Base+0x360>
   15ca0:	d0000155 	adrp	x21, 3f000 <__bss_start@@Base+0x10fd0>
   15ca4:	f947d400 	ldr	x0, [x0, #4008]
   15ca8:	b50000a0 	cbnz	x0, 15cbc <_Unwind_GetTextRelBase@@Base+0x11d4>
   15cac:	397282a0 	ldrb	w0, [x21, #3232]
   15cb0:	35000120 	cbnz	w0, 15cd4 <_Unwind_GetTextRelBase@@Base+0x11ec>
   15cb4:	97fffaaf 	bl	14770 <__cxa_current_exception_type@@Base+0x194>
   15cb8:	14000007 	b	15cd4 <_Unwind_GetTextRelBase@@Base+0x11ec>
   15cbc:	913282a0 	add	x0, x21, #0xca0
   15cc0:	f0ffffe1 	adrp	x1, 14000 <_ZN9__gnu_cxx27__verbose_terminate_handlerEv@@Base+0xd660>
   15cc4:	91019000 	add	x0, x0, #0x64
   15cc8:	911dc021 	add	x1, x1, #0x770
   15ccc:	97ffbb65 	bl	4a60 <pthread_once@plt>
   15cd0:	35fffee0 	cbnz	w0, 15cac <_Unwind_GetTextRelBase@@Base+0x11c4>
   15cd4:	910123a2 	add	x2, x29, #0x48
   15cd8:	aa1303e0 	mov	x0, x19
   15cdc:	aa1703e1 	mov	x1, x23
   15ce0:	97fffae9 	bl	14884 <__cxa_current_exception_type@@Base+0x2a8>
   15ce4:	f9033fbf 	str	xzr, [x29, #1656]
   15ce8:	52800020 	mov	w0, #0x1                   	// #1
   15cec:	b90693a0 	str	w0, [x29, #1680]
   15cf0:	d28003e0 	mov	x0, #0x1f                  	// #31
   15cf4:	aa1403e1 	mov	x1, x20
   15cf8:	f90343a0 	str	x0, [x29, #1664]
   15cfc:	aa1303e0 	mov	x0, x19
   15d00:	97ffff4e 	bl	15a38 <_Unwind_GetTextRelBase@@Base+0xf50>
   15d04:	f9018e76 	str	x22, [x19, #792]
   15d08:	f9401bf7 	ldr	x23, [sp, #48]
   15d0c:	a94153f3 	ldp	x19, x20, [sp, #16]
   15d10:	a9425bf5 	ldp	x21, x22, [sp, #32]
   15d14:	a8c47bfd 	ldp	x29, x30, [sp], #64
   15d18:	911a43ff 	add	sp, sp, #0x690
   15d1c:	d65f03c0 	ret
   15d20:	a9be7bfd 	stp	x29, x30, [sp, #-32]!
   15d24:	910003fd 	mov	x29, sp
   15d28:	a90153f3 	stp	x19, x20, [sp, #16]
   15d2c:	aa0103f3 	mov	x19, x1
   15d30:	aa0003f4 	mov	x20, x0
   15d34:	97ffff41 	bl	15a38 <_Unwind_GetTextRelBase@@Base+0xf50>
   15d38:	f9433661 	ldr	x1, [x19, #1640]
   15d3c:	8b011273 	add	x19, x19, x1, lsl #4
   15d40:	b9400a60 	ldr	w0, [x19, #8]
   15d44:	7100181f 	cmp	w0, #0x6
   15d48:	54000061 	b.ne	15d54 <_Unwind_GetTextRelBase@@Base+0x126c>  // b.any
   15d4c:	f9018e9f 	str	xzr, [x20, #792]
   15d50:	14000004 	b	15d60 <_Unwind_GetTextRelBase@@Base+0x1278>
   15d54:	aa1403e0 	mov	x0, x20
   15d58:	97fffada 	bl	148c0 <_Unwind_GetGR@@Base>
   15d5c:	f9018e80 	str	x0, [x20, #792]
   15d60:	a94153f3 	ldp	x19, x20, [sp, #16]
   15d64:	a8c27bfd 	ldp	x29, x30, [sp], #32
   15d68:	d65f03c0 	ret
   15d6c:	d11a03ff 	sub	sp, sp, #0x680
   15d70:	a9bc7bfd 	stp	x29, x30, [sp, #-64]!
   15d74:	910003fd 	mov	x29, sp
   15d78:	a90153f3 	stp	x19, x20, [sp, #16]
   15d7c:	a9025bf5 	stp	x21, x22, [sp, #32]
   15d80:	a90363f7 	stp	x23, x24, [sp, #48]
   15d84:	aa0003f5 	mov	x21, x0
   15d88:	aa0103f3 	mov	x19, x1
   15d8c:	910103b4 	add	x20, x29, #0x40
   15d90:	52800097 	mov	w23, #0x4                   	// #4
   15d94:	aa1403e1 	mov	x1, x20
   15d98:	aa1303e0 	mov	x0, x19
   15d9c:	97fffcb1 	bl	15060 <_Unwind_GetTextRelBase@@Base+0x578>
   15da0:	2a0003f8 	mov	w24, w0
   15da4:	aa1303e0 	mov	x0, x19
   15da8:	97fffb1f 	bl	14a24 <_Unwind_GetCFA@@Base>
   15dac:	f941a261 	ldr	x1, [x19, #832]
   15db0:	cb41fc00 	sub	x0, x0, x1, lsr #63
   15db4:	f9400ea1 	ldr	x1, [x21, #24]
   15db8:	eb01001f 	cmp	x0, x1
   15dbc:	1a9f02f6 	csel	w22, w23, wzr, eq	// eq = none
   15dc0:	35000298 	cbnz	w24, 15e10 <_Unwind_GetTextRelBase@@Base+0x1328>
   15dc4:	f9432a85 	ldr	x5, [x20, #1616]
   15dc8:	b5000065 	cbnz	x5, 15dd4 <_Unwind_GetTextRelBase@@Base+0x12ec>
   15dcc:	340001b6 	cbz	w22, 15e00 <_Unwind_GetTextRelBase@@Base+0x1318>
   15dd0:	97ffbb58 	bl	4b30 <abort@plt>
   15dd4:	f94002a2 	ldr	x2, [x21]
   15dd8:	52800020 	mov	w0, #0x1                   	// #1
   15ddc:	321f02c1 	orr	w1, w22, #0x2
   15de0:	aa1503e3 	mov	x3, x21
   15de4:	aa1303e4 	mov	x4, x19
   15de8:	d63f00a0 	blr	x5
   15dec:	71001c1f 	cmp	w0, #0x7
   15df0:	54000120 	b.eq	15e14 <_Unwind_GetTextRelBase@@Base+0x132c>  // b.none
   15df4:	7100201f 	cmp	w0, #0x8
   15df8:	54fffea0 	b.eq	15dcc <_Unwind_GetTextRelBase@@Base+0x12e4>  // b.none
   15dfc:	14000005 	b	15e10 <_Unwind_GetTextRelBase@@Base+0x1328>
   15e00:	aa1303e0 	mov	x0, x19
   15e04:	aa1403e1 	mov	x1, x20
   15e08:	97ffffc6 	bl	15d20 <_Unwind_GetTextRelBase@@Base+0x1238>
   15e0c:	17ffffe2 	b	15d94 <_Unwind_GetTextRelBase@@Base+0x12ac>
   15e10:	52800040 	mov	w0, #0x2                   	// #2
   15e14:	a94153f3 	ldp	x19, x20, [sp, #16]
   15e18:	a9425bf5 	ldp	x21, x22, [sp, #32]
   15e1c:	a94363f7 	ldp	x23, x24, [sp, #48]
   15e20:	a8c47bfd 	ldp	x29, x30, [sp], #64
   15e24:	911a03ff 	add	sp, sp, #0x680
   15e28:	d65f03c0 	ret
   15e2c:	d11a03ff 	sub	sp, sp, #0x680
   15e30:	a9bb7bfd 	stp	x29, x30, [sp, #-80]!
   15e34:	910003fd 	mov	x29, sp
   15e38:	a90363f7 	stp	x23, x24, [sp, #48]
   15e3c:	f9400817 	ldr	x23, [x0, #16]
   15e40:	f9400c18 	ldr	x24, [x0, #24]
   15e44:	a9025bf5 	stp	x21, x22, [sp, #32]
   15e48:	a9046bf9 	stp	x25, x26, [sp, #64]
   15e4c:	a90153f3 	stp	x19, x20, [sp, #16]
   15e50:	aa0103f5 	mov	x21, x1
   15e54:	aa0003f4 	mov	x20, x0
   15e58:	910143b6 	add	x22, x29, #0x50
   15e5c:	52800159 	mov	w25, #0xa                   	// #10
   15e60:	5280035a 	mov	w26, #0x1a                  	// #26
   15e64:	aa1503e0 	mov	x0, x21
   15e68:	aa1603e1 	mov	x1, x22
   15e6c:	97fffc7d 	bl	15060 <_Unwind_GetTextRelBase@@Base+0x578>
   15e70:	7100141f 	cmp	w0, #0x5
   15e74:	2a0003f3 	mov	w19, w0
   15e78:	54000040 	b.eq	15e80 <_Unwind_GetTextRelBase@@Base+0x1398>  // b.none
   15e7c:	350003a0 	cbnz	w0, 15ef0 <_Unwind_GetTextRelBase@@Base+0x1408>
   15e80:	7100167f 	cmp	w19, #0x5
   15e84:	f9400282 	ldr	x2, [x20]
   15e88:	52800020 	mov	w0, #0x1                   	// #1
   15e8c:	1a9a1321 	csel	w1, w25, w26, ne	// ne = any
   15e90:	aa1403e3 	mov	x3, x20
   15e94:	aa1503e4 	mov	x4, x21
   15e98:	aa1803e5 	mov	x5, x24
   15e9c:	d63f02e0 	blr	x23
   15ea0:	35000280 	cbnz	w0, 15ef0 <_Unwind_GetTextRelBase@@Base+0x1408>
   15ea4:	7100167f 	cmp	w19, #0x5
   15ea8:	54000280 	b.eq	15ef8 <_Unwind_GetTextRelBase@@Base+0x1410>  // b.none
   15eac:	f9432ac5 	ldr	x5, [x22, #1616]
   15eb0:	b50000a5 	cbnz	x5, 15ec4 <_Unwind_GetTextRelBase@@Base+0x13dc>
   15eb4:	aa1503e0 	mov	x0, x21
   15eb8:	aa1603e1 	mov	x1, x22
   15ebc:	97ffff99 	bl	15d20 <_Unwind_GetTextRelBase@@Base+0x1238>
   15ec0:	17ffffe9 	b	15e64 <_Unwind_GetTextRelBase@@Base+0x137c>
   15ec4:	f9400282 	ldr	x2, [x20]
   15ec8:	52800020 	mov	w0, #0x1                   	// #1
   15ecc:	52800141 	mov	w1, #0xa                   	// #10
   15ed0:	aa1403e3 	mov	x3, x20
   15ed4:	aa1503e4 	mov	x4, x21
   15ed8:	d63f00a0 	blr	x5
   15edc:	71001c1f 	cmp	w0, #0x7
   15ee0:	2a0003f3 	mov	w19, w0
   15ee4:	540000a0 	b.eq	15ef8 <_Unwind_GetTextRelBase@@Base+0x1410>  // b.none
   15ee8:	7100201f 	cmp	w0, #0x8
   15eec:	54fffe40 	b.eq	15eb4 <_Unwind_GetTextRelBase@@Base+0x13cc>  // b.none
   15ef0:	52800040 	mov	w0, #0x2                   	// #2
   15ef4:	14000002 	b	15efc <_Unwind_GetTextRelBase@@Base+0x1414>
   15ef8:	2a1303e0 	mov	w0, w19
   15efc:	a94153f3 	ldp	x19, x20, [sp, #16]
   15f00:	a9425bf5 	ldp	x21, x22, [sp, #32]
   15f04:	a94363f7 	ldp	x23, x24, [sp, #48]
   15f08:	a9446bf9 	ldp	x25, x26, [sp, #64]
   15f0c:	a8c57bfd 	ldp	x29, x30, [sp], #80
   15f10:	911a03ff 	add	sp, sp, #0x680
   15f14:	d65f03c0 	ret

0000000000015f18 <__frame_state_for@@Base>:
   15f18:	d12903ff 	sub	sp, sp, #0xa40
   15f1c:	d2807802 	mov	x2, #0x3c0                 	// #960
   15f20:	a9bd7bfd 	stp	x29, x30, [sp, #-48]!
   15f24:	910003fd 	mov	x29, sp
   15f28:	a90153f3 	stp	x19, x20, [sp, #16]
   15f2c:	9100c3b4 	add	x20, x29, #0x30
   15f30:	f90013f5 	str	x21, [sp, #32]
   15f34:	aa0103f3 	mov	x19, x1
   15f38:	aa0003f5 	mov	x21, x0
   15f3c:	52800001 	mov	w1, #0x0                   	// #0
   15f40:	aa1403e0 	mov	x0, x20
   15f44:	910006b5 	add	x21, x21, #0x1
   15f48:	97ffbaf2 	bl	4b10 <memset@plt>
   15f4c:	f9018e95 	str	x21, [x20, #792]
   15f50:	d2e80000 	mov	x0, #0x4000000000000000    	// #4611686018427387904
   15f54:	910fc3b5 	add	x21, x29, #0x3f0
   15f58:	f901a280 	str	x0, [x20, #832]
   15f5c:	aa1503e1 	mov	x1, x21
   15f60:	aa1403e0 	mov	x0, x20
   15f64:	97fffc3f 	bl	15060 <_Unwind_GetTextRelBase@@Base+0x578>
   15f68:	d2800001 	mov	x1, #0x0                   	// #0
   15f6c:	35000440 	cbnz	w0, 15ff4 <__frame_state_for@@Base+0xdc>
   15f70:	b94a33a0 	ldr	w0, [x29, #2608]
   15f74:	7100081f 	cmp	w0, #0x2
   15f78:	540003e0 	b.eq	15ff4 <__frame_state_for@@Base+0xdc>  // b.none
   15f7c:	910022a0 	add	x0, x21, #0x8
   15f80:	910cd262 	add	x2, x19, #0x334
   15f84:	91008261 	add	x1, x19, #0x20
   15f88:	9118a2b5 	add	x21, x21, #0x628
   15f8c:	39400003 	ldrb	w3, [x0]
   15f90:	39000043 	strb	w3, [x2]
   15f94:	7100047f 	cmp	w3, #0x1
   15f98:	54000060 	b.eq	15fa4 <__frame_state_for@@Base+0x8c>  // b.none
   15f9c:	7100087f 	cmp	w3, #0x2
   15fa0:	54000081 	b.ne	15fb0 <__frame_state_for@@Base+0x98>  // b.any
   15fa4:	f85f8003 	ldur	x3, [x0, #-8]
   15fa8:	f9000023 	str	x3, [x1]
   15fac:	14000002 	b	15fb4 <__frame_state_for@@Base+0x9c>
   15fb0:	f900003f 	str	xzr, [x1]
   15fb4:	91004000 	add	x0, x0, #0x10
   15fb8:	91000442 	add	x2, x2, #0x1
   15fbc:	eb15001f 	cmp	x0, x21
   15fc0:	91002021 	add	x1, x1, #0x8
   15fc4:	54fffe41 	b.ne	15f8c <__frame_state_for@@Base+0x74>  // b.any
   15fc8:	f9450fa0 	ldr	x0, [x29, #2584]
   15fcc:	aa1303e1 	mov	x1, x19
   15fd0:	f9000a60 	str	x0, [x19, #16]
   15fd4:	f94513a0 	ldr	x0, [x29, #2592]
   15fd8:	79066260 	strh	w0, [x19, #816]
   15fdc:	f9452fa0 	ldr	x0, [x29, #2648]
   15fe0:	79066660 	strh	w0, [x19, #818]
   15fe4:	f941aa80 	ldr	x0, [x20, #848]
   15fe8:	f9000e60 	str	x0, [x19, #24]
   15fec:	f94537a0 	ldr	x0, [x29, #2664]
   15ff0:	f9000660 	str	x0, [x19, #8]
   15ff4:	a94153f3 	ldp	x19, x20, [sp, #16]
   15ff8:	f94013f5 	ldr	x21, [sp, #32]
   15ffc:	a8c37bfd 	ldp	x29, x30, [sp], #48
   16000:	aa0103e0 	mov	x0, x1
   16004:	912903ff 	add	sp, sp, #0xa40
   16008:	d65f03c0 	ret
   1600c:	d65f03c0 	ret

0000000000016010 <_Unwind_RaiseException@@Base>:
   16010:	d13843ff 	sub	sp, sp, #0xe10
   16014:	a9b47bfd 	stp	x29, x30, [sp, #-192]!
   16018:	910003fd 	mov	x29, sp
   1601c:	a9045bf5 	stp	x21, x22, [sp, #64]
   16020:	6d0827e8 	stp	d8, d9, [sp, #128]
   16024:	910343b5 	add	x21, x29, #0xd0
   16028:	6d092fea 	stp	d10, d11, [sp, #144]
   1602c:	a90107e0 	stp	x0, x1, [sp, #16]
   16030:	6d0a37ec 	stp	d12, d13, [sp, #160]
   16034:	a9020fe2 	stp	x2, x3, [sp, #32]
   16038:	6d0b3fee 	stp	d14, d15, [sp, #176]
   1603c:	a90353f3 	stp	x19, x20, [sp, #48]
   16040:	aa1e03e2 	mov	x2, x30
   16044:	913b43a1 	add	x1, x29, #0xed0
   16048:	aa0003f4 	mov	x20, x0
   1604c:	aa1503e0 	mov	x0, x21
   16050:	a90563f7 	stp	x23, x24, [sp, #80]
   16054:	a9066bf9 	stp	x25, x26, [sp, #96]
   16058:	a90773fb 	stp	x27, x28, [sp, #112]
   1605c:	911243b3 	add	x19, x29, #0x490
   16060:	97fffef9 	bl	15c44 <_Unwind_GetTextRelBase@@Base+0x115c>
   16064:	aa1303e0 	mov	x0, x19
   16068:	aa1503e1 	mov	x1, x21
   1606c:	d2807802 	mov	x2, #0x3c0                 	// #960
   16070:	912143b6 	add	x22, x29, #0x850
   16074:	97ffba53 	bl	49c0 <memcpy@plt>
   16078:	aa1303e0 	mov	x0, x19
   1607c:	aa1603e1 	mov	x1, x22
   16080:	97fffbf8 	bl	15060 <_Unwind_GetTextRelBase@@Base+0x578>
   16084:	7100141f 	cmp	w0, #0x5
   16088:	540005e0 	b.eq	16144 <_Unwind_RaiseException@@Base+0x134>  // b.none
   1608c:	34000060 	cbz	w0, 16098 <_Unwind_RaiseException@@Base+0x88>
   16090:	52800060 	mov	w0, #0x3                   	// #3
   16094:	1400002c 	b	16144 <_Unwind_RaiseException@@Base+0x134>
   16098:	f9432ac5 	ldr	x5, [x22, #1616]
   1609c:	b50000a5 	cbnz	x5, 160b0 <_Unwind_RaiseException@@Base+0xa0>
   160a0:	aa1303e0 	mov	x0, x19
   160a4:	aa1603e1 	mov	x1, x22
   160a8:	97ffff1e 	bl	15d20 <_Unwind_GetTextRelBase@@Base+0x1238>
   160ac:	17fffff3 	b	16078 <_Unwind_RaiseException@@Base+0x68>
   160b0:	52800020 	mov	w0, #0x1                   	// #1
   160b4:	f9400282 	ldr	x2, [x20]
   160b8:	2a0003e1 	mov	w1, w0
   160bc:	aa1403e3 	mov	x3, x20
   160c0:	aa1303e4 	mov	x4, x19
   160c4:	d63f00a0 	blr	x5
   160c8:	7100181f 	cmp	w0, #0x6
   160cc:	54000080 	b.eq	160dc <_Unwind_RaiseException@@Base+0xcc>  // b.none
   160d0:	7100201f 	cmp	w0, #0x8
   160d4:	54fffe60 	b.eq	160a0 <_Unwind_RaiseException@@Base+0x90>  // b.none
   160d8:	17ffffee 	b	16090 <_Unwind_RaiseException@@Base+0x80>
   160dc:	f9000a9f 	str	xzr, [x20, #16]
   160e0:	aa1303e0 	mov	x0, x19
   160e4:	97fffa50 	bl	14a24 <_Unwind_GetCFA@@Base>
   160e8:	f941a261 	ldr	x1, [x19, #832]
   160ec:	d2807802 	mov	x2, #0x3c0                 	// #960
   160f0:	cb41fc00 	sub	x0, x0, x1, lsr #63
   160f4:	aa1503e1 	mov	x1, x21
   160f8:	f9000e80 	str	x0, [x20, #24]
   160fc:	aa1303e0 	mov	x0, x19
   16100:	97ffba30 	bl	49c0 <memcpy@plt>
   16104:	aa1403e0 	mov	x0, x20
   16108:	aa1303e1 	mov	x1, x19
   1610c:	97ffff18 	bl	15d6c <_Unwind_GetTextRelBase@@Base+0x1284>
   16110:	71001c1f 	cmp	w0, #0x7
   16114:	54000181 	b.ne	16144 <_Unwind_RaiseException@@Base+0x134>  // b.any
   16118:	aa1303e1 	mov	x1, x19
   1611c:	aa1503e0 	mov	x0, x21
   16120:	97fff9fe 	bl	14918 <_Unwind_GetGR@@Base+0x58>
   16124:	f9418e74 	ldr	x20, [x19, #792]
   16128:	f90067a0 	str	x0, [x29, #200]
   1612c:	f9418a60 	ldr	x0, [x19, #784]
   16130:	aa1403e1 	mov	x1, x20
   16134:	97ffffb6 	bl	1600c <__frame_state_for@@Base+0xf4>
   16138:	f90007f4 	str	x20, [sp, #8]
   1613c:	f94067a4 	ldr	x4, [x29, #200]
   16140:	14000002 	b	16148 <_Unwind_RaiseException@@Base+0x138>
   16144:	d2800004 	mov	x4, #0x0                   	// #0
   16148:	a9420fe2 	ldp	x2, x3, [sp, #32]
   1614c:	6d4827e8 	ldp	d8, d9, [sp, #128]
   16150:	a94353f3 	ldp	x19, x20, [sp, #48]
   16154:	6d492fea 	ldp	d10, d11, [sp, #144]
   16158:	a9445bf5 	ldp	x21, x22, [sp, #64]
   1615c:	6d4a37ec 	ldp	d12, d13, [sp, #160]
   16160:	a94563f7 	ldp	x23, x24, [sp, #80]
   16164:	6d4b3fee 	ldp	d14, d15, [sp, #176]
   16168:	a9466bf9 	ldp	x25, x26, [sp, #96]
   1616c:	a94773fb 	ldp	x27, x28, [sp, #112]
   16170:	a94107e0 	ldp	x0, x1, [sp, #16]
   16174:	a8cc7bfd 	ldp	x29, x30, [sp], #192
   16178:	910003f0 	mov	x16, sp
   1617c:	8b2463ff 	add	sp, sp, x4
   16180:	913843ff 	add	sp, sp, #0xe10
   16184:	d65f03c0 	ret

0000000000016188 <_Unwind_ForcedUnwind@@Base>:
   16188:	d11e43ff 	sub	sp, sp, #0x790
   1618c:	a9b47bfd 	stp	x29, x30, [sp, #-192]!
   16190:	910003fd 	mov	x29, sp
   16194:	a90353f3 	stp	x19, x20, [sp, #48]
   16198:	6d0827e8 	stp	d8, d9, [sp, #128]
   1619c:	910343b4 	add	x20, x29, #0xd0
   161a0:	6d092fea 	stp	d10, d11, [sp, #144]
   161a4:	a9020fe2 	stp	x2, x3, [sp, #32]
   161a8:	6d0a37ec 	stp	d12, d13, [sp, #160]
   161ac:	a90107e0 	stp	x0, x1, [sp, #16]
   161b0:	6d0b3fee 	stp	d14, d15, [sp, #176]
   161b4:	a9045bf5 	stp	x21, x22, [sp, #64]
   161b8:	a90563f7 	stp	x23, x24, [sp, #80]
   161bc:	aa0003f5 	mov	x21, x0
   161c0:	aa0103f7 	mov	x23, x1
   161c4:	aa0203f6 	mov	x22, x2
   161c8:	aa1403e0 	mov	x0, x20
   161cc:	aa1e03e2 	mov	x2, x30
   161d0:	912143a1 	add	x1, x29, #0x850
   161d4:	911243b3 	add	x19, x29, #0x490
   161d8:	a9066bf9 	stp	x25, x26, [sp, #96]
   161dc:	a90773fb 	stp	x27, x28, [sp, #112]
   161e0:	97fffe99 	bl	15c44 <_Unwind_GetTextRelBase@@Base+0x115c>
   161e4:	aa1403e1 	mov	x1, x20
   161e8:	d2807802 	mov	x2, #0x3c0                 	// #960
   161ec:	aa1303e0 	mov	x0, x19
   161f0:	97ffb9f4 	bl	49c0 <memcpy@plt>
   161f4:	f9000ab7 	str	x23, [x21, #16]
   161f8:	f9000eb6 	str	x22, [x21, #24]
   161fc:	aa1503e0 	mov	x0, x21
   16200:	aa1303e1 	mov	x1, x19
   16204:	97ffff0a 	bl	15e2c <_Unwind_GetTextRelBase@@Base+0x1344>
   16208:	71001c1f 	cmp	w0, #0x7
   1620c:	d2800004 	mov	x4, #0x0                   	// #0
   16210:	54000161 	b.ne	1623c <_Unwind_ForcedUnwind@@Base+0xb4>  // b.any
   16214:	aa1303e1 	mov	x1, x19
   16218:	aa1403e0 	mov	x0, x20
   1621c:	97fff9bf 	bl	14918 <_Unwind_GetGR@@Base+0x58>
   16220:	f943d7b3 	ldr	x19, [x29, #1960]
   16224:	f90067a0 	str	x0, [x29, #200]
   16228:	f943d3a0 	ldr	x0, [x29, #1952]
   1622c:	aa1303e1 	mov	x1, x19
   16230:	97ffff77 	bl	1600c <__frame_state_for@@Base+0xf4>
   16234:	f90007f3 	str	x19, [sp, #8]
   16238:	f94067a4 	ldr	x4, [x29, #200]
   1623c:	a9420fe2 	ldp	x2, x3, [sp, #32]
   16240:	6d4827e8 	ldp	d8, d9, [sp, #128]
   16244:	a94353f3 	ldp	x19, x20, [sp, #48]
   16248:	6d492fea 	ldp	d10, d11, [sp, #144]
   1624c:	a9445bf5 	ldp	x21, x22, [sp, #64]
   16250:	6d4a37ec 	ldp	d12, d13, [sp, #160]
   16254:	a94563f7 	ldp	x23, x24, [sp, #80]
   16258:	6d4b3fee 	ldp	d14, d15, [sp, #176]
   1625c:	a9466bf9 	ldp	x25, x26, [sp, #96]
   16260:	a94773fb 	ldp	x27, x28, [sp, #112]
   16264:	a94107e0 	ldp	x0, x1, [sp, #16]
   16268:	a8cc7bfd 	ldp	x29, x30, [sp], #192
   1626c:	910003f0 	mov	x16, sp
   16270:	8b2463ff 	add	sp, sp, x4
   16274:	911e43ff 	add	sp, sp, #0x790
   16278:	d65f03c0 	ret

000000000001627c <_Unwind_Resume@@Base>:
   1627c:	d11e43ff 	sub	sp, sp, #0x790
   16280:	a9b47bfd 	stp	x29, x30, [sp, #-192]!
   16284:	910003fd 	mov	x29, sp
   16288:	a90353f3 	stp	x19, x20, [sp, #48]
   1628c:	6d0827e8 	stp	d8, d9, [sp, #128]
   16290:	910343b4 	add	x20, x29, #0xd0
   16294:	6d092fea 	stp	d10, d11, [sp, #144]
   16298:	a90107e0 	stp	x0, x1, [sp, #16]
   1629c:	6d0a37ec 	stp	d12, d13, [sp, #160]
   162a0:	a9020fe2 	stp	x2, x3, [sp, #32]
   162a4:	6d0b3fee 	stp	d14, d15, [sp, #176]
   162a8:	aa1e03e2 	mov	x2, x30
   162ac:	912143a1 	add	x1, x29, #0x850
   162b0:	a9045bf5 	stp	x21, x22, [sp, #64]
   162b4:	aa0003f5 	mov	x21, x0
   162b8:	aa1403e0 	mov	x0, x20
   162bc:	a90563f7 	stp	x23, x24, [sp, #80]
   162c0:	a9066bf9 	stp	x25, x26, [sp, #96]
   162c4:	a90773fb 	stp	x27, x28, [sp, #112]
   162c8:	911243b3 	add	x19, x29, #0x490
   162cc:	97fffe5e 	bl	15c44 <_Unwind_GetTextRelBase@@Base+0x115c>
   162d0:	aa1303e0 	mov	x0, x19
   162d4:	aa1403e1 	mov	x1, x20
   162d8:	d2807802 	mov	x2, #0x3c0                 	// #960
   162dc:	97ffb9b9 	bl	49c0 <memcpy@plt>
   162e0:	f9400aa0 	ldr	x0, [x21, #16]
   162e4:	b50000a0 	cbnz	x0, 162f8 <_Unwind_Resume@@Base+0x7c>
   162e8:	aa1503e0 	mov	x0, x21
   162ec:	aa1303e1 	mov	x1, x19
   162f0:	97fffe9f 	bl	15d6c <_Unwind_GetTextRelBase@@Base+0x1284>
   162f4:	14000004 	b	16304 <_Unwind_Resume@@Base+0x88>
   162f8:	aa1503e0 	mov	x0, x21
   162fc:	aa1303e1 	mov	x1, x19
   16300:	97fffecb 	bl	15e2c <_Unwind_GetTextRelBase@@Base+0x1344>
   16304:	71001c1f 	cmp	w0, #0x7
   16308:	54000040 	b.eq	16310 <_Unwind_Resume@@Base+0x94>  // b.none
   1630c:	97ffba09 	bl	4b30 <abort@plt>
   16310:	aa1303e1 	mov	x1, x19
   16314:	aa1403e0 	mov	x0, x20
   16318:	97fff980 	bl	14918 <_Unwind_GetGR@@Base+0x58>
   1631c:	f943d7b3 	ldr	x19, [x29, #1960]
   16320:	f90067a0 	str	x0, [x29, #200]
   16324:	f943d3a0 	ldr	x0, [x29, #1952]
   16328:	aa1303e1 	mov	x1, x19
   1632c:	97ffff38 	bl	1600c <__frame_state_for@@Base+0xf4>
   16330:	f90007f3 	str	x19, [sp, #8]
   16334:	f94067a4 	ldr	x4, [x29, #200]
   16338:	6d4827e8 	ldp	d8, d9, [sp, #128]
   1633c:	a94107e0 	ldp	x0, x1, [sp, #16]
   16340:	6d492fea 	ldp	d10, d11, [sp, #144]
   16344:	a9420fe2 	ldp	x2, x3, [sp, #32]
   16348:	6d4a37ec 	ldp	d12, d13, [sp, #160]
   1634c:	a94353f3 	ldp	x19, x20, [sp, #48]
   16350:	6d4b3fee 	ldp	d14, d15, [sp, #176]
   16354:	a9445bf5 	ldp	x21, x22, [sp, #64]
   16358:	a94563f7 	ldp	x23, x24, [sp, #80]
   1635c:	a9466bf9 	ldp	x25, x26, [sp, #96]
   16360:	a94773fb 	ldp	x27, x28, [sp, #112]
   16364:	a8cc7bfd 	ldp	x29, x30, [sp], #192
   16368:	910003f0 	mov	x16, sp
   1636c:	8b2463ff 	add	sp, sp, x4
   16370:	911e43ff 	add	sp, sp, #0x790
   16374:	d65f03c0 	ret

0000000000016378 <_Unwind_Resume_or_Rethrow@@Base>:
   16378:	d11e43ff 	sub	sp, sp, #0x790
   1637c:	a9b47bfd 	stp	x29, x30, [sp, #-192]!
   16380:	910003fd 	mov	x29, sp
   16384:	6d0827e8 	stp	d8, d9, [sp, #128]
   16388:	a90107e0 	stp	x0, x1, [sp, #16]
   1638c:	6d092fea 	stp	d10, d11, [sp, #144]
   16390:	f9400801 	ldr	x1, [x0, #16]
   16394:	6d0a37ec 	stp	d12, d13, [sp, #160]
   16398:	a9020fe2 	stp	x2, x3, [sp, #32]
   1639c:	6d0b3fee 	stp	d14, d15, [sp, #176]
   163a0:	a9045bf5 	stp	x21, x22, [sp, #64]
   163a4:	a90353f3 	stp	x19, x20, [sp, #48]
   163a8:	a90563f7 	stp	x23, x24, [sp, #80]
   163ac:	a9066bf9 	stp	x25, x26, [sp, #96]
   163b0:	a90773fb 	stp	x27, x28, [sp, #112]
   163b4:	aa1e03e2 	mov	x2, x30
   163b8:	aa0003f5 	mov	x21, x0
   163bc:	b5000081 	cbnz	x1, 163cc <_Unwind_Resume_or_Rethrow@@Base+0x54>
   163c0:	97ffff14 	bl	16010 <_Unwind_RaiseException@@Base>
   163c4:	d2800004 	mov	x4, #0x0                   	// #0
   163c8:	1400001a 	b	16430 <_Unwind_Resume_or_Rethrow@@Base+0xb8>
   163cc:	910343b4 	add	x20, x29, #0xd0
   163d0:	912143a1 	add	x1, x29, #0x850
   163d4:	aa1403e0 	mov	x0, x20
   163d8:	911243b3 	add	x19, x29, #0x490
   163dc:	97fffe1a 	bl	15c44 <_Unwind_GetTextRelBase@@Base+0x115c>
   163e0:	aa1403e1 	mov	x1, x20
   163e4:	d2807802 	mov	x2, #0x3c0                 	// #960
   163e8:	aa1303e0 	mov	x0, x19
   163ec:	97ffb975 	bl	49c0 <memcpy@plt>
   163f0:	aa1503e0 	mov	x0, x21
   163f4:	aa1303e1 	mov	x1, x19
   163f8:	97fffe8d 	bl	15e2c <_Unwind_GetTextRelBase@@Base+0x1344>
   163fc:	71001c1f 	cmp	w0, #0x7
   16400:	54000040 	b.eq	16408 <_Unwind_Resume_or_Rethrow@@Base+0x90>  // b.none
   16404:	97ffb9cb 	bl	4b30 <abort@plt>
   16408:	aa1303e1 	mov	x1, x19
   1640c:	aa1403e0 	mov	x0, x20
   16410:	97fff942 	bl	14918 <_Unwind_GetGR@@Base+0x58>
   16414:	f943d7b3 	ldr	x19, [x29, #1960]
   16418:	f90067a0 	str	x0, [x29, #200]
   1641c:	f943d3a0 	ldr	x0, [x29, #1952]
   16420:	aa1303e1 	mov	x1, x19
   16424:	97fffefa 	bl	1600c <__frame_state_for@@Base+0xf4>
   16428:	f90007f3 	str	x19, [sp, #8]
   1642c:	f94067a4 	ldr	x4, [x29, #200]
   16430:	a9420fe2 	ldp	x2, x3, [sp, #32]
   16434:	6d4827e8 	ldp	d8, d9, [sp, #128]
   16438:	a94353f3 	ldp	x19, x20, [sp, #48]
   1643c:	6d492fea 	ldp	d10, d11, [sp, #144]
   16440:	a9445bf5 	ldp	x21, x22, [sp, #64]
   16444:	6d4a37ec 	ldp	d12, d13, [sp, #160]
   16448:	a94563f7 	ldp	x23, x24, [sp, #80]
   1644c:	6d4b3fee 	ldp	d14, d15, [sp, #176]
   16450:	a9466bf9 	ldp	x25, x26, [sp, #96]
   16454:	a94773fb 	ldp	x27, x28, [sp, #112]
   16458:	a94107e0 	ldp	x0, x1, [sp, #16]
   1645c:	a8cc7bfd 	ldp	x29, x30, [sp], #192
   16460:	910003f0 	mov	x16, sp
   16464:	8b2463ff 	add	sp, sp, x4
   16468:	911e43ff 	add	sp, sp, #0x790
   1646c:	d65f03c0 	ret

0000000000016470 <_Unwind_DeleteException@@Base>:
   16470:	a9bf7bfd 	stp	x29, x30, [sp, #-16]!
   16474:	910003fd 	mov	x29, sp
   16478:	f9400402 	ldr	x2, [x0, #8]
   1647c:	b4000082 	cbz	x2, 1648c <_Unwind_DeleteException@@Base+0x1c>
   16480:	aa0003e1 	mov	x1, x0
   16484:	52800020 	mov	w0, #0x1                   	// #1
   16488:	d63f0040 	blr	x2
   1648c:	a8c17bfd 	ldp	x29, x30, [sp], #16
   16490:	d65f03c0 	ret

0000000000016494 <_Unwind_Backtrace@@Base>:
   16494:	d12903ff 	sub	sp, sp, #0xa40
   16498:	aa1e03e2 	mov	x2, x30
   1649c:	a9b67bfd 	stp	x29, x30, [sp, #-160]!
   164a0:	910003fd 	mov	x29, sp
   164a4:	a90153f3 	stp	x19, x20, [sp, #16]
   164a8:	6d0627e8 	stp	d8, d9, [sp, #96]
   164ac:	910283b4 	add	x20, x29, #0xa0
   164b0:	6d072fea 	stp	d10, d11, [sp, #112]
   164b4:	a9025bf5 	stp	x21, x22, [sp, #32]
   164b8:	6d0837ec 	stp	d12, d13, [sp, #128]
   164bc:	a90363f7 	stp	x23, x24, [sp, #48]
   164c0:	6d093fee 	stp	d14, d15, [sp, #144]
   164c4:	aa0003f6 	mov	x22, x0
   164c8:	aa0103f7 	mov	x23, x1
   164cc:	aa1403e0 	mov	x0, x20
   164d0:	912b83a1 	add	x1, x29, #0xae0
   164d4:	911183b5 	add	x21, x29, #0x460
   164d8:	a9046bf9 	stp	x25, x26, [sp, #64]
   164dc:	a90573fb 	stp	x27, x28, [sp, #80]
   164e0:	97fffdd9 	bl	15c44 <_Unwind_GetTextRelBase@@Base+0x115c>
   164e4:	aa1403e0 	mov	x0, x20
   164e8:	aa1503e1 	mov	x1, x21
   164ec:	97fffadd 	bl	15060 <_Unwind_GetTextRelBase@@Base+0x578>
   164f0:	7100141f 	cmp	w0, #0x5
   164f4:	2a0003f3 	mov	w19, w0
   164f8:	54000040 	b.eq	16500 <_Unwind_Backtrace@@Base+0x6c>  // b.none
   164fc:	35000160 	cbnz	w0, 16528 <_Unwind_Backtrace@@Base+0x94>
   16500:	aa1403e0 	mov	x0, x20
   16504:	aa1703e1 	mov	x1, x23
   16508:	d63f02c0 	blr	x22
   1650c:	350000e0 	cbnz	w0, 16528 <_Unwind_Backtrace@@Base+0x94>
   16510:	7100167f 	cmp	w19, #0x5
   16514:	540000e0 	b.eq	16530 <_Unwind_Backtrace@@Base+0x9c>  // b.none
   16518:	aa1403e0 	mov	x0, x20
   1651c:	aa1503e1 	mov	x1, x21
   16520:	97fffe00 	bl	15d20 <_Unwind_GetTextRelBase@@Base+0x1238>
   16524:	17fffff0 	b	164e4 <_Unwind_Backtrace@@Base+0x50>
   16528:	52800060 	mov	w0, #0x3                   	// #3
   1652c:	14000002 	b	16534 <_Unwind_Backtrace@@Base+0xa0>
   16530:	2a1303e0 	mov	w0, w19
   16534:	a94153f3 	ldp	x19, x20, [sp, #16]
   16538:	6d4627e8 	ldp	d8, d9, [sp, #96]
   1653c:	a9425bf5 	ldp	x21, x22, [sp, #32]
   16540:	6d472fea 	ldp	d10, d11, [sp, #112]
   16544:	a94363f7 	ldp	x23, x24, [sp, #48]
   16548:	6d4837ec 	ldp	d12, d13, [sp, #128]
   1654c:	a9446bf9 	ldp	x25, x26, [sp, #64]
   16550:	6d493fee 	ldp	d14, d15, [sp, #144]
   16554:	a94573fb 	ldp	x27, x28, [sp, #80]
   16558:	a8ca7bfd 	ldp	x29, x30, [sp], #160
   1655c:	912903ff 	add	sp, sp, #0xa40
   16560:	d65f03c0 	ret
   16564:	d2800002 	mov	x2, #0x0                   	// #0
   16568:	52800003 	mov	w3, #0x0                   	// #0
   1656c:	38401405 	ldrb	w5, [x0], #1
   16570:	924018a4 	and	x4, x5, #0x7f
   16574:	9ac32084 	lsl	x4, x4, x3
   16578:	11001c63 	add	w3, w3, #0x7
   1657c:	aa040042 	orr	x2, x2, x4
   16580:	373fff65 	tbnz	w5, #7, 1656c <_Unwind_Backtrace@@Base+0xd8>
   16584:	f9000022 	str	x2, [x1]
   16588:	d65f03c0 	ret
   1658c:	d2800002 	mov	x2, #0x0                   	// #0
   16590:	52800003 	mov	w3, #0x0                   	// #0
   16594:	38401404 	ldrb	w4, [x0], #1
   16598:	92401885 	and	x5, x4, #0x7f
   1659c:	9ac320a5 	lsl	x5, x5, x3
   165a0:	11001c63 	add	w3, w3, #0x7
   165a4:	aa050042 	orr	x2, x2, x5
   165a8:	373fff64 	tbnz	w4, #7, 16594 <_Unwind_Backtrace@@Base+0x100>
   165ac:	7100fc7f 	cmp	w3, #0x3f
   165b0:	540000a8 	b.hi	165c4 <_Unwind_Backtrace@@Base+0x130>  // b.pmore
   165b4:	36300084 	tbz	w4, #6, 165c4 <_Unwind_Backtrace@@Base+0x130>
   165b8:	92800004 	mov	x4, #0xffffffffffffffff    	// #-1
   165bc:	9ac32083 	lsl	x3, x4, x3
   165c0:	aa020062 	orr	x2, x3, x2
   165c4:	f9000022 	str	x2, [x1]
   165c8:	d65f03c0 	ret
   165cc:	f9400423 	ldr	x3, [x1, #8]
   165d0:	f9400441 	ldr	x1, [x2, #8]
   165d4:	eb01007f 	cmp	x3, x1
   165d8:	5a9f23e0 	csetm	w0, cc	// cc = lo, ul, last
   165dc:	eb01007f 	cmp	x3, x1
   165e0:	1a9f9400 	csinc	w0, w0, wzr, ls	// ls = plast
   165e4:	d65f03c0 	ret
   165e8:	a9ba7bfd 	stp	x29, x30, [sp, #-96]!
   165ec:	910003fd 	mov	x29, sp
   165f0:	a90153f3 	stp	x19, x20, [sp, #16]
   165f4:	531f7873 	lsl	w19, w3, #1
   165f8:	f90023f9 	str	x25, [sp, #64]
   165fc:	a90363f7 	stp	x23, x24, [sp, #48]
   16600:	a9025bf5 	stp	x21, x22, [sp, #32]
   16604:	aa0003f8 	mov	x24, x0
   16608:	aa0103f9 	mov	x25, x1
   1660c:	aa0203f4 	mov	x20, x2
   16610:	2a0403f7 	mov	w23, w4
   16614:	11000673 	add	w19, w19, #0x1
   16618:	6b17027f 	cmp	w19, w23
   1661c:	540003aa 	b.ge	16690 <_Unwind_Backtrace@@Base+0x1fc>  // b.tcont
   16620:	11000675 	add	w21, w19, #0x1
   16624:	6b1702bf 	cmp	w21, w23
   16628:	5400016a 	b.ge	16654 <_Unwind_Backtrace@@Base+0x1c0>  // b.tcont
   1662c:	937d7e61 	sbfiz	x1, x19, #3, #32
   16630:	aa1803e0 	mov	x0, x24
   16634:	8b010282 	add	x2, x20, x1
   16638:	f9002fa3 	str	x3, [x29, #88]
   1663c:	f8616a81 	ldr	x1, [x20, x1]
   16640:	f9400442 	ldr	x2, [x2, #8]
   16644:	d63f0320 	blr	x25
   16648:	6b1f001f 	cmp	w0, wzr
   1664c:	f9402fa3 	ldr	x3, [x29, #88]
   16650:	1a95a273 	csel	w19, w19, w21, ge	// ge = tcont
   16654:	937d7c75 	sbfiz	x21, x3, #3, #32
   16658:	937d7e76 	sbfiz	x22, x19, #3, #32
   1665c:	aa1803e0 	mov	x0, x24
   16660:	f8756a81 	ldr	x1, [x20, x21]
   16664:	f8766a82 	ldr	x2, [x20, x22]
   16668:	d63f0320 	blr	x25
   1666c:	36f80120 	tbz	w0, #31, 16690 <_Unwind_Backtrace@@Base+0x1fc>
   16670:	f8766a81 	ldr	x1, [x20, x22]
   16674:	2a1303e3 	mov	w3, w19
   16678:	f8756a80 	ldr	x0, [x20, x21]
   1667c:	f8356a81 	str	x1, [x20, x21]
   16680:	f8366a80 	str	x0, [x20, x22]
   16684:	531f7a60 	lsl	w0, w19, #1
   16688:	11000413 	add	w19, w0, #0x1
   1668c:	17ffffe3 	b	16618 <_Unwind_Backtrace@@Base+0x184>
   16690:	a94153f3 	ldp	x19, x20, [sp, #16]
   16694:	a9425bf5 	ldp	x21, x22, [sp, #32]
   16698:	a94363f7 	ldp	x23, x24, [sp, #48]
   1669c:	f94023f9 	ldr	x25, [sp, #64]
   166a0:	a8c67bfd 	ldp	x29, x30, [sp], #96
   166a4:	d65f03c0 	ret
   166a8:	a9bb7bfd 	stp	x29, x30, [sp, #-80]!
   166ac:	910003fd 	mov	x29, sp
   166b0:	a90153f3 	stp	x19, x20, [sp, #16]
   166b4:	f9400453 	ldr	x19, [x2, #8]
   166b8:	a9025bf5 	stp	x21, x22, [sp, #32]
   166bc:	a90363f7 	stp	x23, x24, [sp, #48]
   166c0:	f90023f9 	str	x25, [sp, #64]
   166c4:	aa0003f8 	mov	x24, x0
   166c8:	aa0103f9 	mov	x25, x1
   166cc:	aa0203f5 	mov	x21, x2
   166d0:	91004056 	add	x22, x2, #0x10
   166d4:	d341fe74 	lsr	x20, x19, #1
   166d8:	51000694 	sub	w20, w20, #0x1
   166dc:	37f80114 	tbnz	w20, #31, 166fc <_Unwind_Backtrace@@Base+0x268>
   166e0:	aa1803e0 	mov	x0, x24
   166e4:	aa1903e1 	mov	x1, x25
   166e8:	aa1603e2 	mov	x2, x22
   166ec:	2a1403e3 	mov	w3, w20
   166f0:	2a1303e4 	mov	w4, w19
   166f4:	97ffffbd 	bl	165e8 <_Unwind_Backtrace@@Base+0x154>
   166f8:	17fffff8 	b	166d8 <_Unwind_Backtrace@@Base+0x244>
   166fc:	d2800014 	mov	x20, #0x0                   	// #0
   16700:	51000673 	sub	w19, w19, #0x1
   16704:	8b33ced7 	add	x23, x22, w19, sxtw #3
   16708:	6b1f027f 	cmp	w19, wzr
   1670c:	540001cd 	b.le	16744 <_Unwind_Backtrace@@Base+0x2b0>
   16710:	f8746ae1 	ldr	x1, [x23, x20]
   16714:	2a1303e4 	mov	w4, w19
   16718:	f9400aa0 	ldr	x0, [x21, #16]
   1671c:	aa1603e2 	mov	x2, x22
   16720:	f9000aa1 	str	x1, [x21, #16]
   16724:	52800003 	mov	w3, #0x0                   	// #0
   16728:	f8346ae0 	str	x0, [x23, x20]
   1672c:	aa1903e1 	mov	x1, x25
   16730:	aa1803e0 	mov	x0, x24
   16734:	51000673 	sub	w19, w19, #0x1
   16738:	d1002294 	sub	x20, x20, #0x8
   1673c:	97ffffab 	bl	165e8 <_Unwind_Backtrace@@Base+0x154>
   16740:	17fffff2 	b	16708 <_Unwind_Backtrace@@Base+0x274>
   16744:	a94153f3 	ldp	x19, x20, [sp, #16]
   16748:	a9425bf5 	ldp	x21, x22, [sp, #32]
   1674c:	a94363f7 	ldp	x23, x24, [sp, #48]
   16750:	f94023f9 	ldr	x25, [sp, #64]
   16754:	a8c57bfd 	ldp	x29, x30, [sp], #80
   16758:	d65f03c0 	ret
   1675c:	a9bf7bfd 	stp	x29, x30, [sp, #-16]!
   16760:	53001c00 	uxtb	w0, w0
   16764:	7103fc1f 	cmp	w0, #0xff
   16768:	910003fd 	mov	x29, sp
   1676c:	540001e0 	b.eq	167a8 <_Unwind_Backtrace@@Base+0x314>  // b.none
   16770:	12000800 	and	w0, w0, #0x7
   16774:	7100101f 	cmp	w0, #0x4
   16778:	54000168 	b.hi	167a4 <_Unwind_Backtrace@@Base+0x310>  // b.pmore
   1677c:	f0000001 	adrp	x1, 19000 <_ZTSN10__cxxabiv117__class_type_infoE@@Base+0x1000>
   16780:	91012021 	add	x1, x1, #0x48
   16784:	38604820 	ldrb	w0, [x1, w0, uxtw]
   16788:	10000061 	adr	x1, 16794 <_Unwind_Backtrace@@Base+0x300>
   1678c:	8b208820 	add	x0, x1, w0, sxtb #2
   16790:	d61f0000 	br	x0
   16794:	52800040 	mov	w0, #0x2                   	// #2
   16798:	14000007 	b	167b4 <_Unwind_Backtrace@@Base+0x320>
   1679c:	52800080 	mov	w0, #0x4                   	// #4
   167a0:	14000005 	b	167b4 <_Unwind_Backtrace@@Base+0x320>
   167a4:	97ffb8e3 	bl	4b30 <abort@plt>
   167a8:	52800000 	mov	w0, #0x0                   	// #0
   167ac:	14000002 	b	167b4 <_Unwind_Backtrace@@Base+0x320>
   167b0:	52800100 	mov	w0, #0x8                   	// #8
   167b4:	a8c17bfd 	ldp	x29, x30, [sp], #16
   167b8:	d65f03c0 	ret
   167bc:	a9bf7bfd 	stp	x29, x30, [sp, #-16]!
   167c0:	53001c00 	uxtb	w0, w0
   167c4:	7103fc1f 	cmp	w0, #0xff
   167c8:	910003fd 	mov	x29, sp
   167cc:	54000220 	b.eq	16810 <_Unwind_Backtrace@@Base+0x37c>  // b.none
   167d0:	121c0800 	and	w0, w0, #0x70
   167d4:	7100801f 	cmp	w0, #0x20
   167d8:	54000140 	b.eq	16800 <_Unwind_Backtrace@@Base+0x36c>  // b.none
   167dc:	54000088 	b.hi	167ec <_Unwind_Backtrace@@Base+0x358>  // b.pmore
   167e0:	7100401f 	cmp	w0, #0x10
   167e4:	350000a0 	cbnz	w0, 167f8 <_Unwind_Backtrace@@Base+0x364>
   167e8:	1400000a 	b	16810 <_Unwind_Backtrace@@Base+0x37c>
   167ec:	7100c01f 	cmp	w0, #0x30
   167f0:	540000c0 	b.eq	16808 <_Unwind_Backtrace@@Base+0x374>  // b.none
   167f4:	7101401f 	cmp	w0, #0x50
   167f8:	540000c0 	b.eq	16810 <_Unwind_Backtrace@@Base+0x37c>  // b.none
   167fc:	97ffb8cd 	bl	4b30 <abort@plt>
   16800:	f9400420 	ldr	x0, [x1, #8]
   16804:	14000004 	b	16814 <_Unwind_Backtrace@@Base+0x380>
   16808:	f9400820 	ldr	x0, [x1, #16]
   1680c:	14000002 	b	16814 <_Unwind_Backtrace@@Base+0x380>
   16810:	d2800000 	mov	x0, #0x0                   	// #0
   16814:	a8c17bfd 	ldp	x29, x30, [sp], #16
   16818:	d65f03c0 	ret
   1681c:	a9bf7bfd 	stp	x29, x30, [sp, #-16]!
   16820:	53001c00 	uxtb	w0, w0
   16824:	7103fc1f 	cmp	w0, #0xff
   16828:	910003fd 	mov	x29, sp
   1682c:	54000220 	b.eq	16870 <_Unwind_Backtrace@@Base+0x3dc>  // b.none
   16830:	121c0800 	and	w0, w0, #0x70
   16834:	7100801f 	cmp	w0, #0x20
   16838:	54000140 	b.eq	16860 <_Unwind_Backtrace@@Base+0x3cc>  // b.none
   1683c:	54000088 	b.hi	1684c <_Unwind_Backtrace@@Base+0x3b8>  // b.pmore
   16840:	7100401f 	cmp	w0, #0x10
   16844:	350000a0 	cbnz	w0, 16858 <_Unwind_Backtrace@@Base+0x3c4>
   16848:	1400000a 	b	16870 <_Unwind_Backtrace@@Base+0x3dc>
   1684c:	7100c01f 	cmp	w0, #0x30
   16850:	540000c0 	b.eq	16868 <_Unwind_Backtrace@@Base+0x3d4>  // b.none
   16854:	7101401f 	cmp	w0, #0x50
   16858:	540000c0 	b.eq	16870 <_Unwind_Backtrace@@Base+0x3dc>  // b.none
   1685c:	97ffb8b5 	bl	4b30 <abort@plt>
   16860:	f9400420 	ldr	x0, [x1, #8]
   16864:	14000004 	b	16874 <_Unwind_Backtrace@@Base+0x3e0>
   16868:	f9400820 	ldr	x0, [x1, #16]
   1686c:	14000002 	b	16874 <_Unwind_Backtrace@@Base+0x3e0>
   16870:	d2800000 	mov	x0, #0x0                   	// #0
   16874:	a8c17bfd 	ldp	x29, x30, [sp], #16
   16878:	d65f03c0 	ret
   1687c:	a9bc7bfd 	stp	x29, x30, [sp, #-64]!
   16880:	910003fd 	mov	x29, sp
   16884:	a90153f3 	stp	x19, x20, [sp, #16]
   16888:	53001c14 	uxtb	w20, w0
   1688c:	aa0203f3 	mov	x19, x2
   16890:	a9025bf5 	stp	x21, x22, [sp, #32]
   16894:	7101429f 	cmp	w20, #0x50
   16898:	aa0103f6 	mov	x22, x1
   1689c:	aa0303f5 	mov	x21, x3
   168a0:	540000a1 	b.ne	168b4 <_Unwind_Backtrace@@Base+0x420>  // b.any
   168a4:	91001c53 	add	x19, x2, #0x7
   168a8:	927df260 	and	x0, x19, #0xfffffffffffffff8
   168ac:	f8408401 	ldr	x1, [x0], #8
   168b0:	1400002a 	b	16958 <_Unwind_Backtrace@@Base+0x4c4>
   168b4:	12000e81 	and	w1, w20, #0xf
   168b8:	7100303f 	cmp	w1, #0xc
   168bc:	540003e8 	b.hi	16938 <_Unwind_Backtrace@@Base+0x4a4>  // b.pmore
   168c0:	f0000000 	adrp	x0, 19000 <_ZTSN10__cxxabiv117__class_type_infoE@@Base+0x1000>
   168c4:	91014000 	add	x0, x0, #0x50
   168c8:	38614800 	ldrb	w0, [x0, w1, uxtw]
   168cc:	10000061 	adr	x1, 168d8 <_Unwind_Backtrace@@Base+0x444>
   168d0:	8b208820 	add	x0, x1, w0, sxtb #2
   168d4:	d61f0000 	br	x0
   168d8:	aa0203e0 	mov	x0, x2
   168dc:	9100e3a1 	add	x1, x29, #0x38
   168e0:	97ffff21 	bl	16564 <_Unwind_Backtrace@@Base+0xd0>
   168e4:	14000004 	b	168f4 <_Unwind_Backtrace@@Base+0x460>
   168e8:	aa0203e0 	mov	x0, x2
   168ec:	9100e3a1 	add	x1, x29, #0x38
   168f0:	97ffff27 	bl	1658c <_Unwind_Backtrace@@Base+0xf8>
   168f4:	f9401fa1 	ldr	x1, [x29, #56]
   168f8:	14000011 	b	1693c <_Unwind_Backtrace@@Base+0x4a8>
   168fc:	aa0203e0 	mov	x0, x2
   16900:	78402401 	ldrh	w1, [x0], #2
   16904:	1400000e 	b	1693c <_Unwind_Backtrace@@Base+0x4a8>
   16908:	aa0203e0 	mov	x0, x2
   1690c:	b8404401 	ldr	w1, [x0], #4
   16910:	1400000b 	b	1693c <_Unwind_Backtrace@@Base+0x4a8>
   16914:	aa0203e0 	mov	x0, x2
   16918:	78802401 	ldrsh	x1, [x0], #2
   1691c:	14000008 	b	1693c <_Unwind_Backtrace@@Base+0x4a8>
   16920:	aa0203e0 	mov	x0, x2
   16924:	b8804401 	ldrsw	x1, [x0], #4
   16928:	14000005 	b	1693c <_Unwind_Backtrace@@Base+0x4a8>
   1692c:	aa0203e0 	mov	x0, x2
   16930:	f8408401 	ldr	x1, [x0], #8
   16934:	14000002 	b	1693c <_Unwind_Backtrace@@Base+0x4a8>
   16938:	97ffb87e 	bl	4b30 <abort@plt>
   1693c:	b40000e1 	cbz	x1, 16958 <_Unwind_Backtrace@@Base+0x4c4>
   16940:	121c0a82 	and	w2, w20, #0x70
   16944:	7100405f 	cmp	w2, #0x10
   16948:	9a960273 	csel	x19, x19, x22, eq	// eq = none
   1694c:	8b130021 	add	x1, x1, x19
   16950:	36380054 	tbz	w20, #7, 16958 <_Unwind_Backtrace@@Base+0x4c4>
   16954:	f9400021 	ldr	x1, [x1]
   16958:	f90002a1 	str	x1, [x21]
   1695c:	a94153f3 	ldp	x19, x20, [sp, #16]
   16960:	a9425bf5 	ldp	x21, x22, [sp, #32]
   16964:	a8c47bfd 	ldp	x29, x30, [sp], #64
   16968:	d65f03c0 	ret
   1696c:	a9bb7bfd 	stp	x29, x30, [sp, #-80]!
   16970:	910003fd 	mov	x29, sp
   16974:	a90153f3 	stp	x19, x20, [sp, #16]
   16978:	79404013 	ldrh	w19, [x0, #32]
   1697c:	aa0003f4 	mov	x20, x0
   16980:	f9001bf7 	str	x23, [sp, #48]
   16984:	aa0103f7 	mov	x23, x1
   16988:	d3432a73 	ubfx	x19, x19, #3, #8
   1698c:	aa1403e1 	mov	x1, x20
   16990:	2a1303e0 	mov	w0, w19
   16994:	a9025bf5 	stp	x21, x22, [sp, #32]
   16998:	aa0203f6 	mov	x22, x2
   1699c:	97ffff88 	bl	167bc <_Unwind_Backtrace@@Base+0x328>
   169a0:	aa0003f5 	mov	x21, x0
   169a4:	910022e2 	add	x2, x23, #0x8
   169a8:	aa1503e1 	mov	x1, x21
   169ac:	910103a3 	add	x3, x29, #0x40
   169b0:	2a1303e0 	mov	w0, w19
   169b4:	97ffffb2 	bl	1687c <_Unwind_Backtrace@@Base+0x3e8>
   169b8:	79404280 	ldrh	w0, [x20, #32]
   169bc:	aa1503e1 	mov	x1, x21
   169c0:	910022c2 	add	x2, x22, #0x8
   169c4:	910123a3 	add	x3, x29, #0x48
   169c8:	d343fc00 	lsr	x0, x0, #3
   169cc:	97ffffac 	bl	1687c <_Unwind_Backtrace@@Base+0x3e8>
   169d0:	f9401bf7 	ldr	x23, [sp, #48]
   169d4:	f94023a2 	ldr	x2, [x29, #64]
   169d8:	f94027a1 	ldr	x1, [x29, #72]
   169dc:	a94153f3 	ldp	x19, x20, [sp, #16]
   169e0:	eb01005f 	cmp	x2, x1
   169e4:	5a9f23e0 	csetm	w0, cc	// cc = lo, ul, last
   169e8:	eb01005f 	cmp	x2, x1
   169ec:	a9425bf5 	ldp	x21, x22, [sp, #32]
   169f0:	1a9f9400 	csinc	w0, w0, wzr, ls	// ls = plast
   169f4:	a8c57bfd 	ldp	x29, x30, [sp], #80
   169f8:	d65f03c0 	ret
   169fc:	a9bc7bfd 	stp	x29, x30, [sp, #-64]!
   16a00:	910003fd 	mov	x29, sp
   16a04:	a90153f3 	stp	x19, x20, [sp, #16]
   16a08:	91002414 	add	x20, x0, #0x9
   16a0c:	aa0003f3 	mov	x19, x0
   16a10:	aa1403e0 	mov	x0, x20
   16a14:	97ffb817 	bl	4a70 <strlen@plt>
   16a18:	91000400 	add	x0, x0, #0x1
   16a1c:	39402262 	ldrb	w2, [x19, #8]
   16a20:	8b000281 	add	x1, x20, x0
   16a24:	71000c5f 	cmp	w2, #0x3
   16a28:	54000109 	b.ls	16a48 <_Unwind_Backtrace@@Base+0x5b4>  // b.plast
   16a2c:	38606a82 	ldrb	w2, [x20, x0]
   16a30:	52801fe0 	mov	w0, #0xff                  	// #255
   16a34:	7100205f 	cmp	w2, #0x8
   16a38:	540005a1 	b.ne	16aec <_Unwind_Backtrace@@Base+0x658>  // b.any
   16a3c:	39400422 	ldrb	w2, [x1, #1]
   16a40:	35000562 	cbnz	w2, 16aec <_Unwind_Backtrace@@Base+0x658>
   16a44:	91000821 	add	x1, x1, #0x2
   16a48:	39402660 	ldrb	w0, [x19, #9]
   16a4c:	7101e81f 	cmp	w0, #0x7a
   16a50:	54000060 	b.eq	16a5c <_Unwind_Backtrace@@Base+0x5c8>  // b.none
   16a54:	52800000 	mov	w0, #0x0                   	// #0
   16a58:	14000025 	b	16aec <_Unwind_Backtrace@@Base+0x658>
   16a5c:	9100c3b4 	add	x20, x29, #0x30
   16a60:	aa0103e0 	mov	x0, x1
   16a64:	aa1403e1 	mov	x1, x20
   16a68:	97fffebf 	bl	16564 <_Unwind_Backtrace@@Base+0xd0>
   16a6c:	9100e3a1 	add	x1, x29, #0x38
   16a70:	97fffec7 	bl	1658c <_Unwind_Backtrace@@Base+0xf8>
   16a74:	39402262 	ldrb	w2, [x19, #8]
   16a78:	7100045f 	cmp	w2, #0x1
   16a7c:	54000061 	b.ne	16a88 <_Unwind_Backtrace@@Base+0x5f4>  // b.any
   16a80:	91000400 	add	x0, x0, #0x1
   16a84:	14000003 	b	16a90 <_Unwind_Backtrace@@Base+0x5fc>
   16a88:	aa1403e1 	mov	x1, x20
   16a8c:	97fffeb6 	bl	16564 <_Unwind_Backtrace@@Base+0xd0>
   16a90:	aa1403e1 	mov	x1, x20
   16a94:	91002a73 	add	x19, x19, #0xa
   16a98:	9100a3b4 	add	x20, x29, #0x28
   16a9c:	97fffeb2 	bl	16564 <_Unwind_Backtrace@@Base+0xd0>
   16aa0:	39400261 	ldrb	w1, [x19]
   16aa4:	7101483f 	cmp	w1, #0x52
   16aa8:	54000061 	b.ne	16ab4 <_Unwind_Backtrace@@Base+0x620>  // b.any
   16aac:	39400000 	ldrb	w0, [x0]
   16ab0:	1400000f 	b	16aec <_Unwind_Backtrace@@Base+0x658>
   16ab4:	7101403f 	cmp	w1, #0x50
   16ab8:	54000101 	b.ne	16ad8 <_Unwind_Backtrace@@Base+0x644>  // b.any
   16abc:	aa0003e2 	mov	x2, x0
   16ac0:	d2800001 	mov	x1, #0x0                   	// #0
   16ac4:	aa1403e3 	mov	x3, x20
   16ac8:	38401440 	ldrb	w0, [x2], #1
   16acc:	12001800 	and	w0, w0, #0x7f
   16ad0:	97ffff6b 	bl	1687c <_Unwind_Backtrace@@Base+0x3e8>
   16ad4:	14000004 	b	16ae4 <_Unwind_Backtrace@@Base+0x650>
   16ad8:	7101303f 	cmp	w1, #0x4c
   16adc:	54fffbc1 	b.ne	16a54 <_Unwind_Backtrace@@Base+0x5c0>  // b.any
   16ae0:	91000400 	add	x0, x0, #0x1
   16ae4:	91000673 	add	x19, x19, #0x1
   16ae8:	17ffffee 	b	16aa0 <_Unwind_Backtrace@@Base+0x60c>
   16aec:	a94153f3 	ldp	x19, x20, [sp, #16]
   16af0:	a8c47bfd 	ldp	x29, x30, [sp], #64
   16af4:	d65f03c0 	ret
   16af8:	a9b97bfd 	stp	x29, x30, [sp, #-112]!
   16afc:	910003fd 	mov	x29, sp
   16b00:	a9025bf5 	stp	x21, x22, [sp, #32]
   16b04:	aa0003f6 	mov	x22, x0
   16b08:	79404000 	ldrh	w0, [x0, #32]
   16b0c:	a90153f3 	stp	x19, x20, [sp, #16]
   16b10:	d3432800 	ubfx	x0, x0, #3, #8
   16b14:	aa0103f3 	mov	x19, x1
   16b18:	aa1603e1 	mov	x1, x22
   16b1c:	a90363f7 	stp	x23, x24, [sp, #48]
   16b20:	a9046bf9 	stp	x25, x26, [sp, #64]
   16b24:	a90573fb 	stp	x27, x28, [sp, #80]
   16b28:	aa0203f7 	mov	x23, x2
   16b2c:	53001c15 	uxtb	w21, w0
   16b30:	97ffff23 	bl	167bc <_Unwind_Backtrace@@Base+0x328>
   16b34:	910183b8 	add	x24, x29, #0x60
   16b38:	aa0003fb 	mov	x27, x0
   16b3c:	9101a3b9 	add	x25, x29, #0x68
   16b40:	d2800000 	mov	x0, #0x0                   	// #0
   16b44:	d280003a 	mov	x26, #0x1                   	// #1
   16b48:	b9400261 	ldr	w1, [x19]
   16b4c:	34000761 	cbz	w1, 16c38 <_Unwind_Backtrace@@Base+0x7a4>
   16b50:	b9400661 	ldr	w1, [x19, #4]
   16b54:	34000661 	cbz	w1, 16c20 <_Unwind_Backtrace@@Base+0x78c>
   16b58:	394082c2 	ldrb	w2, [x22, #32]
   16b5c:	aa0003f4 	mov	x20, x0
   16b60:	36100162 	tbz	w2, #2, 16b8c <_Unwind_Backtrace@@Base+0x6f8>
   16b64:	91001274 	add	x20, x19, #0x4
   16b68:	cb21c294 	sub	x20, x20, w1, sxtw
   16b6c:	eb00029f 	cmp	x20, x0
   16b70:	540000e0 	b.eq	16b8c <_Unwind_Backtrace@@Base+0x6f8>  // b.none
   16b74:	aa1403e0 	mov	x0, x20
   16b78:	97ffffa1 	bl	169fc <_Unwind_Backtrace@@Base+0x568>
   16b7c:	2a0003f5 	mov	w21, w0
   16b80:	aa1603e1 	mov	x1, x22
   16b84:	97ffff0e 	bl	167bc <_Unwind_Backtrace@@Base+0x328>
   16b88:	aa0003fb 	mov	x27, x0
   16b8c:	350001b5 	cbnz	w21, 16bc0 <_Unwind_Backtrace@@Base+0x72c>
   16b90:	f9400660 	ldr	x0, [x19, #8]
   16b94:	f9400a61 	ldr	x1, [x19, #16]
   16b98:	f90033a0 	str	x0, [x29, #96]
   16b9c:	f90037a1 	str	x1, [x29, #104]
   16ba0:	b4000420 	cbz	x0, 16c24 <_Unwind_Backtrace@@Base+0x790>
   16ba4:	f94033a0 	ldr	x0, [x29, #96]
   16ba8:	f94037a1 	ldr	x1, [x29, #104]
   16bac:	cb0002e0 	sub	x0, x23, x0
   16bb0:	eb01001f 	cmp	x0, x1
   16bb4:	54000382 	b.cs	16c24 <_Unwind_Backtrace@@Base+0x790>  // b.hs, b.nlast
   16bb8:	aa1303e0 	mov	x0, x19
   16bbc:	14000020 	b	16c3c <_Unwind_Backtrace@@Base+0x7a8>
   16bc0:	53001ebc 	uxtb	w28, w21
   16bc4:	aa1b03e1 	mov	x1, x27
   16bc8:	91002262 	add	x2, x19, #0x8
   16bcc:	aa1803e3 	mov	x3, x24
   16bd0:	2a1c03e0 	mov	w0, w28
   16bd4:	97ffff2a 	bl	1687c <_Unwind_Backtrace@@Base+0x3e8>
   16bd8:	aa0003e2 	mov	x2, x0
   16bdc:	d2800001 	mov	x1, #0x0                   	// #0
   16be0:	aa1903e3 	mov	x3, x25
   16be4:	12000ea0 	and	w0, w21, #0xf
   16be8:	97ffff25 	bl	1687c <_Unwind_Backtrace@@Base+0x3e8>
   16bec:	2a1c03e0 	mov	w0, w28
   16bf0:	97fffedb 	bl	1675c <_Unwind_Backtrace@@Base+0x2c8>
   16bf4:	2a0003e0 	mov	w0, w0
   16bf8:	f1001c1f 	cmp	x0, #0x7
   16bfc:	92800001 	mov	x1, #0xffffffffffffffff    	// #-1
   16c00:	54000088 	b.hi	16c10 <_Unwind_Backtrace@@Base+0x77c>  // b.pmore
   16c04:	d37df001 	lsl	x1, x0, #3
   16c08:	9ac12341 	lsl	x1, x26, x1
   16c0c:	d1000421 	sub	x1, x1, #0x1
   16c10:	f94033a0 	ldr	x0, [x29, #96]
   16c14:	ea00003f 	tst	x1, x0
   16c18:	54000060 	b.eq	16c24 <_Unwind_Backtrace@@Base+0x790>  // b.none
   16c1c:	17ffffe2 	b	16ba4 <_Unwind_Backtrace@@Base+0x710>
   16c20:	aa0003f4 	mov	x20, x0
   16c24:	b9400260 	ldr	w0, [x19]
   16c28:	91001000 	add	x0, x0, #0x4
   16c2c:	8b000273 	add	x19, x19, x0
   16c30:	aa1403e0 	mov	x0, x20
   16c34:	17ffffc5 	b	16b48 <_Unwind_Backtrace@@Base+0x6b4>
   16c38:	d2800000 	mov	x0, #0x0                   	// #0
   16c3c:	a94153f3 	ldp	x19, x20, [sp, #16]
   16c40:	a9425bf5 	ldp	x21, x22, [sp, #32]
   16c44:	a94363f7 	ldp	x23, x24, [sp, #48]
   16c48:	a9446bf9 	ldp	x25, x26, [sp, #64]
   16c4c:	a94573fb 	ldp	x27, x28, [sp, #80]
   16c50:	a8c77bfd 	ldp	x29, x30, [sp], #112
   16c54:	d65f03c0 	ret
   16c58:	91001001 	add	x1, x0, #0x4
   16c5c:	b9800400 	ldrsw	x0, [x0, #4]
   16c60:	cb000020 	sub	x0, x1, x0
   16c64:	17ffff66 	b	169fc <_Unwind_Backtrace@@Base+0x568>
   16c68:	a9b77bfd 	stp	x29, x30, [sp, #-144]!
   16c6c:	f100bc3f 	cmp	x1, #0x2f
   16c70:	910003fd 	mov	x29, sp
   16c74:	a90153f3 	stp	x19, x20, [sp, #16]
   16c78:	a9025bf5 	stp	x21, x22, [sp, #32]
   16c7c:	a90363f7 	stp	x23, x24, [sp, #48]
   16c80:	1a9f97ed 	cset	w13, hi	// hi = pmore
   16c84:	f9400805 	ldr	x5, [x0, #16]
   16c88:	f9400007 	ldr	x7, [x0]
   16c8c:	340007ad 	cbz	w13, 16d80 <_Unwind_Backtrace@@Base+0x8ec>
   16c90:	b9402843 	ldr	w3, [x2, #40]
   16c94:	34000763 	cbz	w3, 16d80 <_Unwind_Backtrace@@Base+0x8ec>
   16c98:	900000c1 	adrp	x1, 2e000 <_ZTVN10__cxxabiv117__class_type_infoE@@Base+0x500>
   16c9c:	f9401004 	ldr	x4, [x0, #32]
   16ca0:	f9401406 	ldr	x6, [x0, #40]
   16ca4:	f9401423 	ldr	x3, [x1, #40]
   16ca8:	eb03009f 	cmp	x4, x3
   16cac:	b0000143 	adrp	x3, 3f000 <__bss_start@@Base+0x10fd0>
   16cb0:	54000461 	b.ne	16d3c <_Unwind_Backtrace@@Base+0x8a8>  // b.any
   16cb4:	f9468869 	ldr	x9, [x3, #3344]
   16cb8:	91344068 	add	x8, x3, #0xd10
   16cbc:	eb0900df 	cmp	x6, x9
   16cc0:	540003e1 	b.ne	16d3c <_Unwind_Backtrace@@Base+0x8a8>  // b.any
   16cc4:	f9400508 	ldr	x8, [x8, #8]
   16cc8:	d2800004 	mov	x4, #0x0                   	// #0
   16ccc:	d2800006 	mov	x6, #0x0                   	// #0
   16cd0:	aa0803e1 	mov	x1, x8
   16cd4:	b40005e1 	cbz	x1, 16d90 <_Unwind_Backtrace@@Base+0x8fc>
   16cd8:	f940004a 	ldr	x10, [x2]
   16cdc:	f9400029 	ldr	x9, [x1]
   16ce0:	f9400424 	ldr	x4, [x1, #8]
   16ce4:	eb09015f 	cmp	x10, x9
   16ce8:	540001a3 	b.cc	16d1c <_Unwind_Backtrace@@Base+0x888>  // b.lo, b.ul, b.last
   16cec:	eb04015f 	cmp	x10, x4
   16cf0:	54000162 	b.cs	16d1c <_Unwind_Backtrace@@Base+0x888>  // b.hs, b.nlast
   16cf4:	eb08003f 	cmp	x1, x8
   16cf8:	f9400827 	ldr	x7, [x1, #16]
   16cfc:	f9400c25 	ldr	x5, [x1, #24]
   16d00:	54000ba0 	b.eq	16e74 <_Unwind_Backtrace@@Base+0x9e0>  // b.none
   16d04:	91344063 	add	x3, x3, #0xd10
   16d08:	f9401420 	ldr	x0, [x1, #40]
   16d0c:	f90014c0 	str	x0, [x6, #40]
   16d10:	f9001428 	str	x8, [x1, #40]
   16d14:	f9000461 	str	x1, [x3, #8]
   16d18:	14000057 	b	16e74 <_Unwind_Backtrace@@Base+0x9e0>
   16d1c:	aa040124 	orr	x4, x9, x4
   16d20:	b4001a44 	cbz	x4, 17068 <_Unwind_Backtrace@@Base+0xbd4>
   16d24:	f9401429 	ldr	x9, [x1, #40]
   16d28:	aa0103e4 	mov	x4, x1
   16d2c:	eb1f013f 	cmp	x9, xzr
   16d30:	9a8100c6 	csel	x6, x6, x1, eq	// eq = none
   16d34:	aa0903e1 	mov	x1, x9
   16d38:	17ffffe7 	b	16cd4 <_Unwind_Backtrace@@Base+0x840>
   16d3c:	f9001424 	str	x4, [x1, #40]
   16d40:	91344064 	add	x4, x3, #0xd10
   16d44:	91010081 	add	x1, x4, #0x40
   16d48:	f9068866 	str	x6, [x3, #3344]
   16d4c:	91070084 	add	x4, x4, #0x1c0
   16d50:	f81d003f 	stur	xzr, [x1, #-48]
   16d54:	f81d803f 	stur	xzr, [x1, #-40]
   16d58:	f81f8021 	stur	x1, [x1, #-8]
   16d5c:	9100c021 	add	x1, x1, #0x30
   16d60:	eb04003f 	cmp	x1, x4
   16d64:	54ffff61 	b.ne	16d50 <_Unwind_Backtrace@@Base+0x8bc>  // b.any
   16d68:	91344063 	add	x3, x3, #0xd10
   16d6c:	91004061 	add	x1, x3, #0x10
   16d70:	f900c47f 	str	xzr, [x3, #392]
   16d74:	f9000461 	str	x1, [x3, #8]
   16d78:	b900285f 	str	wzr, [x2, #40]
   16d7c:	14000003 	b	16d88 <_Unwind_Backtrace@@Base+0x8f4>
   16d80:	f100643f 	cmp	x1, #0x19
   16d84:	540016e9 	b.ls	17060 <_Unwind_Backtrace@@Base+0xbcc>  // b.plast
   16d88:	d2800004 	mov	x4, #0x0                   	// #0
   16d8c:	d2800006 	mov	x6, #0x0                   	// #0
   16d90:	7940300e 	ldrh	w14, [x0, #24]
   16d94:	d2800008 	mov	x8, #0x0                   	// #0
   16d98:	d2800009 	mov	x9, #0x0                   	// #0
   16d9c:	d280000c 	mov	x12, #0x0                   	// #0
   16da0:	d280000a 	mov	x10, #0x0                   	// #0
   16da4:	d280000b 	mov	x11, #0x0                   	// #0
   16da8:	d10005ce 	sub	x14, x14, #0x1
   16dac:	b10005df 	cmn	x14, #0x1
   16db0:	54000380 	b.eq	16e20 <_Unwind_Backtrace@@Base+0x98c>  // b.none
   16db4:	b94000a0 	ldr	w0, [x5]
   16db8:	7100041f 	cmp	w0, #0x1
   16dbc:	540001e1 	b.ne	16df8 <_Unwind_Backtrace@@Base+0x964>  // b.any
   16dc0:	f94008a1 	ldr	x1, [x5, #16]
   16dc4:	f9400043 	ldr	x3, [x2]
   16dc8:	8b0100e1 	add	x1, x7, x1
   16dcc:	eb01007f 	cmp	x3, x1
   16dd0:	54000243 	b.cc	16e18 <_Unwind_Backtrace@@Base+0x984>  // b.lo, b.ul, b.last
   16dd4:	f94014a0 	ldr	x0, [x5, #40]
   16dd8:	8b000020 	add	x0, x1, x0
   16ddc:	eb00007f 	cmp	x3, x0
   16de0:	9a802108 	csel	x8, x8, x0, cs	// cs = hs, nlast
   16de4:	eb00007f 	cmp	x3, x0
   16de8:	9a812129 	csel	x9, x9, x1, cs	// cs = hs, nlast
   16dec:	eb00007f 	cmp	x3, x0
   16df0:	9a9f258c 	csinc	x12, x12, xzr, cs	// cs = hs, nlast
   16df4:	14000009 	b	16e18 <_Unwind_Backtrace@@Base+0x984>
   16df8:	529caa01 	mov	w1, #0xe550                	// #58704
   16dfc:	72ac8e81 	movk	w1, #0x6474, lsl #16
   16e00:	6b01001f 	cmp	w0, w1
   16e04:	54000080 	b.eq	16e14 <_Unwind_Backtrace@@Base+0x980>  // b.none
   16e08:	7100081f 	cmp	w0, #0x2
   16e0c:	9a85114a 	csel	x10, x10, x5, ne	// ne = any
   16e10:	14000002 	b	16e18 <_Unwind_Backtrace@@Base+0x984>
   16e14:	aa0503eb 	mov	x11, x5
   16e18:	9100e0a5 	add	x5, x5, #0x38
   16e1c:	17ffffe3 	b	16da8 <_Unwind_Backtrace@@Base+0x914>
   16e20:	aa0b03e5 	mov	x5, x11
   16e24:	b500006c 	cbnz	x12, 16e30 <_Unwind_Backtrace@@Base+0x99c>
   16e28:	52800000 	mov	w0, #0x0                   	// #0
   16e2c:	14000092 	b	17074 <_Unwind_Backtrace@@Base+0xbe0>
   16e30:	3400022d 	cbz	w13, 16e74 <_Unwind_Backtrace@@Base+0x9e0>
   16e34:	b0000140 	adrp	x0, 3f000 <__bss_start@@Base+0x10fd0>
   16e38:	b4000106 	cbz	x6, 16e58 <_Unwind_Backtrace@@Base+0x9c4>
   16e3c:	b40000e4 	cbz	x4, 16e58 <_Unwind_Backtrace@@Base+0x9c4>
   16e40:	f9401481 	ldr	x1, [x4, #40]
   16e44:	f90014c1 	str	x1, [x6, #40]
   16e48:	91344001 	add	x1, x0, #0xd10
   16e4c:	f9400423 	ldr	x3, [x1, #8]
   16e50:	f9001483 	str	x3, [x4, #40]
   16e54:	f9000424 	str	x4, [x1, #8]
   16e58:	91344000 	add	x0, x0, #0xd10
   16e5c:	f9400400 	ldr	x0, [x0, #8]
   16e60:	f9000807 	str	x7, [x0, #16]
   16e64:	f9000c0b 	str	x11, [x0, #24]
   16e68:	f900100a 	str	x10, [x0, #32]
   16e6c:	f9000009 	str	x9, [x0]
   16e70:	f9000408 	str	x8, [x0, #8]
   16e74:	b4fffda5 	cbz	x5, 16e28 <_Unwind_Backtrace@@Base+0x994>
   16e78:	f94008a0 	ldr	x0, [x5, #16]
   16e7c:	8b0000f5 	add	x21, x7, x0
   16e80:	386068e0 	ldrb	w0, [x7, x0]
   16e84:	7100041f 	cmp	w0, #0x1
   16e88:	54000e81 	b.ne	17058 <_Unwind_Backtrace@@Base+0xbc4>  // b.any
   16e8c:	394006b4 	ldrb	w20, [x21, #1]
   16e90:	aa0203e1 	mov	x1, x2
   16e94:	aa0203f3 	mov	x19, x2
   16e98:	2a1403e0 	mov	w0, w20
   16e9c:	97fffe60 	bl	1681c <_Unwind_Backtrace@@Base+0x388>
   16ea0:	aa0003e1 	mov	x1, x0
   16ea4:	910012a2 	add	x2, x21, #0x4
   16ea8:	2a1403e0 	mov	w0, w20
   16eac:	910143a3 	add	x3, x29, #0x50
   16eb0:	97fffe73 	bl	1687c <_Unwind_Backtrace@@Base+0x3e8>
   16eb4:	39400ab4 	ldrb	w20, [x21, #2]
   16eb8:	aa0003e2 	mov	x2, x0
   16ebc:	7103fe9f 	cmp	w20, #0xff
   16ec0:	54000940 	b.eq	16fe8 <_Unwind_Backtrace@@Base+0xb54>  // b.none
   16ec4:	39400ea0 	ldrb	w0, [x21, #3]
   16ec8:	7100ec1f 	cmp	w0, #0x3b
   16ecc:	540008e1 	b.ne	16fe8 <_Unwind_Backtrace@@Base+0xb54>  // b.any
   16ed0:	aa1303e1 	mov	x1, x19
   16ed4:	2a1403e0 	mov	w0, w20
   16ed8:	f90027a2 	str	x2, [x29, #72]
   16edc:	97fffe50 	bl	1681c <_Unwind_Backtrace@@Base+0x388>
   16ee0:	aa0003e1 	mov	x1, x0
   16ee4:	f94027a2 	ldr	x2, [x29, #72]
   16ee8:	2a1403e0 	mov	w0, w20
   16eec:	910163a3 	add	x3, x29, #0x58
   16ef0:	97fffe63 	bl	1687c <_Unwind_Backtrace@@Base+0x3e8>
   16ef4:	aa0003f6 	mov	x22, x0
   16ef8:	f9402fa0 	ldr	x0, [x29, #88]
   16efc:	b4000ae0 	cbz	x0, 17058 <_Unwind_Backtrace@@Base+0xbc4>
   16f00:	924006c1 	and	x1, x22, #0x3
   16f04:	b5000721 	cbnz	x1, 16fe8 <_Unwind_Backtrace@@Base+0xb54>
   16f08:	b98002c2 	ldrsw	x2, [x22]
   16f0c:	f9400261 	ldr	x1, [x19]
   16f10:	8b0202a2 	add	x2, x21, x2
   16f14:	eb02003f 	cmp	x1, x2
   16f18:	54000a03 	b.cc	17058 <_Unwind_Backtrace@@Base+0xbc4>  // b.lo, b.ul, b.last
   16f1c:	d1000400 	sub	x0, x0, #0x1
   16f20:	d37df002 	lsl	x2, x0, #3
   16f24:	b8a26ac2 	ldrsw	x2, [x22, x2]
   16f28:	8b0202a2 	add	x2, x21, x2
   16f2c:	eb02003f 	cmp	x1, x2
   16f30:	540002a2 	b.cs	16f84 <_Unwind_Backtrace@@Base+0xaf0>  // b.hs, b.nlast
   16f34:	aa0003e3 	mov	x3, x0
   16f38:	d2800004 	mov	x4, #0x0                   	// #0
   16f3c:	eb03009f 	cmp	x4, x3
   16f40:	54000982 	b.cs	17070 <_Unwind_Backtrace@@Base+0xbdc>  // b.hs, b.nlast
   16f44:	8b040060 	add	x0, x3, x4
   16f48:	d341fc00 	lsr	x0, x0, #1
   16f4c:	d37df002 	lsl	x2, x0, #3
   16f50:	b8a26ac5 	ldrsw	x5, [x22, x2]
   16f54:	8b0502a5 	add	x5, x21, x5
   16f58:	eb05003f 	cmp	x1, x5
   16f5c:	54000103 	b.cc	16f7c <_Unwind_Backtrace@@Base+0xae8>  // b.lo, b.ul, b.last
   16f60:	8b0202c2 	add	x2, x22, x2
   16f64:	91000404 	add	x4, x0, #0x1
   16f68:	b9800842 	ldrsw	x2, [x2, #8]
   16f6c:	8b0202a2 	add	x2, x21, x2
   16f70:	eb02003f 	cmp	x1, x2
   16f74:	54fffe42 	b.cs	16f3c <_Unwind_Backtrace@@Base+0xaa8>  // b.hs, b.nlast
   16f78:	14000003 	b	16f84 <_Unwind_Backtrace@@Base+0xaf0>
   16f7c:	aa0003e3 	mov	x3, x0
   16f80:	17ffffef 	b	16f3c <_Unwind_Backtrace@@Base+0xaa8>
   16f84:	d37df014 	lsl	x20, x0, #3
   16f88:	8b1402c0 	add	x0, x22, x20
   16f8c:	b9800417 	ldrsw	x23, [x0, #4]
   16f90:	8b1702b7 	add	x23, x21, x23
   16f94:	aa1703e0 	mov	x0, x23
   16f98:	97ffff30 	bl	16c58 <_Unwind_Backtrace@@Base+0x7c4>
   16f9c:	53001c18 	uxtb	w24, w0
   16fa0:	2a1803e0 	mov	w0, w24
   16fa4:	97fffdee 	bl	1675c <_Unwind_Backtrace@@Base+0x2c8>
   16fa8:	8b2042e2 	add	x2, x23, w0, uxtw
   16fac:	d2800001 	mov	x1, #0x0                   	// #0
   16fb0:	12000f00 	and	w0, w24, #0xf
   16fb4:	91002042 	add	x2, x2, #0x8
   16fb8:	910183a3 	add	x3, x29, #0x60
   16fbc:	97fffe30 	bl	1687c <_Unwind_Backtrace@@Base+0x3e8>
   16fc0:	b8b46ac0 	ldrsw	x0, [x22, x20]
   16fc4:	f9400261 	ldr	x1, [x19]
   16fc8:	8b0002b5 	add	x21, x21, x0
   16fcc:	f94033a0 	ldr	x0, [x29, #96]
   16fd0:	8b0002a0 	add	x0, x21, x0
   16fd4:	eb00003f 	cmp	x1, x0
   16fd8:	54000042 	b.cs	16fe0 <_Unwind_Backtrace@@Base+0xb4c>  // b.hs, b.nlast
   16fdc:	f9001277 	str	x23, [x19, #32]
   16fe0:	f9000e75 	str	x21, [x19, #24]
   16fe4:	1400001d 	b	17058 <_Unwind_Backtrace@@Base+0xbc4>
   16fe8:	f9400660 	ldr	x0, [x19, #8]
   16fec:	f90037a0 	str	x0, [x29, #104]
   16ff0:	f9400a60 	ldr	x0, [x19, #16]
   16ff4:	f9003ba0 	str	x0, [x29, #112]
   16ff8:	52800080 	mov	w0, #0x4                   	// #4
   16ffc:	f9402ba1 	ldr	x1, [x29, #80]
   17000:	f90043bf 	str	xzr, [x29, #128]
   17004:	f9400262 	ldr	x2, [x19]
   17008:	390203a0 	strb	w0, [x29, #128]
   1700c:	910183a0 	add	x0, x29, #0x60
   17010:	f90033bf 	str	xzr, [x29, #96]
   17014:	f9003fa1 	str	x1, [x29, #120]
   17018:	97fffeb8 	bl	16af8 <_Unwind_Backtrace@@Base+0x664>
   1701c:	f9001260 	str	x0, [x19, #32]
   17020:	b40001c0 	cbz	x0, 17058 <_Unwind_Backtrace@@Base+0xbc4>
   17024:	97ffff0d 	bl	16c58 <_Unwind_Backtrace@@Base+0x7c4>
   17028:	53001c14 	uxtb	w20, w0
   1702c:	aa1303e1 	mov	x1, x19
   17030:	2a1403e0 	mov	w0, w20
   17034:	97fffdfa 	bl	1681c <_Unwind_Backtrace@@Base+0x388>
   17038:	aa0003e1 	mov	x1, x0
   1703c:	f9401262 	ldr	x2, [x19, #32]
   17040:	2a1403e0 	mov	w0, w20
   17044:	910163a3 	add	x3, x29, #0x58
   17048:	91002042 	add	x2, x2, #0x8
   1704c:	97fffe0c 	bl	1687c <_Unwind_Backtrace@@Base+0x3e8>
   17050:	f9402fa0 	ldr	x0, [x29, #88]
   17054:	f9000e60 	str	x0, [x19, #24]
   17058:	52800020 	mov	w0, #0x1                   	// #1
   1705c:	14000006 	b	17074 <_Unwind_Backtrace@@Base+0xbe0>
   17060:	12800000 	mov	w0, #0xffffffff            	// #-1
   17064:	14000004 	b	17074 <_Unwind_Backtrace@@Base+0xbe0>
   17068:	aa0103e4 	mov	x4, x1
   1706c:	17ffff49 	b	16d90 <_Unwind_Backtrace@@Base+0x8fc>
   17070:	97ffb6b0 	bl	4b30 <abort@plt>
   17074:	a94153f3 	ldp	x19, x20, [sp, #16]
   17078:	a9425bf5 	ldp	x21, x22, [sp, #32]
   1707c:	a94363f7 	ldp	x23, x24, [sp, #48]
   17080:	a8c97bfd 	ldp	x29, x30, [sp], #144
   17084:	d65f03c0 	ret
   17088:	a9bc7bfd 	stp	x29, x30, [sp, #-64]!
   1708c:	910003fd 	mov	x29, sp
   17090:	a9025bf5 	stp	x21, x22, [sp, #32]
   17094:	aa0003f5 	mov	x21, x0
   17098:	aa0103e0 	mov	x0, x1
   1709c:	a90153f3 	stp	x19, x20, [sp, #16]
   170a0:	aa0203f3 	mov	x19, x2
   170a4:	aa0103f4 	mov	x20, x1
   170a8:	97fffeec 	bl	16c58 <_Unwind_Backtrace@@Base+0x7c4>
   170ac:	53001c16 	uxtb	w22, w0
   170b0:	aa1503e1 	mov	x1, x21
   170b4:	2a1603e0 	mov	w0, w22
   170b8:	97fffdc1 	bl	167bc <_Unwind_Backtrace@@Base+0x328>
   170bc:	aa0003e1 	mov	x1, x0
   170c0:	91002282 	add	x2, x20, #0x8
   170c4:	9100c3a3 	add	x3, x29, #0x30
   170c8:	2a1603e0 	mov	w0, w22
   170cc:	97fffdec 	bl	1687c <_Unwind_Backtrace@@Base+0x3e8>
   170d0:	aa1303e0 	mov	x0, x19
   170d4:	97fffee1 	bl	16c58 <_Unwind_Backtrace@@Base+0x7c4>
   170d8:	53001c14 	uxtb	w20, w0
   170dc:	aa1503e1 	mov	x1, x21
   170e0:	2a1403e0 	mov	w0, w20
   170e4:	97fffdb6 	bl	167bc <_Unwind_Backtrace@@Base+0x328>
   170e8:	aa0003e1 	mov	x1, x0
   170ec:	91002262 	add	x2, x19, #0x8
   170f0:	9100e3a3 	add	x3, x29, #0x38
   170f4:	2a1403e0 	mov	w0, w20
   170f8:	97fffde1 	bl	1687c <_Unwind_Backtrace@@Base+0x3e8>
   170fc:	f9401ba2 	ldr	x2, [x29, #48]
   17100:	f9401fa1 	ldr	x1, [x29, #56]
   17104:	a94153f3 	ldp	x19, x20, [sp, #16]
   17108:	eb01005f 	cmp	x2, x1
   1710c:	5a9f23e0 	csetm	w0, cc	// cc = lo, ul, last
   17110:	eb01005f 	cmp	x2, x1
   17114:	a9425bf5 	ldp	x21, x22, [sp, #32]
   17118:	1a9f9400 	csinc	w0, w0, wzr, ls	// ls = plast
   1711c:	a8c47bfd 	ldp	x29, x30, [sp], #64
   17120:	d65f03c0 	ret
   17124:	a9b97bfd 	stp	x29, x30, [sp, #-112]!
   17128:	910003fd 	mov	x29, sp
   1712c:	a90153f3 	stp	x19, x20, [sp, #16]
   17130:	a90363f7 	stp	x23, x24, [sp, #48]
   17134:	a9046bf9 	stp	x25, x26, [sp, #64]
   17138:	a9025bf5 	stp	x21, x22, [sp, #32]
   1713c:	aa0003f4 	mov	x20, x0
   17140:	f9002bfb 	str	x27, [sp, #80]
   17144:	aa0103f3 	mov	x19, x1
   17148:	d280001a 	mov	x26, #0x0                   	// #0
   1714c:	52800019 	mov	w25, #0x0                   	// #0
   17150:	d2800016 	mov	x22, #0x0                   	// #0
   17154:	d2800000 	mov	x0, #0x0                   	// #0
   17158:	9101a3b7 	add	x23, x29, #0x68
   1715c:	d2800038 	mov	x24, #0x1                   	// #1
   17160:	b9400261 	ldr	w1, [x19]
   17164:	34000801 	cbz	w1, 17264 <_Unwind_Backtrace@@Base+0xdd0>
   17168:	b9400675 	ldr	w21, [x19, #4]
   1716c:	34000715 	cbz	w21, 1724c <_Unwind_Backtrace@@Base+0xdb8>
   17170:	91001261 	add	x1, x19, #0x4
   17174:	cb35c035 	sub	x21, x1, w21, sxtw
   17178:	eb0002bf 	cmp	x21, x0
   1717c:	54000360 	b.eq	171e8 <_Unwind_Backtrace@@Base+0xd54>  // b.none
   17180:	aa1503e0 	mov	x0, x21
   17184:	97fffe1e 	bl	169fc <_Unwind_Backtrace@@Base+0x568>
   17188:	7103fc1f 	cmp	w0, #0xff
   1718c:	2a0003f9 	mov	w25, w0
   17190:	54000061 	b.ne	1719c <_Unwind_Backtrace@@Base+0xd08>  // b.any
   17194:	92800000 	mov	x0, #0xffffffffffffffff    	// #-1
   17198:	14000034 	b	17268 <_Unwind_Backtrace@@Base+0xdd4>
   1719c:	53001c1b 	uxtb	w27, w0
   171a0:	aa1403e1 	mov	x1, x20
   171a4:	2a1b03e0 	mov	w0, w27
   171a8:	97fffd85 	bl	167bc <_Unwind_Backtrace@@Base+0x328>
   171ac:	aa0003fa 	mov	x26, x0
   171b0:	79404281 	ldrh	w1, [x20, #32]
   171b4:	121d1c20 	and	w0, w1, #0x7f8
   171b8:	711fe01f 	cmp	w0, #0x7f8
   171bc:	54000081 	b.ne	171cc <_Unwind_Backtrace@@Base+0xd38>  // b.any
   171c0:	331d1f61 	bfi	w1, w27, #3, #8
   171c4:	79004281 	strh	w1, [x20, #32]
   171c8:	14000009 	b	171ec <_Unwind_Backtrace@@Base+0xd58>
   171cc:	d3432821 	ubfx	x1, x1, #3, #8
   171d0:	6b19003f 	cmp	w1, w25
   171d4:	540000c0 	b.eq	171ec <_Unwind_Backtrace@@Base+0xd58>  // b.none
   171d8:	39408280 	ldrb	w0, [x20, #32]
   171dc:	321e0000 	orr	w0, w0, #0x4
   171e0:	39008280 	strb	w0, [x20, #32]
   171e4:	14000002 	b	171ec <_Unwind_Backtrace@@Base+0xd58>
   171e8:	aa0003f5 	mov	x21, x0
   171ec:	53001f3b 	uxtb	w27, w25
   171f0:	aa1a03e1 	mov	x1, x26
   171f4:	91002262 	add	x2, x19, #0x8
   171f8:	aa1703e3 	mov	x3, x23
   171fc:	2a1b03e0 	mov	w0, w27
   17200:	97fffd9f 	bl	1687c <_Unwind_Backtrace@@Base+0x3e8>
   17204:	2a1b03e0 	mov	w0, w27
   17208:	97fffd55 	bl	1675c <_Unwind_Backtrace@@Base+0x2c8>
   1720c:	2a0003e0 	mov	w0, w0
   17210:	f1001c1f 	cmp	x0, #0x7
   17214:	92800001 	mov	x1, #0xffffffffffffffff    	// #-1
   17218:	54000088 	b.hi	17228 <_Unwind_Backtrace@@Base+0xd94>  // b.pmore
   1721c:	d37df001 	lsl	x1, x0, #3
   17220:	9ac12301 	lsl	x1, x24, x1
   17224:	d1000421 	sub	x1, x1, #0x1
   17228:	f94037a0 	ldr	x0, [x29, #104]
   1722c:	ea00003f 	tst	x1, x0
   17230:	54000100 	b.eq	17250 <_Unwind_Backtrace@@Base+0xdbc>  // b.none
   17234:	f9400281 	ldr	x1, [x20]
   17238:	910006d6 	add	x22, x22, #0x1
   1723c:	eb01001f 	cmp	x0, x1
   17240:	54000082 	b.cs	17250 <_Unwind_Backtrace@@Base+0xdbc>  // b.hs, b.nlast
   17244:	f9000280 	str	x0, [x20]
   17248:	14000002 	b	17250 <_Unwind_Backtrace@@Base+0xdbc>
   1724c:	aa0003f5 	mov	x21, x0
   17250:	b9400260 	ldr	w0, [x19]
   17254:	91001000 	add	x0, x0, #0x4
   17258:	8b000273 	add	x19, x19, x0
   1725c:	aa1503e0 	mov	x0, x21
   17260:	17ffffc0 	b	17160 <_Unwind_Backtrace@@Base+0xccc>
   17264:	aa1603e0 	mov	x0, x22
   17268:	a94153f3 	ldp	x19, x20, [sp, #16]
   1726c:	a9425bf5 	ldp	x21, x22, [sp, #32]
   17270:	a94363f7 	ldp	x23, x24, [sp, #48]
   17274:	a9446bf9 	ldp	x25, x26, [sp, #64]
   17278:	f9402bfb 	ldr	x27, [sp, #80]
   1727c:	a8c77bfd 	ldp	x29, x30, [sp], #112
   17280:	d65f03c0 	ret
   17284:	a9b97bfd 	stp	x29, x30, [sp, #-112]!
   17288:	910003fd 	mov	x29, sp
   1728c:	a9025bf5 	stp	x21, x22, [sp, #32]
   17290:	aa0003f6 	mov	x22, x0
   17294:	79404000 	ldrh	w0, [x0, #32]
   17298:	a90363f7 	stp	x23, x24, [sp, #48]
   1729c:	d3432800 	ubfx	x0, x0, #3, #8
   172a0:	aa0103f7 	mov	x23, x1
   172a4:	aa1603e1 	mov	x1, x22
   172a8:	f9002bfb 	str	x27, [sp, #80]
   172ac:	a9046bf9 	stp	x25, x26, [sp, #64]
   172b0:	a90153f3 	stp	x19, x20, [sp, #16]
   172b4:	53001c15 	uxtb	w21, w0
   172b8:	aa0203f3 	mov	x19, x2
   172bc:	97fffd40 	bl	167bc <_Unwind_Backtrace@@Base+0x328>
   172c0:	9101a3b8 	add	x24, x29, #0x68
   172c4:	aa0003fa 	mov	x26, x0
   172c8:	d2800039 	mov	x25, #0x1                   	// #1
   172cc:	d2800000 	mov	x0, #0x0                   	// #0
   172d0:	b9400261 	ldr	w1, [x19]
   172d4:	34000641 	cbz	w1, 1739c <_Unwind_Backtrace@@Base+0xf08>
   172d8:	b9400661 	ldr	w1, [x19, #4]
   172dc:	aa0003f4 	mov	x20, x0
   172e0:	34000541 	cbz	w1, 17388 <_Unwind_Backtrace@@Base+0xef4>
   172e4:	394082c2 	ldrb	w2, [x22, #32]
   172e8:	36100162 	tbz	w2, #2, 17314 <_Unwind_Backtrace@@Base+0xe80>
   172ec:	91001274 	add	x20, x19, #0x4
   172f0:	cb21c294 	sub	x20, x20, w1, sxtw
   172f4:	eb00029f 	cmp	x20, x0
   172f8:	540000e0 	b.eq	17314 <_Unwind_Backtrace@@Base+0xe80>  // b.none
   172fc:	aa1403e0 	mov	x0, x20
   17300:	97fffdbf 	bl	169fc <_Unwind_Backtrace@@Base+0x568>
   17304:	2a0003f5 	mov	w21, w0
   17308:	aa1603e1 	mov	x1, x22
   1730c:	97fffd2c 	bl	167bc <_Unwind_Backtrace@@Base+0x328>
   17310:	aa0003fa 	mov	x26, x0
   17314:	35000095 	cbnz	w21, 17324 <_Unwind_Backtrace@@Base+0xe90>
   17318:	f9400660 	ldr	x0, [x19, #8]
   1731c:	b4000360 	cbz	x0, 17388 <_Unwind_Backtrace@@Base+0xef4>
   17320:	14000013 	b	1736c <_Unwind_Backtrace@@Base+0xed8>
   17324:	53001ebb 	uxtb	w27, w21
   17328:	aa1a03e1 	mov	x1, x26
   1732c:	91002262 	add	x2, x19, #0x8
   17330:	aa1803e3 	mov	x3, x24
   17334:	2a1b03e0 	mov	w0, w27
   17338:	97fffd51 	bl	1687c <_Unwind_Backtrace@@Base+0x3e8>
   1733c:	2a1b03e0 	mov	w0, w27
   17340:	97fffd07 	bl	1675c <_Unwind_Backtrace@@Base+0x2c8>
   17344:	2a0003e0 	mov	w0, w0
   17348:	f1001c1f 	cmp	x0, #0x7
   1734c:	92800001 	mov	x1, #0xffffffffffffffff    	// #-1
   17350:	54000088 	b.hi	17360 <_Unwind_Backtrace@@Base+0xecc>  // b.pmore
   17354:	d37df001 	lsl	x1, x0, #3
   17358:	9ac12321 	lsl	x1, x25, x1
   1735c:	d1000421 	sub	x1, x1, #0x1
   17360:	f94037a0 	ldr	x0, [x29, #104]
   17364:	ea00003f 	tst	x1, x0
   17368:	54000100 	b.eq	17388 <_Unwind_Backtrace@@Base+0xef4>  // b.none
   1736c:	f94002e0 	ldr	x0, [x23]
   17370:	b40000c0 	cbz	x0, 17388 <_Unwind_Backtrace@@Base+0xef4>
   17374:	f9400401 	ldr	x1, [x0, #8]
   17378:	91000422 	add	x2, x1, #0x1
   1737c:	91000821 	add	x1, x1, #0x2
   17380:	f9000402 	str	x2, [x0, #8]
   17384:	f8217813 	str	x19, [x0, x1, lsl #3]
   17388:	b9400260 	ldr	w0, [x19]
   1738c:	91001000 	add	x0, x0, #0x4
   17390:	8b000273 	add	x19, x19, x0
   17394:	aa1403e0 	mov	x0, x20
   17398:	17ffffce 	b	172d0 <_Unwind_Backtrace@@Base+0xe3c>
   1739c:	a94153f3 	ldp	x19, x20, [sp, #16]
   173a0:	a9425bf5 	ldp	x21, x22, [sp, #32]
   173a4:	a94363f7 	ldp	x23, x24, [sp, #48]
   173a8:	a9446bf9 	ldp	x25, x26, [sp, #64]
   173ac:	f9402bfb 	ldr	x27, [sp, #80]
   173b0:	a8c77bfd 	ldp	x29, x30, [sp], #112
   173b4:	d65f03c0 	ret
   173b8:	a9b77bfd 	stp	x29, x30, [sp, #-144]!
   173bc:	910003fd 	mov	x29, sp
   173c0:	a9025bf5 	stp	x21, x22, [sp, #32]
   173c4:	aa0103f6 	mov	x22, x1
   173c8:	39408001 	ldrb	w1, [x0, #32]
   173cc:	a90153f3 	stp	x19, x20, [sp, #16]
   173d0:	a90363f7 	stp	x23, x24, [sp, #48]
   173d4:	a9046bf9 	stp	x25, x26, [sp, #64]
   173d8:	a90573fb 	stp	x27, x28, [sp, #80]
   173dc:	aa0003f3 	mov	x19, x0
   173e0:	36000081 	tbz	w1, #0, 173f0 <_Unwind_Backtrace@@Base+0xf5c>
   173e4:	39408260 	ldrb	w0, [x19, #32]
   173e8:	37000da0 	tbnz	w0, #0, 1759c <_Unwind_Backtrace@@Base+0x1108>
   173ec:	140000d9 	b	17750 <_Unwind_Backtrace@@Base+0x12bc>
   173f0:	b9402014 	ldr	w20, [x0, #32]
   173f4:	d34b7e94 	ubfx	x20, x20, #11, #21
   173f8:	b5000474 	cbnz	x20, 17484 <_Unwind_Backtrace@@Base+0xff0>
   173fc:	36080261 	tbz	w1, #1, 17448 <_Unwind_Backtrace@@Base+0xfb4>
   17400:	f9400c15 	ldr	x21, [x0, #24]
   17404:	f94002a1 	ldr	x1, [x21]
   17408:	b40002a1 	cbz	x1, 1745c <_Unwind_Backtrace@@Base+0xfc8>
   1740c:	aa1303e0 	mov	x0, x19
   17410:	97ffff45 	bl	17124 <_Unwind_Backtrace@@Base+0xc90>
   17414:	b100041f 	cmn	x0, #0x1
   17418:	54000121 	b.ne	1743c <_Unwind_Backtrace@@Base+0xfa8>  // b.any
   1741c:	5280ff00 	mov	w0, #0x7f8                 	// #2040
   17420:	f900127f 	str	xzr, [x19, #32]
   17424:	79004260 	strh	w0, [x19, #32]
   17428:	90000140 	adrp	x0, 3f000 <__bss_start@@Base+0x10fd0>
   1742c:	91344000 	add	x0, x0, #0xd10
   17430:	91066000 	add	x0, x0, #0x198
   17434:	f9000e60 	str	x0, [x19, #24]
   17438:	14000054 	b	17588 <_Unwind_Backtrace@@Base+0x10f4>
   1743c:	8b000294 	add	x20, x20, x0
   17440:	910022b5 	add	x21, x21, #0x8
   17444:	17fffff0 	b	17404 <_Unwind_Backtrace@@Base+0xf70>
   17448:	f9400c01 	ldr	x1, [x0, #24]
   1744c:	97ffff36 	bl	17124 <_Unwind_Backtrace@@Base+0xc90>
   17450:	b100041f 	cmn	x0, #0x1
   17454:	aa0003f4 	mov	x20, x0
   17458:	54fffe20 	b.eq	1741c <_Unwind_Backtrace@@Base+0xf88>  // b.none
   1745c:	12005280 	and	w0, w20, #0x1fffff
   17460:	eb14001f 	cmp	x0, x20
   17464:	aa0003e1 	mov	x1, x0
   17468:	b9402260 	ldr	w0, [x19, #32]
   1746c:	54000061 	b.ne	17478 <_Unwind_Backtrace@@Base+0xfe4>  // b.any
   17470:	33155020 	bfi	w0, w1, #11, #21
   17474:	14000002 	b	1747c <_Unwind_Backtrace@@Base+0xfe8>
   17478:	12002800 	and	w0, w0, #0x7ff
   1747c:	b9002260 	str	w0, [x19, #32]
   17480:	b4000854 	cbz	x20, 17588 <_Unwind_Backtrace@@Base+0x10f4>
   17484:	91000a95 	add	x21, x20, #0x2
   17488:	d37df2b5 	lsl	x21, x21, #3
   1748c:	aa1503e0 	mov	x0, x21
   17490:	97ffb568 	bl	4a30 <malloc@plt>
   17494:	f90043a0 	str	x0, [x29, #128]
   17498:	b4000780 	cbz	x0, 17588 <_Unwind_Backtrace@@Base+0x10f4>
   1749c:	f900041f 	str	xzr, [x0, #8]
   174a0:	aa1503e0 	mov	x0, x21
   174a4:	97ffb563 	bl	4a30 <malloc@plt>
   174a8:	f90047a0 	str	x0, [x29, #136]
   174ac:	b4001700 	cbz	x0, 1778c <_Unwind_Backtrace@@Base+0x12f8>
   174b0:	f900041f 	str	xzr, [x0, #8]
   174b4:	140000b6 	b	1778c <_Unwind_Backtrace@@Base+0x12f8>
   174b8:	8b020f24 	add	x4, x25, x2, lsl #3
   174bc:	f9400345 	ldr	x5, [x26]
   174c0:	f9400884 	ldr	x4, [x4, #16]
   174c4:	b4001f44 	cbz	x4, 178ac <_Unwind_Backtrace@@Base+0x1418>
   174c8:	91000824 	add	x4, x1, #0x2
   174cc:	91000421 	add	x1, x1, #0x1
   174d0:	f8247b05 	str	x5, [x24, x4, lsl #3]
   174d4:	91000442 	add	x2, x2, #0x1
   174d8:	9100235a 	add	x26, x26, #0x8
   174dc:	eb03005f 	cmp	x2, x3
   174e0:	54fffec1 	b.ne	174b8 <_Unwind_Backtrace@@Base+0x1024>  // b.any
   174e4:	f9000701 	str	x1, [x24, #8]
   174e8:	f9000720 	str	x0, [x25, #8]
   174ec:	f94047a2 	ldr	x2, [x29, #136]
   174f0:	f94043a0 	ldr	x0, [x29, #128]
   174f4:	f9400441 	ldr	x1, [x2, #8]
   174f8:	f9400400 	ldr	x0, [x0, #8]
   174fc:	8b000020 	add	x0, x1, x0
   17500:	eb14001f 	cmp	x0, x20
   17504:	540016c1 	b.ne	177dc <_Unwind_Backtrace@@Base+0x1348>  // b.any
   17508:	aa1303e0 	mov	x0, x19
   1750c:	aa1703e1 	mov	x1, x23
   17510:	97fffc66 	bl	166a8 <_Unwind_Backtrace@@Base+0x214>
   17514:	f94047bb 	ldr	x27, [x29, #136]
   17518:	f94043b5 	ldr	x21, [x29, #128]
   1751c:	f9400774 	ldr	x20, [x27, #8]
   17520:	b4000234 	cbz	x20, 17564 <_Unwind_Backtrace@@Base+0x10d0>
   17524:	f94006b8 	ldr	x24, [x21, #8]
   17528:	d37df29a 	lsl	x26, x20, #3
   1752c:	8b1a0360 	add	x0, x27, x26
   17530:	d1000694 	sub	x20, x20, #0x1
   17534:	8b180eb9 	add	x25, x21, x24, lsl #3
   17538:	f940041c 	ldr	x28, [x0, #8]
   1753c:	b5001c18 	cbnz	x24, 178bc <_Unwind_Backtrace@@Base+0x1428>
   17540:	8b140300 	add	x0, x24, x20
   17544:	d100235a 	sub	x26, x26, #0x8
   17548:	91000800 	add	x0, x0, #0x2
   1754c:	f8207abc 	str	x28, [x21, x0, lsl #3]
   17550:	b5fffef4 	cbnz	x20, 1752c <_Unwind_Backtrace@@Base+0x1098>
   17554:	f94006a1 	ldr	x1, [x21, #8]
   17558:	f9400760 	ldr	x0, [x27, #8]
   1755c:	8b000020 	add	x0, x1, x0
   17560:	f90006a0 	str	x0, [x21, #8]
   17564:	f94047a0 	ldr	x0, [x29, #136]
   17568:	97ffb522 	bl	49f0 <free@plt>
   1756c:	f94043a0 	ldr	x0, [x29, #128]
   17570:	f9400e61 	ldr	x1, [x19, #24]
   17574:	f9000001 	str	x1, [x0]
   17578:	f9000e60 	str	x0, [x19, #24]
   1757c:	39408260 	ldrb	w0, [x19, #32]
   17580:	32000000 	orr	w0, w0, #0x1
   17584:	39008260 	strb	w0, [x19, #32]
   17588:	f9400260 	ldr	x0, [x19]
   1758c:	eb0002df 	cmp	x22, x0
   17590:	54fff2a2 	b.cs	173e4 <_Unwind_Backtrace@@Base+0xf50>  // b.hs, b.nlast
   17594:	d2800000 	mov	x0, #0x0                   	// #0
   17598:	140000dd 	b	1790c <_Unwind_Backtrace@@Base+0x1478>
   1759c:	36100540 	tbz	w0, #2, 17644 <_Unwind_Backtrace@@Base+0x11b0>
   175a0:	f9400e7b 	ldr	x27, [x19, #24]
   175a4:	d2800018 	mov	x24, #0x0                   	// #0
   175a8:	9101e3b9 	add	x25, x29, #0x78
   175ac:	910203ba 	add	x26, x29, #0x80
   175b0:	f9400777 	ldr	x23, [x27, #8]
   175b4:	eb17031f 	cmp	x24, x23
   175b8:	54fffee2 	b.cs	17594 <_Unwind_Backtrace@@Base+0x1100>  // b.hs, b.nlast
   175bc:	8b1802f5 	add	x21, x23, x24
   175c0:	d341feb5 	lsr	x21, x21, #1
   175c4:	91000aa0 	add	x0, x21, #0x2
   175c8:	f8607b74 	ldr	x20, [x27, x0, lsl #3]
   175cc:	aa1403e0 	mov	x0, x20
   175d0:	97fffda2 	bl	16c58 <_Unwind_Backtrace@@Base+0x7c4>
   175d4:	53001c02 	uxtb	w2, w0
   175d8:	2a0003fc 	mov	w28, w0
   175dc:	aa1303e1 	mov	x1, x19
   175e0:	2a0203e0 	mov	w0, w2
   175e4:	f90037a2 	str	x2, [x29, #104]
   175e8:	97fffc75 	bl	167bc <_Unwind_Backtrace@@Base+0x328>
   175ec:	aa0003e1 	mov	x1, x0
   175f0:	f94037a2 	ldr	x2, [x29, #104]
   175f4:	aa1903e3 	mov	x3, x25
   175f8:	2a0203e0 	mov	w0, w2
   175fc:	91002282 	add	x2, x20, #0x8
   17600:	97fffc9f 	bl	1687c <_Unwind_Backtrace@@Base+0x3e8>
   17604:	aa0003e2 	mov	x2, x0
   17608:	d2800001 	mov	x1, #0x0                   	// #0
   1760c:	12000f80 	and	w0, w28, #0xf
   17610:	aa1a03e3 	mov	x3, x26
   17614:	97fffc9a 	bl	1687c <_Unwind_Backtrace@@Base+0x3e8>
   17618:	f9403fa1 	ldr	x1, [x29, #120]
   1761c:	eb0102df 	cmp	x22, x1
   17620:	540000e3 	b.cc	1763c <_Unwind_Backtrace@@Base+0x11a8>  // b.lo, b.ul, b.last
   17624:	f94043a0 	ldr	x0, [x29, #128]
   17628:	8b000020 	add	x0, x1, x0
   1762c:	eb0002df 	cmp	x22, x0
   17630:	54000503 	b.cc	176d0 <_Unwind_Backtrace@@Base+0x123c>  // b.lo, b.ul, b.last
   17634:	910006b8 	add	x24, x21, #0x1
   17638:	aa1703f5 	mov	x21, x23
   1763c:	aa1503f7 	mov	x23, x21
   17640:	17ffffdd 	b	175b4 <_Unwind_Backtrace@@Base+0x1120>
   17644:	79404260 	ldrh	w0, [x19, #32]
   17648:	721d1c1f 	tst	w0, #0x7f8
   1764c:	540002a1 	b.ne	176a0 <_Unwind_Backtrace@@Base+0x120c>  // b.any
   17650:	f9400e65 	ldr	x5, [x19, #24]
   17654:	d2800003 	mov	x3, #0x0                   	// #0
   17658:	f94004a2 	ldr	x2, [x5, #8]
   1765c:	eb02007f 	cmp	x3, x2
   17660:	54fff9a2 	b.cs	17594 <_Unwind_Backtrace@@Base+0x1100>  // b.hs, b.nlast
   17664:	8b030041 	add	x1, x2, x3
   17668:	d341fc21 	lsr	x1, x1, #1
   1766c:	91000820 	add	x0, x1, #0x2
   17670:	f86078a0 	ldr	x0, [x5, x0, lsl #3]
   17674:	f9400406 	ldr	x6, [x0, #8]
   17678:	f9400804 	ldr	x4, [x0, #16]
   1767c:	eb0602df 	cmp	x22, x6
   17680:	540000c3 	b.cc	17698 <_Unwind_Backtrace@@Base+0x1204>  // b.lo, b.ul, b.last
   17684:	8b0400c3 	add	x3, x6, x4
   17688:	eb0302df 	cmp	x22, x3
   1768c:	54001403 	b.cc	1790c <_Unwind_Backtrace@@Base+0x1478>  // b.lo, b.ul, b.last
   17690:	91000423 	add	x3, x1, #0x1
   17694:	17fffff2 	b	1765c <_Unwind_Backtrace@@Base+0x11c8>
   17698:	aa0103e2 	mov	x2, x1
   1769c:	17fffff0 	b	1765c <_Unwind_Backtrace@@Base+0x11c8>
   176a0:	d3432800 	ubfx	x0, x0, #3, #8
   176a4:	f9400e78 	ldr	x24, [x19, #24]
   176a8:	aa1303e1 	mov	x1, x19
   176ac:	d2800017 	mov	x23, #0x0                   	// #0
   176b0:	53001c19 	uxtb	w25, w0
   176b4:	910203bb 	add	x27, x29, #0x80
   176b8:	97fffc41 	bl	167bc <_Unwind_Backtrace@@Base+0x328>
   176bc:	12000f3a 	and	w26, w25, #0xf
   176c0:	aa0003fc 	mov	x28, x0
   176c4:	f9400715 	ldr	x21, [x24, #8]
   176c8:	9101e3a4 	add	x4, x29, #0x78
   176cc:	14000017 	b	17728 <_Unwind_Backtrace@@Base+0x1294>
   176d0:	aa1403e0 	mov	x0, x20
   176d4:	1400008e 	b	1790c <_Unwind_Backtrace@@Base+0x1478>
   176d8:	8b1702b3 	add	x19, x21, x23
   176dc:	aa0403e3 	mov	x3, x4
   176e0:	d341fe73 	lsr	x19, x19, #1
   176e4:	aa1c03e1 	mov	x1, x28
   176e8:	91000a60 	add	x0, x19, #0x2
   176ec:	f90037a4 	str	x4, [x29, #104]
   176f0:	f8607b14 	ldr	x20, [x24, x0, lsl #3]
   176f4:	2a1903e0 	mov	w0, w25
   176f8:	91002282 	add	x2, x20, #0x8
   176fc:	97fffc60 	bl	1687c <_Unwind_Backtrace@@Base+0x3e8>
   17700:	aa0003e2 	mov	x2, x0
   17704:	d2800001 	mov	x1, #0x0                   	// #0
   17708:	2a1a03e0 	mov	w0, w26
   1770c:	aa1b03e3 	mov	x3, x27
   17710:	97fffc5b 	bl	1687c <_Unwind_Backtrace@@Base+0x3e8>
   17714:	f9403fa1 	ldr	x1, [x29, #120]
   17718:	f94037a4 	ldr	x4, [x29, #104]
   1771c:	eb0102df 	cmp	x22, x1
   17720:	540000a2 	b.cs	17734 <_Unwind_Backtrace@@Base+0x12a0>  // b.hs, b.nlast
   17724:	aa1303f5 	mov	x21, x19
   17728:	eb1502ff 	cmp	x23, x21
   1772c:	54fffd63 	b.cc	176d8 <_Unwind_Backtrace@@Base+0x1244>  // b.lo, b.ul, b.last
   17730:	17ffff99 	b	17594 <_Unwind_Backtrace@@Base+0x1100>
   17734:	f94043a0 	ldr	x0, [x29, #128]
   17738:	8b000020 	add	x0, x1, x0
   1773c:	eb0002df 	cmp	x22, x0
   17740:	54fffc83 	b.cc	176d0 <_Unwind_Backtrace@@Base+0x123c>  // b.lo, b.ul, b.last
   17744:	91000677 	add	x23, x19, #0x1
   17748:	aa1503f3 	mov	x19, x21
   1774c:	17fffff6 	b	17724 <_Unwind_Backtrace@@Base+0x1290>
   17750:	36080140 	tbz	w0, #1, 17778 <_Unwind_Backtrace@@Base+0x12e4>
   17754:	f9400e74 	ldr	x20, [x19, #24]
   17758:	f9400281 	ldr	x1, [x20]
   1775c:	b4fff1c1 	cbz	x1, 17594 <_Unwind_Backtrace@@Base+0x1100>
   17760:	aa1303e0 	mov	x0, x19
   17764:	aa1603e2 	mov	x2, x22
   17768:	97fffce4 	bl	16af8 <_Unwind_Backtrace@@Base+0x664>
   1776c:	b5000d00 	cbnz	x0, 1790c <_Unwind_Backtrace@@Base+0x1478>
   17770:	91002294 	add	x20, x20, #0x8
   17774:	17fffff9 	b	17758 <_Unwind_Backtrace@@Base+0x12c4>
   17778:	f9400e61 	ldr	x1, [x19, #24]
   1777c:	aa1303e0 	mov	x0, x19
   17780:	aa1603e2 	mov	x2, x22
   17784:	97fffcdd 	bl	16af8 <_Unwind_Backtrace@@Base+0x664>
   17788:	14000061 	b	1790c <_Unwind_Backtrace@@Base+0x1478>
   1778c:	39408260 	ldrb	w0, [x19, #32]
   17790:	36080140 	tbz	w0, #1, 177b8 <_Unwind_Backtrace@@Base+0x1324>
   17794:	f9400e75 	ldr	x21, [x19, #24]
   17798:	910203b7 	add	x23, x29, #0x80
   1779c:	f94002a2 	ldr	x2, [x21]
   177a0:	b4000142 	cbz	x2, 177c8 <_Unwind_Backtrace@@Base+0x1334>
   177a4:	aa1303e0 	mov	x0, x19
   177a8:	aa1703e1 	mov	x1, x23
   177ac:	910022b5 	add	x21, x21, #0x8
   177b0:	97fffeb5 	bl	17284 <_Unwind_Backtrace@@Base+0xdf0>
   177b4:	17fffffa 	b	1779c <_Unwind_Backtrace@@Base+0x1308>
   177b8:	f9400e62 	ldr	x2, [x19, #24]
   177bc:	aa1303e0 	mov	x0, x19
   177c0:	910203a1 	add	x1, x29, #0x80
   177c4:	97fffeb0 	bl	17284 <_Unwind_Backtrace@@Base+0xdf0>
   177c8:	f94043b8 	ldr	x24, [x29, #128]
   177cc:	b40000b8 	cbz	x24, 177e0 <_Unwind_Backtrace@@Base+0x134c>
   177d0:	f9400700 	ldr	x0, [x24, #8]
   177d4:	eb14001f 	cmp	x0, x20
   177d8:	54000040 	b.eq	177e0 <_Unwind_Backtrace@@Base+0x134c>  // b.none
   177dc:	97ffb4d5 	bl	4b30 <abort@plt>
   177e0:	39408260 	ldrb	w0, [x19, #32]
   177e4:	371000e0 	tbnz	w0, #2, 17800 <_Unwind_Backtrace@@Base+0x136c>
   177e8:	79404260 	ldrh	w0, [x19, #32]
   177ec:	721d1c1f 	tst	w0, #0x7f8
   177f0:	540000e0 	b.eq	1780c <_Unwind_Backtrace@@Base+0x1378>  // b.none
   177f4:	f0fffff7 	adrp	x23, 16000 <__frame_state_for@@Base+0xe8>
   177f8:	9125b2f7 	add	x23, x23, #0x96c
   177fc:	14000006 	b	17814 <_Unwind_Backtrace@@Base+0x1380>
   17800:	90000017 	adrp	x23, 17000 <_Unwind_Backtrace@@Base+0xb6c>
   17804:	910222f7 	add	x23, x23, #0x88
   17808:	14000003 	b	17814 <_Unwind_Backtrace@@Base+0x1380>
   1780c:	f0fffff7 	adrp	x23, 16000 <__frame_state_for@@Base+0xe8>
   17810:	911732f7 	add	x23, x23, #0x5cc
   17814:	f94047b9 	ldr	x25, [x29, #136]
   17818:	b4000719 	cbz	x25, 178f8 <_Unwind_Backtrace@@Base+0x1464>
   1781c:	90000155 	adrp	x21, 3f000 <__bss_start@@Base+0x10fd0>
   17820:	9100431a 	add	x26, x24, #0x10
   17824:	913442b5 	add	x21, x21, #0xd10
   17828:	f9400703 	ldr	x3, [x24, #8]
   1782c:	910642b5 	add	x21, x21, #0x190
   17830:	aa1a03fc 	mov	x28, x26
   17834:	d280001b 	mov	x27, #0x0                   	// #0
   17838:	aa1503e4 	mov	x4, x21
   1783c:	eb03037f 	cmp	x27, x3
   17840:	540002e0 	b.eq	1789c <_Unwind_Backtrace@@Base+0x1408>  // b.none
   17844:	eb0402bf 	cmp	x21, x4
   17848:	540001e0 	b.eq	17884 <_Unwind_Backtrace@@Base+0x13f0>  // b.none
   1784c:	f9400381 	ldr	x1, [x28]
   17850:	aa1303e0 	mov	x0, x19
   17854:	f94002a2 	ldr	x2, [x21]
   17858:	f90033a4 	str	x4, [x29, #96]
   1785c:	f90037a3 	str	x3, [x29, #104]
   17860:	d63f02e0 	blr	x23
   17864:	f94037a3 	ldr	x3, [x29, #104]
   17868:	f94033a4 	ldr	x4, [x29, #96]
   1786c:	36f800c0 	tbz	w0, #31, 17884 <_Unwind_Backtrace@@Base+0x13f0>
   17870:	cb1a02a0 	sub	x0, x21, x26
   17874:	8b000320 	add	x0, x25, x0
   17878:	f9400815 	ldr	x21, [x0, #16]
   1787c:	f900081f 	str	xzr, [x0, #16]
   17880:	17fffff1 	b	17844 <_Unwind_Backtrace@@Base+0x13b0>
   17884:	8b1b0f20 	add	x0, x25, x27, lsl #3
   17888:	9100077b 	add	x27, x27, #0x1
   1788c:	f9000815 	str	x21, [x0, #16]
   17890:	aa1c03f5 	mov	x21, x28
   17894:	9100239c 	add	x28, x28, #0x8
   17898:	17ffffe9 	b	1783c <_Unwind_Backtrace@@Base+0x13a8>
   1789c:	d2800000 	mov	x0, #0x0                   	// #0
   178a0:	d2800001 	mov	x1, #0x0                   	// #0
   178a4:	d2800002 	mov	x2, #0x0                   	// #0
   178a8:	17ffff0d 	b	174dc <_Unwind_Backtrace@@Base+0x1048>
   178ac:	91000804 	add	x4, x0, #0x2
   178b0:	91000400 	add	x0, x0, #0x1
   178b4:	f8247b25 	str	x5, [x25, x4, lsl #3]
   178b8:	17ffff07 	b	174d4 <_Unwind_Backtrace@@Base+0x1040>
   178bc:	f9400721 	ldr	x1, [x25, #8]
   178c0:	d1000703 	sub	x3, x24, #0x1
   178c4:	aa1303e0 	mov	x0, x19
   178c8:	f90037a3 	str	x3, [x29, #104]
   178cc:	aa1c03e2 	mov	x2, x28
   178d0:	d1002339 	sub	x25, x25, #0x8
   178d4:	d63f02e0 	blr	x23
   178d8:	6b1f001f 	cmp	w0, wzr
   178dc:	f94037a3 	ldr	x3, [x29, #104]
   178e0:	54ffe30d 	b.le	17540 <_Unwind_Backtrace@@Base+0x10ac>
   178e4:	8b1a0320 	add	x0, x25, x26
   178e8:	f9400b21 	ldr	x1, [x25, #16]
   178ec:	aa0303f8 	mov	x24, x3
   178f0:	f9000801 	str	x1, [x0, #16]
   178f4:	17ffff12 	b	1753c <_Unwind_Backtrace@@Base+0x10a8>
   178f8:	aa1303e0 	mov	x0, x19
   178fc:	aa1703e1 	mov	x1, x23
   17900:	aa1803e2 	mov	x2, x24
   17904:	97fffb69 	bl	166a8 <_Unwind_Backtrace@@Base+0x214>
   17908:	17ffff19 	b	1756c <_Unwind_Backtrace@@Base+0x10d8>
   1790c:	a94153f3 	ldp	x19, x20, [sp, #16]
   17910:	a9425bf5 	ldp	x21, x22, [sp, #32]
   17914:	a94363f7 	ldp	x23, x24, [sp, #48]
   17918:	a9446bf9 	ldp	x25, x26, [sp, #64]
   1791c:	a94573fb 	ldp	x27, x28, [sp, #80]
   17920:	a8c97bfd 	ldp	x29, x30, [sp], #144
   17924:	d65f03c0 	ret

0000000000017928 <__register_frame_info_bases@@Base>:
   17928:	a9bd7bfd 	stp	x29, x30, [sp, #-48]!
   1792c:	910003fd 	mov	x29, sp
   17930:	a90153f3 	stp	x19, x20, [sp, #16]
   17934:	f90013f5 	str	x21, [sp, #32]
   17938:	b40003e0 	cbz	x0, 179b4 <__register_frame_info_bases@@Base+0x8c>
   1793c:	b9400004 	ldr	w4, [x0]
   17940:	340003a4 	cbz	w4, 179b4 <__register_frame_info_bases@@Base+0x8c>
   17944:	aa0103f3 	mov	x19, x1
   17948:	92800001 	mov	x1, #0xffffffffffffffff    	// #-1
   1794c:	90000154 	adrp	x20, 3f000 <__bss_start@@Base+0x10fd0>
   17950:	f9000261 	str	x1, [x19]
   17954:	d00000a1 	adrp	x1, 2d000 <__FINI_ARRAY__@@Base+0x360>
   17958:	f900127f 	str	xzr, [x19, #32]
   1795c:	aa0103f5 	mov	x21, x1
   17960:	f9000e60 	str	x0, [x19, #24]
   17964:	5280ff00 	mov	w0, #0x7f8                 	// #2040
   17968:	f9000662 	str	x2, [x19, #8]
   1796c:	f9000a63 	str	x3, [x19, #16]
   17970:	79004260 	strh	w0, [x19, #32]
   17974:	f947d420 	ldr	x0, [x1, #4008]
   17978:	b4000080 	cbz	x0, 17988 <__register_frame_info_bases@@Base+0x60>
   1797c:	91344280 	add	x0, x20, #0xd10
   17980:	91068000 	add	x0, x0, #0x1a0
   17984:	97ffb47b 	bl	4b70 <pthread_mutex_lock@plt>
   17988:	91344280 	add	x0, x20, #0xd10
   1798c:	f940e401 	ldr	x1, [x0, #456]
   17990:	f9001661 	str	x1, [x19, #40]
   17994:	f900e413 	str	x19, [x0, #456]
   17998:	f947d6b5 	ldr	x21, [x21, #4008]
   1799c:	b40000d5 	cbz	x21, 179b4 <__register_frame_info_bases@@Base+0x8c>
   179a0:	a94153f3 	ldp	x19, x20, [sp, #16]
   179a4:	f94013f5 	ldr	x21, [sp, #32]
   179a8:	91068000 	add	x0, x0, #0x1a0
   179ac:	a8c37bfd 	ldp	x29, x30, [sp], #48
   179b0:	17ffb44c 	b	4ae0 <pthread_mutex_unlock@plt>
   179b4:	a94153f3 	ldp	x19, x20, [sp, #16]
   179b8:	f94013f5 	ldr	x21, [sp, #32]
   179bc:	a8c37bfd 	ldp	x29, x30, [sp], #48
   179c0:	d65f03c0 	ret

00000000000179c4 <__register_frame_info@@Base>:
   179c4:	d2800002 	mov	x2, #0x0                   	// #0
   179c8:	d2800003 	mov	x3, #0x0                   	// #0
   179cc:	17ffffd7 	b	17928 <__register_frame_info_bases@@Base>

00000000000179d0 <__register_frame@@Base>:
   179d0:	a9be7bfd 	stp	x29, x30, [sp, #-32]!
   179d4:	910003fd 	mov	x29, sp
   179d8:	b9400001 	ldr	w1, [x0]
   179dc:	f9000bf3 	str	x19, [sp, #16]
   179e0:	34000121 	cbz	w1, 17a04 <__register_frame@@Base+0x34>
   179e4:	aa0003f3 	mov	x19, x0
   179e8:	d2800600 	mov	x0, #0x30                  	// #48
   179ec:	97ffb411 	bl	4a30 <malloc@plt>
   179f0:	aa0003e1 	mov	x1, x0
   179f4:	aa1303e0 	mov	x0, x19
   179f8:	f9400bf3 	ldr	x19, [sp, #16]
   179fc:	a8c27bfd 	ldp	x29, x30, [sp], #32
   17a00:	17fffff1 	b	179c4 <__register_frame_info@@Base>
   17a04:	f9400bf3 	ldr	x19, [sp, #16]
   17a08:	a8c27bfd 	ldp	x29, x30, [sp], #32
   17a0c:	d65f03c0 	ret

0000000000017a10 <__register_frame_info_table_bases@@Base>:
   17a10:	a9bd7bfd 	stp	x29, x30, [sp, #-48]!
   17a14:	92800004 	mov	x4, #0xffffffffffffffff    	// #-1
   17a18:	910003fd 	mov	x29, sp
   17a1c:	a90153f3 	stp	x19, x20, [sp, #16]
   17a20:	f900103f 	str	xzr, [x1, #32]
   17a24:	90000153 	adrp	x19, 3f000 <__bss_start@@Base+0x10fd0>
   17a28:	f9000c20 	str	x0, [x1, #24]
   17a2c:	52800040 	mov	w0, #0x2                   	// #2
   17a30:	39008020 	strb	w0, [x1, #32]
   17a34:	f9000422 	str	x2, [x1, #8]
   17a38:	d00000a2 	adrp	x2, 2d000 <__FINI_ARRAY__@@Base+0x360>
   17a3c:	79404020 	ldrh	w0, [x1, #32]
   17a40:	aa0203f4 	mov	x20, x2
   17a44:	f9000024 	str	x4, [x1]
   17a48:	321d1c00 	orr	w0, w0, #0x7f8
   17a4c:	f9000823 	str	x3, [x1, #16]
   17a50:	79004020 	strh	w0, [x1, #32]
   17a54:	f947d440 	ldr	x0, [x2, #4008]
   17a58:	b40000c0 	cbz	x0, 17a70 <__register_frame_info_table_bases@@Base+0x60>
   17a5c:	91344260 	add	x0, x19, #0xd10
   17a60:	f90017a1 	str	x1, [x29, #40]
   17a64:	91068000 	add	x0, x0, #0x1a0
   17a68:	97ffb442 	bl	4b70 <pthread_mutex_lock@plt>
   17a6c:	f94017a1 	ldr	x1, [x29, #40]
   17a70:	91344260 	add	x0, x19, #0xd10
   17a74:	f940e402 	ldr	x2, [x0, #456]
   17a78:	f9001422 	str	x2, [x1, #40]
   17a7c:	f900e401 	str	x1, [x0, #456]
   17a80:	f947d694 	ldr	x20, [x20, #4008]
   17a84:	b40000b4 	cbz	x20, 17a98 <__register_frame_info_table_bases@@Base+0x88>
   17a88:	a94153f3 	ldp	x19, x20, [sp, #16]
   17a8c:	a8c37bfd 	ldp	x29, x30, [sp], #48
   17a90:	91068000 	add	x0, x0, #0x1a0
   17a94:	17ffb413 	b	4ae0 <pthread_mutex_unlock@plt>
   17a98:	a94153f3 	ldp	x19, x20, [sp, #16]
   17a9c:	a8c37bfd 	ldp	x29, x30, [sp], #48
   17aa0:	d65f03c0 	ret

0000000000017aa4 <__register_frame_info_table@@Base>:
   17aa4:	d2800002 	mov	x2, #0x0                   	// #0
   17aa8:	d2800003 	mov	x3, #0x0                   	// #0
   17aac:	17ffffd9 	b	17a10 <__register_frame_info_table_bases@@Base>

0000000000017ab0 <__register_frame_table@@Base>:
   17ab0:	a9be7bfd 	stp	x29, x30, [sp, #-32]!
   17ab4:	910003fd 	mov	x29, sp
   17ab8:	f9000bf3 	str	x19, [sp, #16]
   17abc:	aa0003f3 	mov	x19, x0
   17ac0:	d2800600 	mov	x0, #0x30                  	// #48
   17ac4:	97ffb3db 	bl	4a30 <malloc@plt>
   17ac8:	aa0003e1 	mov	x1, x0
   17acc:	aa1303e0 	mov	x0, x19
   17ad0:	f9400bf3 	ldr	x19, [sp, #16]
   17ad4:	a8c27bfd 	ldp	x29, x30, [sp], #32
   17ad8:	17fffff3 	b	17aa4 <__register_frame_info_table@@Base>

0000000000017adc <__deregister_frame_info_bases@@Base>:
   17adc:	a9bd7bfd 	stp	x29, x30, [sp, #-48]!
   17ae0:	910003fd 	mov	x29, sp
   17ae4:	a90153f3 	stp	x19, x20, [sp, #16]
   17ae8:	a9025bf5 	stp	x21, x22, [sp, #32]
   17aec:	b4000580 	cbz	x0, 17b9c <__deregister_frame_info_bases@@Base+0xc0>
   17af0:	b9400001 	ldr	w1, [x0]
   17af4:	34000541 	cbz	w1, 17b9c <__deregister_frame_info_bases@@Base+0xc0>
   17af8:	d00000b4 	adrp	x20, 2d000 <__FINI_ARRAY__@@Base+0x360>
   17afc:	aa0003f5 	mov	x21, x0
   17b00:	90000156 	adrp	x22, 3f000 <__bss_start@@Base+0x10fd0>
   17b04:	f947d680 	ldr	x0, [x20, #4008]
   17b08:	b4000080 	cbz	x0, 17b18 <__deregister_frame_info_bases@@Base+0x3c>
   17b0c:	913442c0 	add	x0, x22, #0xd10
   17b10:	91068000 	add	x0, x0, #0x1a0
   17b14:	97ffb417 	bl	4b70 <pthread_mutex_lock@plt>
   17b18:	913442c0 	add	x0, x22, #0xd10
   17b1c:	91072000 	add	x0, x0, #0x1c8
   17b20:	f9400013 	ldr	x19, [x0]
   17b24:	b40000f3 	cbz	x19, 17b40 <__deregister_frame_info_bases@@Base+0x64>
   17b28:	f9400e61 	ldr	x1, [x19, #24]
   17b2c:	eb15003f 	cmp	x1, x21
   17b30:	540001e0 	b.eq	17b6c <__deregister_frame_info_bases@@Base+0x90>  // b.none
   17b34:	9100a260 	add	x0, x19, #0x28
   17b38:	f9401673 	ldr	x19, [x19, #40]
   17b3c:	17fffffa 	b	17b24 <__deregister_frame_info_bases@@Base+0x48>
   17b40:	913442c0 	add	x0, x22, #0xd10
   17b44:	91074000 	add	x0, x0, #0x1d0
   17b48:	14000002 	b	17b50 <__deregister_frame_info_bases@@Base+0x74>
   17b4c:	9100a260 	add	x0, x19, #0x28
   17b50:	f9400013 	ldr	x19, [x0]
   17b54:	b4000293 	cbz	x19, 17ba4 <__deregister_frame_info_bases@@Base+0xc8>
   17b58:	39408261 	ldrb	w1, [x19, #32]
   17b5c:	370000e1 	tbnz	w1, #0, 17b78 <__deregister_frame_info_bases@@Base+0x9c>
   17b60:	f9400e61 	ldr	x1, [x19, #24]
   17b64:	eb15003f 	cmp	x1, x21
   17b68:	54ffff21 	b.ne	17b4c <__deregister_frame_info_bases@@Base+0x70>  // b.any
   17b6c:	f9401661 	ldr	x1, [x19, #40]
   17b70:	f9000001 	str	x1, [x0]
   17b74:	14000013 	b	17bc0 <__deregister_frame_info_bases@@Base+0xe4>
   17b78:	f9400e61 	ldr	x1, [x19, #24]
   17b7c:	f9400021 	ldr	x1, [x1]
   17b80:	eb15003f 	cmp	x1, x21
   17b84:	54fffe41 	b.ne	17b4c <__deregister_frame_info_bases@@Base+0x70>  // b.any
   17b88:	f9401661 	ldr	x1, [x19, #40]
   17b8c:	f9000001 	str	x1, [x0]
   17b90:	f9400e60 	ldr	x0, [x19, #24]
   17b94:	97ffb397 	bl	49f0 <free@plt>
   17b98:	1400000a 	b	17bc0 <__deregister_frame_info_bases@@Base+0xe4>
   17b9c:	d2800013 	mov	x19, #0x0                   	// #0
   17ba0:	1400000a 	b	17bc8 <__deregister_frame_info_bases@@Base+0xec>
   17ba4:	f947d694 	ldr	x20, [x20, #4008]
   17ba8:	b40000b4 	cbz	x20, 17bbc <__deregister_frame_info_bases@@Base+0xe0>
   17bac:	913442c0 	add	x0, x22, #0xd10
   17bb0:	91068000 	add	x0, x0, #0x1a0
   17bb4:	97ffb3cb 	bl	4ae0 <pthread_mutex_unlock@plt>
   17bb8:	b5000093 	cbnz	x19, 17bc8 <__deregister_frame_info_bases@@Base+0xec>
   17bbc:	97ffb3dd 	bl	4b30 <abort@plt>
   17bc0:	f947d694 	ldr	x20, [x20, #4008]
   17bc4:	b5ffff54 	cbnz	x20, 17bac <__deregister_frame_info_bases@@Base+0xd0>
   17bc8:	aa1303e0 	mov	x0, x19
   17bcc:	a94153f3 	ldp	x19, x20, [sp, #16]
   17bd0:	a9425bf5 	ldp	x21, x22, [sp, #32]
   17bd4:	a8c37bfd 	ldp	x29, x30, [sp], #48
   17bd8:	d65f03c0 	ret

0000000000017bdc <__deregister_frame_info@@Base>:
   17bdc:	17ffffc0 	b	17adc <__deregister_frame_info_bases@@Base>

0000000000017be0 <__deregister_frame@@Base>:
   17be0:	a9bf7bfd 	stp	x29, x30, [sp, #-16]!
   17be4:	910003fd 	mov	x29, sp
   17be8:	b9400001 	ldr	w1, [x0]
   17bec:	34000081 	cbz	w1, 17bfc <__deregister_frame@@Base+0x1c>
   17bf0:	97fffffb 	bl	17bdc <__deregister_frame_info@@Base>
   17bf4:	a8c17bfd 	ldp	x29, x30, [sp], #16
   17bf8:	17ffb37e 	b	49f0 <free@plt>
   17bfc:	a8c17bfd 	ldp	x29, x30, [sp], #16
   17c00:	d65f03c0 	ret

0000000000017c04 <_Unwind_Find_FDE@@Base>:
   17c04:	a9b87bfd 	stp	x29, x30, [sp, #-128]!
   17c08:	910003fd 	mov	x29, sp
   17c0c:	a9025bf5 	stp	x21, x22, [sp, #32]
   17c10:	d00000b5 	adrp	x21, 2d000 <__FINI_ARRAY__@@Base+0x360>
   17c14:	f90023f9 	str	x25, [sp, #64]
   17c18:	a90363f7 	stp	x23, x24, [sp, #48]
   17c1c:	aa0003f8 	mov	x24, x0
   17c20:	aa0103f6 	mov	x22, x1
   17c24:	f947d6a0 	ldr	x0, [x21, #4008]
   17c28:	90000157 	adrp	x23, 3f000 <__bss_start@@Base+0x10fd0>
   17c2c:	a90153f3 	stp	x19, x20, [sp, #16]
   17c30:	b4000080 	cbz	x0, 17c40 <_Unwind_Find_FDE@@Base+0x3c>
   17c34:	913442e0 	add	x0, x23, #0xd10
   17c38:	91068000 	add	x0, x0, #0x1a0
   17c3c:	97ffb3cd 	bl	4b70 <pthread_mutex_lock@plt>
   17c40:	913442e0 	add	x0, x23, #0xd10
   17c44:	f940e813 	ldr	x19, [x0, #464]
   17c48:	b4000193 	cbz	x19, 17c78 <_Unwind_Find_FDE@@Base+0x74>
   17c4c:	f9400260 	ldr	x0, [x19]
   17c50:	eb00031f 	cmp	x24, x0
   17c54:	540000e3 	b.cc	17c70 <_Unwind_Find_FDE@@Base+0x6c>  // b.lo, b.ul, b.last
   17c58:	aa1303e0 	mov	x0, x19
   17c5c:	aa1803e1 	mov	x1, x24
   17c60:	97fffdd6 	bl	173b8 <_Unwind_Backtrace@@Base+0xf24>
   17c64:	aa0003f4 	mov	x20, x0
   17c68:	b50009c0 	cbnz	x0, 17da0 <_Unwind_Find_FDE@@Base+0x19c>
   17c6c:	14000003 	b	17c78 <_Unwind_Find_FDE@@Base+0x74>
   17c70:	f9401673 	ldr	x19, [x19, #40]
   17c74:	17fffff5 	b	17c48 <_Unwind_Find_FDE@@Base+0x44>
   17c78:	913442f9 	add	x25, x23, #0xd10
   17c7c:	f940e733 	ldr	x19, [x25, #456]
   17c80:	b40002b3 	cbz	x19, 17cd4 <_Unwind_Find_FDE@@Base+0xd0>
   17c84:	f9401660 	ldr	x0, [x19, #40]
   17c88:	aa1803e1 	mov	x1, x24
   17c8c:	f900e720 	str	x0, [x25, #456]
   17c90:	aa1303e0 	mov	x0, x19
   17c94:	97fffdc9 	bl	173b8 <_Unwind_Backtrace@@Base+0xf24>
   17c98:	aa0003f4 	mov	x20, x0
   17c9c:	f940eb21 	ldr	x1, [x25, #464]
   17ca0:	91074320 	add	x0, x25, #0x1d0
   17ca4:	b4000101 	cbz	x1, 17cc4 <_Unwind_Find_FDE@@Base+0xc0>
   17ca8:	f9400023 	ldr	x3, [x1]
   17cac:	f9400262 	ldr	x2, [x19]
   17cb0:	eb02007f 	cmp	x3, x2
   17cb4:	54000083 	b.cc	17cc4 <_Unwind_Find_FDE@@Base+0xc0>  // b.lo, b.ul, b.last
   17cb8:	9100a020 	add	x0, x1, #0x28
   17cbc:	f9401421 	ldr	x1, [x1, #40]
   17cc0:	17fffff9 	b	17ca4 <_Unwind_Find_FDE@@Base+0xa0>
   17cc4:	f9001661 	str	x1, [x19, #40]
   17cc8:	f9000013 	str	x19, [x0]
   17ccc:	b4fffd94 	cbz	x20, 17c7c <_Unwind_Find_FDE@@Base+0x78>
   17cd0:	14000034 	b	17da0 <_Unwind_Find_FDE@@Base+0x19c>
   17cd4:	f947d6b5 	ldr	x21, [x21, #4008]
   17cd8:	d2800014 	mov	x20, #0x0                   	// #0
   17cdc:	b4000355 	cbz	x21, 17d44 <_Unwind_Find_FDE@@Base+0x140>
   17ce0:	913442e0 	add	x0, x23, #0xd10
   17ce4:	91068000 	add	x0, x0, #0x1a0
   17ce8:	97ffb37e 	bl	4ae0 <pthread_mutex_unlock@plt>
   17cec:	b40002d4 	cbz	x20, 17d44 <_Unwind_Find_FDE@@Base+0x140>
   17cf0:	f9400660 	ldr	x0, [x19, #8]
   17cf4:	f90002c0 	str	x0, [x22]
   17cf8:	39408261 	ldrb	w1, [x19, #32]
   17cfc:	f9400a60 	ldr	x0, [x19, #16]
   17d00:	f90006c0 	str	x0, [x22, #8]
   17d04:	79404260 	ldrh	w0, [x19, #32]
   17d08:	d3432800 	ubfx	x0, x0, #3, #8
   17d0c:	36100061 	tbz	w1, #2, 17d18 <_Unwind_Find_FDE@@Base+0x114>
   17d10:	aa1403e0 	mov	x0, x20
   17d14:	97fffbd1 	bl	16c58 <_Unwind_Backtrace@@Base+0x7c4>
   17d18:	53001c15 	uxtb	w21, w0
   17d1c:	aa1303e1 	mov	x1, x19
   17d20:	2a1503e0 	mov	w0, w21
   17d24:	97fffaa6 	bl	167bc <_Unwind_Backtrace@@Base+0x328>
   17d28:	aa0003e1 	mov	x1, x0
   17d2c:	91002282 	add	x2, x20, #0x8
   17d30:	2a1503e0 	mov	w0, w21
   17d34:	910143a3 	add	x3, x29, #0x50
   17d38:	97fffad1 	bl	1687c <_Unwind_Backtrace@@Base+0x3e8>
   17d3c:	f9402ba0 	ldr	x0, [x29, #80]
   17d40:	14000016 	b	17d98 <_Unwind_Find_FDE@@Base+0x194>
   17d44:	52800020 	mov	w0, #0x1                   	// #1
   17d48:	910143b3 	add	x19, x29, #0x50
   17d4c:	b9007ba0 	str	w0, [x29, #120]
   17d50:	f0ffffe0 	adrp	x0, 16000 <__frame_state_for@@Base+0xe8>
   17d54:	9131a000 	add	x0, x0, #0xc68
   17d58:	aa1303e1 	mov	x1, x19
   17d5c:	f9002bb8 	str	x24, [x29, #80]
   17d60:	d2800014 	mov	x20, #0x0                   	// #0
   17d64:	f9002fbf 	str	xzr, [x29, #88]
   17d68:	f90033bf 	str	xzr, [x29, #96]
   17d6c:	f90037bf 	str	xzr, [x29, #104]
   17d70:	f9003bbf 	str	xzr, [x29, #112]
   17d74:	97ffb39f 	bl	4bf0 <dl_iterate_phdr@plt>
   17d78:	37f801a0 	tbnz	w0, #31, 17dac <_Unwind_Find_FDE@@Base+0x1a8>
   17d7c:	f9403bb4 	ldr	x20, [x29, #112]
   17d80:	b4000174 	cbz	x20, 17dac <_Unwind_Find_FDE@@Base+0x1a8>
   17d84:	f9400660 	ldr	x0, [x19, #8]
   17d88:	f90002c0 	str	x0, [x22]
   17d8c:	f9400a60 	ldr	x0, [x19, #16]
   17d90:	f90006c0 	str	x0, [x22, #8]
   17d94:	f9400e60 	ldr	x0, [x19, #24]
   17d98:	f9000ac0 	str	x0, [x22, #16]
   17d9c:	14000004 	b	17dac <_Unwind_Find_FDE@@Base+0x1a8>
   17da0:	f947d6b5 	ldr	x21, [x21, #4008]
   17da4:	b5fff9f5 	cbnz	x21, 17ce0 <_Unwind_Find_FDE@@Base+0xdc>
   17da8:	17ffffd2 	b	17cf0 <_Unwind_Find_FDE@@Base+0xec>
   17dac:	aa1403e0 	mov	x0, x20
   17db0:	f94023f9 	ldr	x25, [sp, #64]
   17db4:	a94153f3 	ldp	x19, x20, [sp, #16]
   17db8:	a9425bf5 	ldp	x21, x22, [sp, #32]
   17dbc:	a94363f7 	ldp	x23, x24, [sp, #48]
   17dc0:	a8c87bfd 	ldp	x29, x30, [sp], #128
   17dc4:	d65f03c0 	ret
